   1              		.file	"farsh.c"
   2              		.section	.text.unlikely,"x"
   3              	.LCOLDB0:
   4              		.text
   5              	.LHOTB0:
   6              		.p2align 4,,15
   7              		.globl	farsh_keyed
   9              		.seh_proc	farsh_keyed
  10              	farsh_keyed:
  11 0000 4157     		pushq	%r15
  12              		.seh_pushreg	%r15
  13 0002 4156     		pushq	%r14
  14              		.seh_pushreg	%r14
  15 0004 4155     		pushq	%r13
  16              		.seh_pushreg	%r13
  17 0006 4154     		pushq	%r12
  18              		.seh_pushreg	%r12
  19 0008 55       		pushq	%rbp
  20              		.seh_pushreg	%rbp
  21 0009 57       		pushq	%rdi
  22              		.seh_pushreg	%rdi
  23 000a 56       		pushq	%rsi
  24              		.seh_pushreg	%rsi
  25 000b 53       		pushq	%rbx
  26              		.seh_pushreg	%rbx
  27 000c 4883EC48 		subq	$72, %rsp
  28              		.seh_stackalloc	72
  29 0010 0F297424 		movaps	%xmm6, 48(%rsp)
  29      30
  30              		.seh_savexmm	%xmm6, 48
  31              		.seh_endprologue
  32 0015 4885D2   		testq	%rdx, %rdx
  33 0018 4889CB   		movq	%rcx, %rbx
  34 001b 4989D4   		movq	%rdx, %r12
  35 001e 4C89C6   		movq	%r8, %rsi
  36 0021 4D89CE   		movq	%r9, %r14
  37 0024 0F847B04 		je	.L13
  37      0000
  38 002a 4C8D5424 		leaq	32(%rsp), %r10
  38      20
  39 002f 49BD87CA 		movabsq	$-7046029288634856825, %r13
  39      EB85B179 
  39      379E
  40 0039 0F1F8000 		.p2align 4,,10
  40      000000
  41              	.L10:
  42 0040 4981FC00 		cmpq	$1024, %r12
  42      040000
  43 0047 BF000400 		movl	$1024, %edi
  43      00
  44 004c 490F46FC 		cmovbe	%r12, %rdi
  45 0050 4881FF00 		cmpq	$1024, %rdi
  45      040000
  46 0057 0F843302 		je	.L44
  46      0000
  47 005d 4989FF   		movq	%rdi, %r15
  48 0060 4889FD   		movq	%rdi, %rbp
  49 0063 4C89D1   		movq	%r10, %rcx
  50 0066 48C74424 		movq	$0, 32(%rsp)
  50      20000000 
  50      00
  51 006f 49C1EF02 		shrq	$2, %r15
  52 0073 4983E7FE 		andq	$-2, %r15
  53 0077 4A8D14BD 		leaq	0(,%r15,4), %rdx
  53      00000000 
  54 007f 4829D5   		subq	%rdx, %rbp
  55 0082 4801DA   		addq	%rbx, %rdx
  56 0085 4989E8   		movq	%rbp, %r8
  57 0088 E8000000 		call	memcpy
  57      00
  58 008d 4885ED   		testq	%rbp, %rbp
  59 0090 4989C2   		movq	%rax, %r10
  60 0093 0F84D703 		je	.L45
  60      0000
  61 0099 4989C1   		movq	%rax, %r9
  62 009c 4531C0   		xorl	%r8d, %r8d
  63 009f 31C0     		xorl	%eax, %eax
  64 00a1 4D85FF   		testq	%r15, %r15
  65 00a4 BA040000 		movl	$4, %edx
  65      00
  66 00a9 0F841D01 		je	.L12
  66      0000
  67              	.L11:
  68 00af 448B4304 		movl	4(%rbx), %r8d
  69 00b3 498D4FFF 		leaq	-1(%r15), %rcx
  70 00b7 B8020000 		movl	$2, %eax
  70      00
  71 00bc 44034604 		addl	4(%rsi), %r8d
  72 00c0 48D1E9   		shrq	%rcx
  73 00c3 448B1B   		movl	(%rbx), %r11d
  74 00c6 83E103   		andl	$3, %ecx
  75 00c9 44031E   		addl	(%rsi), %r11d
  76 00cc 4D0FAFC3 		imulq	%r11, %r8
  77 00d0 4983FF02 		cmpq	$2, %r15
  78 00d4 0F86E100 		jbe	.L39
  78      0000
  79 00da 4885C9   		testq	%rcx, %rcx
  80 00dd 7465     		je	.L8
  81 00df 4883F901 		cmpq	$1, %rcx
  82 00e3 743D     		je	.L33
  83 00e5 4883F902 		cmpq	$2, %rcx
  84 00e9 741A     		je	.L34
  85 00eb 8B430C   		movl	12(%rbx), %eax
  86 00ee 8B5308   		movl	8(%rbx), %edx
  87 00f1 035608   		addl	8(%rsi), %edx
  88 00f4 89C5     		movl	%eax, %ebp
  89 00f6 036E0C   		addl	12(%rsi), %ebp
  90 00f9 B8040000 		movl	$4, %eax
  90      00
  91 00fe 480FAFD5 		imulq	%rbp, %rdx
  92 0102 4901D0   		addq	%rdx, %r8
  93              	.L34:
  94 0105 8B4C8304 		movl	4(%rbx,%rax,4), %ecx
  95 0109 8B2C83   		movl	(%rbx,%rax,4), %ebp
  96 010c 032C86   		addl	(%rsi,%rax,4), %ebp
  97 010f 4189CB   		movl	%ecx, %r11d
  98 0112 44035C86 		addl	4(%rsi,%rax,4), %r11d
  98      04
  99 0117 4883C002 		addq	$2, %rax
 100 011b 490FAFEB 		imulq	%r11, %rbp
 101 011f 4901E8   		addq	%rbp, %r8
 102              	.L33:
 103 0122 8B548304 		movl	4(%rbx,%rax,4), %edx
 104 0126 448B1C83 		movl	(%rbx,%rax,4), %r11d
 105 012a 44031C86 		addl	(%rsi,%rax,4), %r11d
 106 012e 89D1     		movl	%edx, %ecx
 107 0130 034C8604 		addl	4(%rsi,%rax,4), %ecx
 108 0134 4883C002 		addq	$2, %rax
 109 0138 4C0FAFD9 		imulq	%rcx, %r11
 110 013c 4D01D8   		addq	%r11, %r8
 111 013f 4939C7   		cmpq	%rax, %r15
 112 0142 7677     		jbe	.L39
 113              	.L8:
 114 0144 8B6C8304 		movl	4(%rbx,%rax,4), %ebp
 115 0148 4C8D5802 		leaq	2(%rax), %r11
 116 014c 036C8604 		addl	4(%rsi,%rax,4), %ebp
 117 0150 8B1483   		movl	(%rbx,%rax,4), %edx
 118 0153 031486   		addl	(%rsi,%rax,4), %edx
 119 0156 428B4C9B 		movl	4(%rbx,%r11,4), %ecx
 119      04
 120 015b 42034C9E 		addl	4(%rsi,%r11,4), %ecx
 120      04
 121 0160 480FAFEA 		imulq	%rdx, %rbp
 122 0164 4901E8   		addq	%rbp, %r8
 123 0167 428B2C9B 		movl	(%rbx,%r11,4), %ebp
 124 016b 42032C9E 		addl	(%rsi,%r11,4), %ebp
 125 016f 4C8D5804 		leaq	4(%rax), %r11
 126 0173 428B149B 		movl	(%rbx,%r11,4), %edx
 127 0177 4203149E 		addl	(%rsi,%r11,4), %edx
 128 017b 480FAFE9 		imulq	%rcx, %rbp
 129 017f 498D0C28 		leaq	(%r8,%rbp), %rcx
 130 0183 468B449B 		movl	4(%rbx,%r11,4), %r8d
 130      04
 131 0188 4603449E 		addl	4(%rsi,%r11,4), %r8d
 131      04
 132 018d 4C8D5806 		leaq	6(%rax), %r11
 133 0191 4883C008 		addq	$8, %rax
 134 0195 4C0FAFC2 		imulq	%rdx, %r8
 135 0199 4A8D2C01 		leaq	(%rcx,%r8), %rbp
 136 019d 468B449B 		movl	4(%rbx,%r11,4), %r8d
 136      04
 137 01a2 428B0C9B 		movl	(%rbx,%r11,4), %ecx
 138 01a6 4603449E 		addl	4(%rsi,%r11,4), %r8d
 138      04
 139 01ab 42030C9E 		addl	(%rsi,%r11,4), %ecx
 140 01af 4C0FAFC1 		imulq	%rcx, %r8
 141 01b3 4901E8   		addq	%rbp, %r8
 142 01b6 4939C7   		cmpq	%rax, %r15
 143 01b9 7789     		ja	.L8
 144              	.L39:
 145 01bb 48C1E002 		salq	$2, %rax
 146 01bf 4D85C9   		testq	%r9, %r9
 147 01c2 488D5004 		leaq	4(%rax), %rdx
 148 01c6 0F84B502 		je	.L46
 148      0000
 149              	.L12:
 150 01cc 418B6904 		movl	4(%r9), %ebp
 151 01d0 032C16   		addl	(%rsi,%rdx), %ebp
 152 01d3 418B11   		movl	(%r9), %edx
 153 01d6 4189D3   		movl	%edx, %r11d
 154 01d9 44031C06 		addl	(%rsi,%rax), %r11d
 155 01dd 4C89D8   		movq	%r11, %rax
 156 01e0 480FAFC5 		imulq	%rbp, %rax
 157 01e4 4C01C0   		addq	%r8, %rax
 158              	.L41:
 159 01e7 48B94FEB 		movabsq	$-4417276706812531889, %rcx
 159      D4273DAE 
 159      B2C2
 160 01f1 480FAFC1 		imulq	%rcx, %rax
 161 01f5 4989C1   		movq	%rax, %r9
 162 01f8 49C1E91F 		shrq	$31, %r9
 163 01fc 4901C1   		addq	%rax, %r9
 164 01ff 4D0FAFCD 		imulq	%r13, %r9
 165              	.L5:
 166 0203 4D31F1   		xorq	%r14, %r9
 167 0206 4801FB   		addq	%rdi, %rbx
 168 0209 4D89CE   		movq	%r9, %r14
 169 020c 49C1EE1B 		shrq	$27, %r14
 170 0210 4D01F1   		addq	%r14, %r9
 171 0213 49BE63AE 		movabsq	$-8796714831421723037, %r14
 171      B2C277CA 
 171      EB85
 172 021d 4D0FAFCD 		imulq	%r13, %r9
 173 0221 4D01CE   		addq	%r9, %r14
 174 0224 4929FC   		subq	%rdi, %r12
 175 0227 0F8513FE 		jne	.L10
 175      FFFF
 176 022d 400FB6C7 		movzbl	%dil, %eax
 177 0231 48C1E002 		salq	$2, %rax
 178              	.L2:
 179 0235 48BB4FEB 		movabsq	$-4417276706812531889, %rbx
 179      D4273DAE 
 179      B2C2
 180 023f 4D89F2   		movq	%r14, %r10
 181 0242 8B3406   		movl	(%rsi,%rax), %esi
 182 0245 49BCF979 		movabsq	$1609587929392839161, %r12
 182      379EB167 
 182      5616
 183 024f 49C1EA21 		shrq	$33, %r10
 184 0253 0F287424 		movaps	48(%rsp), %xmm6
 184      30
 185 0258 4D31F2   		xorq	%r14, %r10
 186 025b 4C0FAFD3 		imulq	%rbx, %r10
 187 025f 4C89D7   		movq	%r10, %rdi
 188 0262 48C1EF1D 		shrq	$29, %rdi
 189 0266 4931FA   		xorq	%rdi, %r10
 190 0269 4D0FAFE2 		imulq	%r10, %r12
 191 026d 4431E6   		xorl	%r12d, %esi
 192 0270 49C1EC20 		shrq	$32, %r12
 193 0274 89F0     		movl	%esi, %eax
 194 0276 4431E0   		xorl	%r12d, %eax
 195 0279 4883C448 		addq	$72, %rsp
 196 027d 5B       		popq	%rbx
 197 027e 5E       		popq	%rsi
 198 027f 5F       		popq	%rdi
 199 0280 5D       		popq	%rbp
 200 0281 415C     		popq	%r12
 201 0283 415D     		popq	%r13
 202 0285 415E     		popq	%r14
 203 0287 415F     		popq	%r15
 204 0289 C3       		ret
 205 028a 660F1F44 		.p2align 4,,10
 205      0000
 206              	.L44:
 207 0290 4531C0   		xorl	%r8d, %r8d
 208 0293 660FEFC0 		pxor	%xmm0, %xmm0
 209 0297 660F1F84 		.p2align 4,,10
 209      00000000 
 209      00
 210              	.L4:
 211 02a0 F3420F6F 		movdqu	(%rbx,%r8), %xmm2
 211      1403
 212 02a6 F3420F6F 		movdqu	(%rsi,%r8), %xmm5
 212      2C06
 213 02ac F3420F6F 		movdqu	16(%rbx,%r8), %xmm4
 213      640310
 214 02b3 660F6FDA 		movdqa	%xmm2, %xmm3
 215 02b7 F3420F6F 		movdqu	16(%rsi,%r8), %xmm1
 215      4C0610
 216 02be 660F6FF5 		movdqa	%xmm5, %xmm6
 217 02c2 0FC6D4DD 		shufps	$221, %xmm4, %xmm2
 218 02c6 0FC6DC88 		shufps	$136, %xmm4, %xmm3
 219 02ca 0FC6F188 		shufps	$136, %xmm1, %xmm6
 220 02ce 0FC6E9DD 		shufps	$221, %xmm1, %xmm5
 221 02d2 660FFEDE 		paddd	%xmm6, %xmm3
 222 02d6 660FFEEA 		paddd	%xmm2, %xmm5
 223 02da 660F6FD5 		movdqa	%xmm5, %xmm2
 224 02de 660F6FE3 		movdqa	%xmm3, %xmm4
 225 02e2 660F6FCB 		movdqa	%xmm3, %xmm1
 226 02e6 660F62D5 		punpckldq	%xmm5, %xmm2
 227 02ea 660F6ACB 		punpckhdq	%xmm3, %xmm1
 228 02ee 660F62E3 		punpckldq	%xmm3, %xmm4
 229 02f2 660F6AED 		punpckhdq	%xmm5, %xmm5
 230 02f6 660FF4E2 		pmuludq	%xmm2, %xmm4
 231 02fa F3420F6F 		movdqu	48(%rbx,%r8), %xmm3
 231      5C0330
 232 0301 660FF4E9 		pmuludq	%xmm1, %xmm5
 233 0305 660FD4E0 		paddq	%xmm0, %xmm4
 234 0309 F3420F6F 		movdqu	32(%rbx,%r8), %xmm0
 234      440320
 235 0310 660F6FCD 		movdqa	%xmm5, %xmm1
 236 0314 F3420F6F 		movdqu	32(%rsi,%r8), %xmm5
 236      6C0620
 237 031b 660FD4CC 		paddq	%xmm4, %xmm1
 238 031f F3420F6F 		movdqu	48(%rsi,%r8), %xmm4
 238      640630
 239 0326 660F6FD0 		movdqa	%xmm0, %xmm2
 240 032a 0FC6C3DD 		shufps	$221, %xmm3, %xmm0
 241 032e 660F6FF5 		movdqa	%xmm5, %xmm6
 242 0332 0FC6D388 		shufps	$136, %xmm3, %xmm2
 243 0336 0FC6F488 		shufps	$136, %xmm4, %xmm6
 244 033a 0FC6ECDD 		shufps	$221, %xmm4, %xmm5
 245 033e 660FFED6 		paddd	%xmm6, %xmm2
 246 0342 660FFEE8 		paddd	%xmm0, %xmm5
 247 0346 660F6FDD 		movdqa	%xmm5, %xmm3
 248 034a 660F6FC2 		movdqa	%xmm2, %xmm0
 249 034e 660F62C2 		punpckldq	%xmm2, %xmm0
 250 0352 660F62DD 		punpckldq	%xmm5, %xmm3
 251 0356 660F6AD2 		punpckhdq	%xmm2, %xmm2
 252 035a 660FF4D8 		pmuludq	%xmm0, %xmm3
 253 035e 660F6AED 		punpckhdq	%xmm5, %xmm5
 254 0362 660FF4EA 		pmuludq	%xmm2, %xmm5
 255 0366 F3420F6F 		movdqu	80(%rsi,%r8), %xmm2
 255      540650
 256 036d 660FD4D9 		paddq	%xmm1, %xmm3
 257 0371 F3420F6F 		movdqu	80(%rbx,%r8), %xmm1
 257      4C0350
 258 0378 660F6FE5 		movdqa	%xmm5, %xmm4
 259 037c F3420F6F 		movdqu	64(%rsi,%r8), %xmm5
 259      6C0640
 260 0383 660FD4E3 		paddq	%xmm3, %xmm4
 261 0387 F3420F6F 		movdqu	64(%rbx,%r8), %xmm3
 261      5C0340
 262 038e 660F6FF5 		movdqa	%xmm5, %xmm6
 263 0392 0FC6EADD 		shufps	$221, %xmm2, %xmm5
 264 0396 660F6FC3 		movdqa	%xmm3, %xmm0
 265 039a 0FC6F288 		shufps	$136, %xmm2, %xmm6
 266 039e 0FC6D9DD 		shufps	$221, %xmm1, %xmm3
 267 03a2 660FFEEB 		paddd	%xmm3, %xmm5
 268 03a6 0FC6C188 		shufps	$136, %xmm1, %xmm0
 269 03aa 660FFEC6 		paddd	%xmm6, %xmm0
 270 03ae 660F6FDD 		movdqa	%xmm5, %xmm3
 271 03b2 660F6FC8 		movdqa	%xmm0, %xmm1
 272 03b6 660F62DD 		punpckldq	%xmm5, %xmm3
 273 03ba 660F6AED 		punpckhdq	%xmm5, %xmm5
 274 03be 660F62C8 		punpckldq	%xmm0, %xmm1
 275 03c2 660FF4D9 		pmuludq	%xmm1, %xmm3
 276 03c6 660F6AC0 		punpckhdq	%xmm0, %xmm0
 277 03ca F3420F6F 		movdqu	96(%rbx,%r8), %xmm1
 277      4C0360
 278 03d1 660FF4E8 		pmuludq	%xmm0, %xmm5
 279 03d5 F3420F6F 		movdqu	112(%rsi,%r8), %xmm0
 279      440670
 280 03dc 660F6FF3 		movdqa	%xmm3, %xmm6
 281 03e0 F3420F6F 		movdqu	96(%rsi,%r8), %xmm3
 281      5C0660
 282 03e7 660FD4F4 		paddq	%xmm4, %xmm6
 283 03eb 660F6FD5 		movdqa	%xmm5, %xmm2
 284 03ef F3420F6F 		movdqu	112(%rbx,%r8), %xmm5
 284      6C0370
 285 03f6 660F6FE1 		movdqa	%xmm1, %xmm4
 286 03fa 660FD4D6 		paddq	%xmm6, %xmm2
 287 03fe 660F6FF3 		movdqa	%xmm3, %xmm6
 288 0402 0FC6D8DD 		shufps	$221, %xmm0, %xmm3
 289 0406 4983E880 		subq	$-128, %r8
 290 040a 0FC6CDDD 		shufps	$221, %xmm5, %xmm1
 291 040e 0FC6F088 		shufps	$136, %xmm0, %xmm6
 292 0412 660FFED9 		paddd	%xmm1, %xmm3
 293 0416 0FC6E588 		shufps	$136, %xmm5, %xmm4
 294 041a 660FFEE6 		paddd	%xmm6, %xmm4
 295 041e 660F6FCB 		movdqa	%xmm3, %xmm1
 296 0422 4981F800 		cmpq	$1024, %r8
 296      040000
 297 0429 660F6FEC 		movdqa	%xmm4, %xmm5
 298 042d 660F62CB 		punpckldq	%xmm3, %xmm1
 299 0431 660F6FC4 		movdqa	%xmm4, %xmm0
 300 0435 660F6ADB 		punpckhdq	%xmm3, %xmm3
 301 0439 660F62EC 		punpckldq	%xmm4, %xmm5
 302 043d 660FF4E9 		pmuludq	%xmm1, %xmm5
 303 0441 660F6AC4 		punpckhdq	%xmm4, %xmm0
 304 0445 660FF4D8 		pmuludq	%xmm0, %xmm3
 305 0449 660FD4EA 		paddq	%xmm2, %xmm5
 306 044d 660FD4DD 		paddq	%xmm5, %xmm3
 307 0451 660F6FC3 		movdqa	%xmm3, %xmm0
 308 0455 0F8545FE 		jne	.L4
 308      FFFF
 309 045b 660F73DB 		psrldq	$8, %xmm3
 309      08
 310 0460 660FD4C3 		paddq	%xmm3, %xmm0
 311 0464 66480F7E 		movq	%xmm0, %rax
 311      C0
 312 0469 E979FDFF 		jmp	.L41
 312      FF
 313 046e 6690     		.p2align 4,,10
 314              	.L45:
 315 0470 4531C9   		xorl	%r9d, %r9d
 316 0473 4D85FF   		testq	%r15, %r15
 317 0476 0F8533FC 		jne	.L11
 317      FFFF
 318 047c E982FDFF 		jmp	.L5
 318      FF
 319              		.p2align 4,,10
 320              	.L46:
 321 0481 49BF4FEB 		movabsq	$-4417276706812531889, %r15
 321      D4273DAE 
 321      B2C2
 322 048b 4D0FAFC7 		imulq	%r15, %r8
 323 048f 4D89C1   		movq	%r8, %r9
 324 0492 49C1E91F 		shrq	$31, %r9
 325 0496 4D01C8   		addq	%r9, %r8
 326 0499 4D89C1   		movq	%r8, %r9
 327 049c 4D0FAFCD 		imulq	%r13, %r9
 328 04a0 E95EFDFF 		jmp	.L5
 328      FF
 329              	.L13:
 330 04a5 31C0     		xorl	%eax, %eax
 331 04a7 E989FDFF 		jmp	.L2
 331      FF
 332              		.seh_endproc
 333              		.section	.text.unlikely,"x"
 334              	.LCOLDE0:
 335              		.text
 336              	.LHOTE0:
 337              		.section	.text.unlikely,"x"
 338              	.LCOLDB1:
 339              		.text
 340              	.LHOTB1:
 341 04ac 0F1F4000 		.p2align 4,,15
 342              		.globl	farsh_keyed_n
 344              		.seh_proc	farsh_keyed_n
 345              	farsh_keyed_n:
 346 04b0 4157     		pushq	%r15
 347              		.seh_pushreg	%r15
 348 04b2 4156     		pushq	%r14
 349              		.seh_pushreg	%r14
 350 04b4 4155     		pushq	%r13
 351              		.seh_pushreg	%r13
 352 04b6 4154     		pushq	%r12
 353              		.seh_pushreg	%r12
 354 04b8 55       		pushq	%rbp
 355              		.seh_pushreg	%rbp
 356 04b9 57       		pushq	%rdi
 357              		.seh_pushreg	%rdi
 358 04ba 56       		pushq	%rsi
 359              		.seh_pushreg	%rsi
 360 04bb 53       		pushq	%rbx
 361              		.seh_pushreg	%rbx
 362 04bc 4883EC28 		subq	$40, %rsp
 363              		.seh_stackalloc	40
 364              		.seh_endprologue
 365 04c0 4C8BA424 		movq	144(%rsp), %r12
 365      90000000 
 366 04c8 4585C9   		testl	%r9d, %r9d
 367 04cb 0F8E1C01 		jle	.L47
 367      0000
 368 04d1 4183E901 		subl	$1, %r9d
 369 04d5 4D89C7   		movq	%r8, %r15
 370 04d8 4889D5   		movq	%rdx, %rbp
 371 04db 498D5F10 		leaq	16(%r15), %rbx
 372 04df 4983C101 		addq	$1, %r9
 373 04e3 4889CF   		movq	%rcx, %rdi
 374 04e6 49C1E104 		salq	$4, %r9
 375 04ea 4D8D51F0 		leaq	-16(%r9), %r10
 376 04ee 4F8D3408 		leaq	(%r8,%r9), %r14
 377 04f2 49C1EA04 		shrq	$4, %r10
 378 04f6 4D89E1   		movq	%r12, %r9
 379 04f9 4183E203 		andl	$3, %r10d
 380 04fd 4D89D5   		movq	%r10, %r13
 381 0500 E8FBFAFF 		call	farsh_keyed
 381      FF
 382 0505 488B9424 		movq	152(%rsp), %rdx
 382      98000000 
 383 050d 4C39F3   		cmpq	%r14, %rbx
 384 0510 8902     		movl	%eax, (%rdx)
 385 0512 488D7204 		leaq	4(%rdx), %rsi
 386 0516 0F84D100 		je	.L47
 386      0000
 387 051c 4D85ED   		testq	%r13, %r13
 388 051f 746C     		je	.L49
 389 0521 4983FD01 		cmpq	$1, %r13
 390 0525 7445     		je	.L63
 391 0527 4983FD02 		cmpq	$2, %r13
 392 052b 7423     		je	.L64
 393 052d 4989D8   		movq	%rbx, %r8
 394 0530 4889F9   		movq	%rdi, %rcx
 395 0533 4D89E1   		movq	%r12, %r9
 396 0536 498D5F20 		leaq	32(%r15), %rbx
 397 053a 4889EA   		movq	%rbp, %rdx
 398 053d E8BEFAFF 		call	farsh_keyed
 398      FF
 399 0542 488B8C24 		movq	152(%rsp), %rcx
 399      98000000 
 400 054a 8906     		movl	%eax, (%rsi)
 401 054c 488D7108 		leaq	8(%rcx), %rsi
 402              	.L64:
 403 0550 4989D8   		movq	%rbx, %r8
 404 0553 4D89E1   		movq	%r12, %r9
 405 0556 4889EA   		movq	%rbp, %rdx
 406 0559 4889F9   		movq	%rdi, %rcx
 407 055c 4883C310 		addq	$16, %rbx
 408 0560 4883C604 		addq	$4, %rsi
 409 0564 E897FAFF 		call	farsh_keyed
 409      FF
 410 0569 8946FC   		movl	%eax, -4(%rsi)
 411              	.L63:
 412 056c 4989D8   		movq	%rbx, %r8
 413 056f 4D89E1   		movq	%r12, %r9
 414 0572 4889EA   		movq	%rbp, %rdx
 415 0575 4889F9   		movq	%rdi, %rcx
 416 0578 4883C310 		addq	$16, %rbx
 417 057c 4883C604 		addq	$4, %rsi
 418 0580 E87BFAFF 		call	farsh_keyed
 418      FF
 419 0585 8946FC   		movl	%eax, -4(%rsi)
 420 0588 4C39F3   		cmpq	%r14, %rbx
 421 058b 7460     		je	.L47
 422              	.L49:
 423 058d 4989D8   		movq	%rbx, %r8
 424 0590 4D89E1   		movq	%r12, %r9
 425 0593 4889EA   		movq	%rbp, %rdx
 426 0596 4889F9   		movq	%rdi, %rcx
 427 0599 4883C610 		addq	$16, %rsi
 428 059d E85EFAFF 		call	farsh_keyed
 428      FF
 429 05a2 4C8D4310 		leaq	16(%rbx), %r8
 430 05a6 4D89E1   		movq	%r12, %r9
 431 05a9 4889EA   		movq	%rbp, %rdx
 432 05ac 8946F0   		movl	%eax, -16(%rsi)
 433 05af 4889F9   		movq	%rdi, %rcx
 434 05b2 E849FAFF 		call	farsh_keyed
 434      FF
 435 05b7 4C8D4320 		leaq	32(%rbx), %r8
 436 05bb 4D89E1   		movq	%r12, %r9
 437 05be 4889EA   		movq	%rbp, %rdx
 438 05c1 8946F4   		movl	%eax, -12(%rsi)
 439 05c4 4889F9   		movq	%rdi, %rcx
 440 05c7 E834FAFF 		call	farsh_keyed
 440      FF
 441 05cc 4C8D4330 		leaq	48(%rbx), %r8
 442 05d0 4D89E1   		movq	%r12, %r9
 443 05d3 4889EA   		movq	%rbp, %rdx
 444 05d6 8946F8   		movl	%eax, -8(%rsi)
 445 05d9 4889F9   		movq	%rdi, %rcx
 446 05dc 4883C340 		addq	$64, %rbx
 447 05e0 E81BFAFF 		call	farsh_keyed
 447      FF
 448 05e5 8946FC   		movl	%eax, -4(%rsi)
 449 05e8 4C39F3   		cmpq	%r14, %rbx
 450 05eb 75A0     		jne	.L49
 451              	.L47:
 452 05ed 4883C428 		addq	$40, %rsp
 453 05f1 5B       		popq	%rbx
 454 05f2 5E       		popq	%rsi
 455 05f3 5F       		popq	%rdi
 456 05f4 5D       		popq	%rbp
 457 05f5 415C     		popq	%r12
 458 05f7 415D     		popq	%r13
 459 05f9 415E     		popq	%r14
 460 05fb 415F     		popq	%r15
 461 05fd C3       		ret
 462              		.seh_endproc
 463              		.section	.text.unlikely,"x"
 464              	.LCOLDE1:
 465              		.text
 466              	.LHOTE1:
 467              		.section	.text.unlikely,"x"
 468              	.LCOLDB2:
 469              		.text
 470              	.LHOTB2:
 471 05fe 6690     		.p2align 4,,15
 472              		.globl	farsh_n
 474              		.seh_proc	farsh_n
 475              	farsh_n:
 476 0600 4157     		pushq	%r15
 477              		.seh_pushreg	%r15
 478 0602 4156     		pushq	%r14
 479              		.seh_pushreg	%r14
 480 0604 4155     		pushq	%r13
 481              		.seh_pushreg	%r13
 482 0606 4154     		pushq	%r12
 483              		.seh_pushreg	%r12
 484 0608 55       		pushq	%rbp
 485              		.seh_pushreg	%rbp
 486 0609 57       		pushq	%rdi
 487              		.seh_pushreg	%rdi
 488 060a 56       		pushq	%rsi
 489              		.seh_pushreg	%rsi
 490 060b 53       		pushq	%rbx
 491              		.seh_pushreg	%rbx
 492 060c 4883EC28 		subq	$40, %rsp
 493              		.seh_stackalloc	40
 494              		.seh_endprologue
 495 0610 4C8BA424 		movq	144(%rsp), %r12
 495      90000000 
 496 0618 438D0408 		leal	(%r8,%r9), %eax
 497 061c 4889CF   		movq	%rcx, %rdi
 498 061f 4889D5   		movq	%rdx, %rbp
 499 0622 83F820   		cmpl	$32, %eax
 500 0625 0F874801 		ja	.L90
 500      0000
 501 062b 41C1E004 		sall	$4, %r8d
 502 062f 4585C9   		testl	%r9d, %r9d
 503 0632 4D63C0   		movslq	%r8d, %r8
 504 0635 0F8E2701 		jle	.L68
 504      0000
 505 063b 488D1500 		leaq	FARSH_KEYS(%rip), %rdx
 505      000000
 506 0642 4183E901 		subl	$1, %r9d
 507 0646 4D8D3C10 		leaq	(%r8,%rdx), %r15
 508 064a 49C1E104 		salq	$4, %r9
 509 064e 4F8D6C08 		leaq	16(%r8,%r9), %r13
 509      10
 510 0653 4D89E1   		movq	%r12, %r9
 511 0656 4D89F8   		movq	%r15, %r8
 512 0659 498D5F10 		leaq	16(%r15), %rbx
 513 065d 4901D5   		addq	%rdx, %r13
 514 0660 4889EA   		movq	%rbp, %rdx
 515 0663 E898F9FF 		call	farsh_keyed
 515      FF
 516 0668 4D89EE   		movq	%r13, %r14
 517 066b 488B8C24 		movq	152(%rsp), %rcx
 517      98000000 
 518 0673 4D29FE   		subq	%r15, %r14
 519 0676 4983EE10 		subq	$16, %r14
 520 067a 49C1EE04 		shrq	$4, %r14
 521 067e 8901     		movl	%eax, (%rcx)
 522 0680 488D7104 		leaq	4(%rcx), %rsi
 523 0684 4183E603 		andl	$3, %r14d
 524 0688 4C39EB   		cmpq	%r13, %rbx
 525 068b 0F84D100 		je	.L68
 525      0000
 526 0691 4D85F6   		testq	%r14, %r14
 527 0694 746C     		je	.L71
 528 0696 4983FE01 		cmpq	$1, %r14
 529 069a 7445     		je	.L85
 530 069c 4983FE02 		cmpq	$2, %r14
 531 06a0 7423     		je	.L86
 532 06a2 4D89E1   		movq	%r12, %r9
 533 06a5 4989D8   		movq	%rbx, %r8
 534 06a8 4889EA   		movq	%rbp, %rdx
 535 06ab 498D5F20 		leaq	32(%r15), %rbx
 536 06af 4889F9   		movq	%rdi, %rcx
 537 06b2 E849F9FF 		call	farsh_keyed
 537      FF
 538 06b7 4C8B8C24 		movq	152(%rsp), %r9
 538      98000000 
 539 06bf 8906     		movl	%eax, (%rsi)
 540 06c1 498D7108 		leaq	8(%r9), %rsi
 541              	.L86:
 542 06c5 4989D8   		movq	%rbx, %r8
 543 06c8 4D89E1   		movq	%r12, %r9
 544 06cb 4889EA   		movq	%rbp, %rdx
 545 06ce 4889F9   		movq	%rdi, %rcx
 546 06d1 4883C310 		addq	$16, %rbx
 547 06d5 4883C604 		addq	$4, %rsi
 548 06d9 E822F9FF 		call	farsh_keyed
 548      FF
 549 06de 8946FC   		movl	%eax, -4(%rsi)
 550              	.L85:
 551 06e1 4989D8   		movq	%rbx, %r8
 552 06e4 4D89E1   		movq	%r12, %r9
 553 06e7 4889EA   		movq	%rbp, %rdx
 554 06ea 4889F9   		movq	%rdi, %rcx
 555 06ed 4883C310 		addq	$16, %rbx
 556 06f1 4883C604 		addq	$4, %rsi
 557 06f5 E806F9FF 		call	farsh_keyed
 557      FF
 558 06fa 8946FC   		movl	%eax, -4(%rsi)
 559 06fd 4C39EB   		cmpq	%r13, %rbx
 560 0700 7460     		je	.L68
 561              	.L71:
 562 0702 4989D8   		movq	%rbx, %r8
 563 0705 4D89E1   		movq	%r12, %r9
 564 0708 4889EA   		movq	%rbp, %rdx
 565 070b 4889F9   		movq	%rdi, %rcx
 566 070e 4883C610 		addq	$16, %rsi
 567 0712 E8E9F8FF 		call	farsh_keyed
 567      FF
 568 0717 4C8D4310 		leaq	16(%rbx), %r8
 569 071b 4D89E1   		movq	%r12, %r9
 570 071e 4889EA   		movq	%rbp, %rdx
 571 0721 8946F0   		movl	%eax, -16(%rsi)
 572 0724 4889F9   		movq	%rdi, %rcx
 573 0727 E8D4F8FF 		call	farsh_keyed
 573      FF
 574 072c 4C8D4320 		leaq	32(%rbx), %r8
 575 0730 4D89E1   		movq	%r12, %r9
 576 0733 4889EA   		movq	%rbp, %rdx
 577 0736 8946F4   		movl	%eax, -12(%rsi)
 578 0739 4889F9   		movq	%rdi, %rcx
 579 073c E8BFF8FF 		call	farsh_keyed
 579      FF
 580 0741 4C8D4330 		leaq	48(%rbx), %r8
 581 0745 4D89E1   		movq	%r12, %r9
 582 0748 4889EA   		movq	%rbp, %rdx
 583 074b 8946F8   		movl	%eax, -8(%rsi)
 584 074e 4889F9   		movq	%rdi, %rcx
 585 0751 4883C340 		addq	$64, %rbx
 586 0755 E8A6F8FF 		call	farsh_keyed
 586      FF
 587 075a 8946FC   		movl	%eax, -4(%rsi)
 588 075d 4C39EB   		cmpq	%r13, %rbx
 589 0760 75A0     		jne	.L71
 590              	.L68:
 591 0762 4883C428 		addq	$40, %rsp
 592 0766 5B       		popq	%rbx
 593 0767 5E       		popq	%rsi
 594 0768 5F       		popq	%rdi
 595 0769 5D       		popq	%rbp
 596 076a 415C     		popq	%r12
 597 076c 415D     		popq	%r13
 598 076e 415E     		popq	%r14
 599 0770 415F     		popq	%r15
 600 0772 C3       		ret
 601              	.L90:
 602 0773 E8000000 		call	abort
 602      00
 603 0778 90       		nop
 604              		.seh_endproc
 605              		.section	.text.unlikely,"x"
 606              	.LCOLDE2:
 607              		.text
 608              	.LHOTE2:
 609              		.section	.text.unlikely,"x"
 610              	.LCOLDB3:
 611              		.text
 612              	.LHOTB3:
 613 0779 0F1F8000 		.p2align 4,,15
 613      000000
 614              		.globl	farsh
 616              		.seh_proc	farsh
 617              	farsh:
 618              		.seh_endprologue
 619 0780 4D89C1   		movq	%r8, %r9
 620 0783 4C8D0500 		leaq	FARSH_KEYS(%rip), %r8
 620      000000
 621 078a E971F8FF 		jmp	farsh_keyed
 621      FF
 622              		.seh_endproc
 623              		.section	.text.unlikely,"x"
 624              	.LCOLDE3:
 625              		.text
 626              	.LHOTE3:
 627 078f 90       		.section .rdata,"dr"
 628              		.align 64
 629              	FARSH_KEYS:
 630 0000 396CFEB8 		.long	-1191285703
 631 0004 BE4BA423 		.long	597969854
 632 0008 2C81017C 		.long	2080473388
 633 000c 1CAD21F7 		.long	-148787940
 634 0010 E96DD4DE 		.long	-556503575
 635 0014 DB979083 		.long	-2087675941
 636 0018 A4A44072 		.long	1916839076
 637 001c 1F67B3B7 		.long	-1212979425
 638 0020 4EE679CB 		.long	-881203634
 639 0024 78E5C0CC 		.long	-859773576
 640 0028 7DD05A82 		.long	-2107977603
 641 002c 2172FFCC 		.long	-855674335
 642 0030 744608B8 		.long	-1207417228
 643 0034 8E2443F7 		.long	-146594674
 644 0038 E69035E0 		.long	-533360410
 645 003c 4C263A81 		.long	-2126895540
 646 0040 BB52283C 		.long	1009275579
 647 0044 CB00C391 		.long	-1849491253
 648 0048 8B65D088 		.long	-1999608437
 649 004c A32E531B 		.long	458436259
 650 0050 97486471 		.long	1902397591
 651 0054 4EF90DA2 		.long	-1576142514
 652 0058 46EF1938 		.long	941223750
 653 005c D8ACDEA9 		.long	-1445024552
 654 0060 3F76FAA8 		.long	-1459980737
 655 0064 3F349CE3 		.long	-476302273
 656 0068 C7BBDCF9 		.long	-102974521
 657 006c 1D4F0BC7 		.long	-955560163
 658 0070 4BE0518A 		.long	-1974345653
 659 0074 3159B4CD 		.long	-843818703
 660 0078 C97E9FC8 		.long	-929071415
 661 007c 647378D9 		.long	-646417564
 662 0080 52076A4F 		.long	1332348754
 663 0084 9C079BA7 		.long	-1483012196
 664 0088 9994C48F 		.long	-1882942311
 665 008c A9B7C98E 		.long	-1899382871
 666 0090 4922C933 		.long	868819529
 667 0094 4F40B64E 		.long	1320566863
 668 0098 4EFB2AFB 		.long	-81069234
 669 009c 554281A4 		.long	-1535032747
 670 00a0 981B0E2F 		.long	789453720
 671 00a4 243BE9AC 		.long	-1394001116
 672 00a8 CD508818 		.long	411586765
 673 00ac A7745C6C 		.long	1817998503
 674 00b0 0444FA66 		.long	1727677444
 675 00b4 83ACC5EA 		.long	-356143997
 676 00b8 C3EBD334 		.long	886303683
 677 00bc FFA081C5 		.long	-981360385
 678 00c0 EB6313FA 		.long	-99392533
 679 00c4 51DD0D17 		.long	386784593
 680 00c8 49DAF0B7 		.long	-1208952247
 681 00cc 265516D3 		.long	-753511130
 682 00d0 9E68D429 		.long	701786270
 683 00d4 58BE162B 		.long	722910808
 684 00d8 FCA1477D 		.long	2101846524
 685 00dc D1B8F88F 		.long	-1879525167
 686 00e0 CE31D07A 		.long	2060464590
 687 00e4 8F3ACB45 		.long	1170946703
 688 00e8 28041695 		.long	-1793719256
 689 00ec CAFBD7AF 		.long	-1344799798
 690 00f0 7E404BBB 		.long	-1152696194
 691 00f4 A4745299 		.long	-1722649436
 692 00f8 932D9AEB 		.long	-342217325
 693 00fc 0889E73B 		.long	1005029640
 694 0100 6C5F47ED 		.long	-314089620
 695 0104 F2D89C91 		.long	-1851991822
 696 0108 5A1E86D3 		.long	-746185126
 697 010c 0C39316E 		.long	1848719628
 698 0110 493A6AFE 		.long	-26592695
 699 0114 1409ADDC 		.long	-592639724
 700 0118 EB8B5006 		.long	105941995
 701 011c F39983A8 		.long	-1467770381
 702 0120 2F1158B0 		.long	-1336405713
 703 0124 79FAB0E8 		.long	-391054727
 704 0128 06DAB429 		.long	699718150
 705 012c FB53C2ED 		.long	-306031621
 706 0130 AD6DE9C3 		.long	-1008112211
 707 0134 832B376E 		.long	1849109379
 708 0138 53B1784F 		.long	1333309779
 709 013c 866EFAFF 		.long	-364922
 710 0140 ECEEBE21 		.long	566161132
 711 0144 02EACA01 		.long	30075394
 712 0148 0DE56712 		.long	308798733
 713 014c 2F09E611 		.long	300288303
 714 0150 98D219E8 		.long	-400960872
 715 0154 DD802F83 		.long	-2094038819
 716 0158 77244E0C 		.long	206447735
 717 015c EB8678BC 		.long	-1132951829
 718 0160 37665001 		.long	22046263
 719 0164 6896A88B 		.long	-1951885720
 720 0168 A0E7116D 		.long	1829889952
 721 016c 15FD12FC 		.long	-65864427
 722 0170 194CA586 		.long	-2035987431
 723 0174 DDE33C59 		.long	1497162717
 724 0178 E53FB1D2 		.long	-760135707
 725 017c 532B778E 		.long	-1904792749
 726 0180 CC604AAE 		.long	-1370857268
 727 0184 1B3B7A64 		.long	1685732123
 728 0188 E0867754 		.long	1417119456
 729 018c 8E37C43E 		.long	1053046670
 730 0190 89CF7A8D 		.long	-1921331319
 731 0194 47F936CA 		.long	-902366905
 732 0198 EFD5890E 		.long	243914223
 733 019c 3C6ADAAA 		.long	-1428526532
 734 01a0 09A1A46D 		.long	1839505673
 735 01a4 1CE1C69A 		.long	-1698242276
 736 01a8 EF916668 		.long	1751552495
 737 01ac 2BBD57A3 		.long	-1554531029
 738 01b0 9A1B6FD1 		.long	-781247590
 739 01b4 0303C738 		.long	952566531
 740 01b8 B322467D 		.long	2101748403
 741 01bc 8FFA6829 		.long	694745743
 742 01c0 B9BCA58C 		.long	-1935295303
 743 01c4 0510D6FC 		.long	-53080059
 744 01c8 965E8B22 		.long	579559062
 745 01cc 19CC9D2C 		.long	748538905
 746 01d0 3C24CF57 		.long	1473193020
 747 01d4 C1F9533C 		.long	1012136385
 748 01d8 2C95C70C 		.long	214406444
 749 01dc F0E46D68 		.long	1752032496
 750 01e0 B547A793 		.long	-1817753675
 751 01e4 10A5874E 		.long	1317512464
 752 01e8 AE915E97 		.long	-1755410002
 753 01ec 8EB9104C 		.long	1276164494
 754 01f0 8C067F8A 		.long	-1971386740
 755 01f4 AB196B34 		.long	879434155
 756 01f8 25A63C35 		.long	893167141
 757 01fc E0500AF2 		.long	-234204960
 758 0200 F62199CE 		.long	-828825098
 759 0204 14E066DF 		.long	-546906092
 760 0208 4BEF110A 		.long	168947531
 761 020c DF4DC88B 		.long	-1949807137
 762 0210 225DD284 		.long	-2066588382
 763 0214 6D9323C8 		.long	-937192595
 764 0218 C31E7494 		.long	-1804329277
 765 021c 608A2788 		.long	-2010674592
 766 0220 319364B8 		.long	-1201368271
 767 0224 107A707A 		.long	2054191632
 768 0228 D6CA9272 		.long	1922222806
 769 022c C244C6A7 		.long	-1480178494
 770 0230 FA6B15BD 		.long	-1122669574
 771 0234 78956C64 		.long	1684837752
 772 0238 D5DFF4B7 		.long	-1208688683
 773 023c A777829F 		.long	-1618839641
 774 0240 4E921370 		.long	1880330830
 775 0244 C34C67AD 		.long	-1385739069
 776 0248 059DAE2C 		.long	749640965
 777 024c 229A2A91 		.long	-1859479006
 778 0250 FA537CF6 		.long	-159624198
 779 0254 A9227E8D 		.long	-1921113431
 780 0258 2B37AE59 		.long	1504589611
 781 025c F3990185 		.long	-2063492621
 782 0260 2C10A263 		.long	1671565356
 783 0264 6112FFD6 		.long	-687926687
 784 0268 E18E7356 		.long	1450413793
 785 026c 5B1495AA 		.long	-1433070501
 786 0270 3228D1FD 		.long	-36624334
 787 0274 EB4D685B 		.long	1533562347
 788 0278 94DE8407 		.long	126148244
 789 027c 0E3962AA 		.long	-1436403442
 790 0280 19CF7CBB 		.long	-1149448423
 791 0284 72D5EF0F 		.long	267375986
 792 0288 CA415B56 		.long	1448821194
 793 028c 02D20622 		.long	570872322
 794 0290 7984602D 		.long	761300089
 795 0294 3DCD0F4C 		.long	1276103997
 796 0298 E33B6DD3 		.long	-747815965
 797 029c 659A5A15 		.long	358259301
 798 02a0 32E7F910 		.long	284813106
 799 02a4 1E0F9BAC 		.long	-1399124194
 800 02a8 3BA0721F 		.long	527605819
 801 02ac AE4094EA 		.long	-359382866
 802 02b0 4F4B675B 		.long	1533496143
 803 02b4 D127A831 		.long	833103825
 804 02b8 4F95CAEC 		.long	-322267825
 805 02bc 1ED62C3D 		.long	1026348574
 806 02c0 A43D8D76 		.long	1988967844
 807 02c4 C15A7493 		.long	-1821091135
 808 02c8 CB585D1D 		.long	492656843
 809 02cc B6F3864B 		.long	1267135414
 810 02d0 3A92BA2A 		.long	716870202
 811 02d4 4C81650E 		.long	241533260
 812 02d8 D963E08A 		.long	-1965005863
 813 02dc B06969CD 		.long	-848729680
 814 02e0 85156436 		.long	912528773
 815 02e4 9DF52A74 		.long	1948972445
 816 02e8 16133A61 		.long	1631195926
 817 02ec 71A48E33 		.long	864986225
 818 02f0 F31A8647 		.long	1199971059
 819 02f4 C39D4730 		.long	809999811
 820 02f8 81A47012 		.long	309372033
 821 02fc 69107708 		.long	142020713
 822 0300 D2F0C4E3 		.long	-473632558
 823 0304 4C872902 		.long	36276044
 824 0308 C13B8A5A 		.long	1519008705
 825 030c 33970DE3 		.long	-485648589
 826 0310 A2E55BD0 		.long	-799283806
 827 0314 BA31AFE2 		.long	-491834950
 828 0318 F9492022 		.long	572541433
 829 031c 6A3B929F 		.long	-1617806486
 830 0320 EC643F03 		.long	54486252
 831 0324 2BB628E5 		.long	-450316757
 832 0328 BDEF0182 		.long	-2113802307
 833 032c 77D80721 		.long	554162295
 834 0330 F12E31D8 		.long	-667865359
 835 0334 999F67A5 		.long	-1519935591
 836 0338 1BB53017 		.long	389068059
 837 033c D2162675 		.long	1965430482
 838 0340 09593005 		.long	87054601
 839 0344 0B44CA0D 		.long	231359499
 840 0348 D9CD9320 		.long	546557401
 841 034c 50AB0964 		.long	1678355280
 842 0350 CC8E5CBA 		.long	-1168339252
 843 0354 EA08478D 		.long	-1924724502
 844 0358 17099F42 		.long	1117718807
 845 035c B0FA62B7 		.long	-1218250064
 846 0360 75EA6151 		.long	1365371509
 847 0364 EBA0EB45 		.long	1173070059
 848 0368 414BF3B6 		.long	-1225569471
 849 036c 23710452 		.long	1376022819
 850 0370 231518E4 		.long	-468183773
 851 0374 0AE9748D 		.long	-1921718006
 852 0378 1C40FA54 		.long	1425686556
 853 037c C70CDADD 		.long	-572912441
 854 0380 2A18DF63 		.long	1675565098
 855 0384 F63E40C6 		.long	-968868106
 856 0388 E8C68E34 		.long	881772264
 857 038c F557FFB9 		.long	-1174448139
 858 0390 BDB852F6 		.long	-162350915
 859 0394 F3B0860F 		.long	260485363
 860 0398 8A083AFB 		.long	-80082806
 861 039c 3315C74D 		.long	1304892723
 862 03a0 D217367B 		.long	2067142610
 863 03a4 EB874EA3 		.long	-1555134485
 864 03a8 DD9B2ABA 		.long	-1171612707
 865 03ac 061338E3 		.long	-482864378
 866 03b0 BBD6BA14 		.long	347788987
 867 03b4 C2C76DC9 		.long	-915552318
 868 03b8 B6543B33 		.long	859526326
 869 03bc FA7CE49B 		.long	-1679524614
 870 03c0 9992CF1D 		.long	500142745
 871 03c4 995FEAE7 		.long	-404070503
 872 03c8 CDEA8FB3 		.long	-1282413875
 873 03cc F7E2CFC3 		.long	-1009786121
 874 03d0 22E8875B 		.long	1535633442
 875 03d4 56ABC539 		.long	969255766
 876 03d8 8FA1F418 		.long	418685327
 877 03dc 9C4D482D 		.long	759713180
 878 03e0 19D56341 		.long	1097061657
 879 03e4 989E7679 		.long	2037816984
 880 03e8 F0678AF5 		.long	-175478800
 881 03ec 020C5940 		.long	1079577602
 882 03f0 C0719631 		.long	831943104
 883 03f4 3A136B26 		.long	644551482
 884 03f8 87B281AF 		.long	-1350454649
 885 03fc 37F7316A 		.long	1781659447
 886 0400 9701BCE3 		.long	-474218089
 887 0404 13990755 		.long	1426561299
 888 0408 96C6729F 		.long	-1619868010
 889 040c C8003E36 		.long	910033096
 890 0410 47391553 		.long	1393899847
 891 0414 7F12FDEB 		.long	-335736193
 892 0418 1905F600 		.long	16123161
 893 041c 2AB6A646 		.long	1185330730
 894 0420 8033B893 		.long	-1816644736
 895 0424 2493E23F 		.long	1071813412
 896 0428 9170C6DF 		.long	-540643183
 897 042c 6D38620F 		.long	258095213
 898 0430 795E37DC 		.long	-600351111
 899 0434 3E3FEA8F 		.long	-1880473794
 900 0438 D06384DF 		.long	-544971824
 901 043c 7BFA0237 		.long	922942075
 902 0440 5E435439 		.long	961823582
 903 0444 48A6CA87 		.long	-2016762296
 904 0448 EE8B15A9 		.long	-1458205714
 905 044c 250CF308 		.long	150146085
 906 0450 3629B866 		.long	1723345206
 907 0454 EB3FFCE7 		.long	-402898965
 908 0458 50543C18 		.long	406606928
 909 045c 4543EFD7 		.long	-672185531
 910 0460 63798C79 		.long	2039249251
 911 0464 57F52CC0 		.long	-1070795433
 912 0468 D1538509 		.long	159732689
 913 046c AA1243FA 		.long	-96267606
 914 0470 83F89EE2 		.long	-492898173
 915 0474 8D12AF7C 		.long	2091848333
 916 0478 7DA0B374 		.long	1957929085
 917 047c 5BDFEFC8 		.long	-923803813
 918 0480 8237B28D 		.long	-1917700222
 919 0484 4A9F402C 		.long	742432586
 920 0488 DA69E4DA 		.long	-622564902
 921 048c 3F1B3E4D 		.long	1295915839
 922 0490 589A7B2E 		.long	779852376
 923 0494 53373EC8 		.long	-935446701
 924 0498 A696FDCE 		.long	-822241626
 925 049c 68B0DD44 		.long	1155379304
 926 04a0 41D1AE5F 		.long	1605292353
 927 04a4 F1D0E7DE 		.long	-555233039
 928 04a8 B4DB23C2 		.long	-1037837388
 929 04ac 04E1FB7B 		.long	2080104708
 930 04b0 1D6E4D11 		.long	290287133
 931 04b4 D59C0352 		.long	1375968469
 932 04b8 9C0A7C30 		.long	813435548
 933 04bc 129C28A6 		.long	-1507288046
 934 04c0 3E8BEE20 		.long	552504126
 935 04c4 0B4B7203 		.long	57821963
 936 04c8 4AAE68BA 		.long	-1167544758
 937 04cc A1F2C593 		.long	-1815743839
 938 04d0 B27BF29A 		.long	-1695384654
 939 04d4 BA0E0F48 		.long	1208946362
 940 04d8 BE6B4CC1 		.long	-1051956290
 941 04dc 871F33E7 		.long	-416079993
 942 04e0 F44D10F0 		.long	-267366924
 943 04e4 6353C022 		.long	583029603
 944 04e8 8AD0E6B7 		.long	-1209610102
 945 04ec 49C4156F 		.long	1863697481
 946 04f0 CDE29E4B 		.long	1268703949
 947 04f4 AE782C6B 		.long	1798076590
 948 04f8 7326ED25 		.long	636298867
 949 04fc 966525B6 		.long	-1239063146
 950 0500 0348AD99 		.long	-1716697085
 951 0504 108F4F65 		.long	1699712784
 952 0508 64CA9EE8 		.long	-392246684
 953 050c DF06A5D9 		.long	-643496225
 954 0510 FAC50D53 		.long	1393411578
 955 0514 5CBE75FE 		.long	-25837988
 956 0518 3D8343A5 		.long	-1522302147
 957 051c 45FD39F7 		.long	-147194555
 958 0520 88B40516 		.long	369472648
 959 0524 4A610FE5 		.long	-451976886
 960 0528 83DF30E9 		.long	-382673021
 961 052c 5D194045 		.long	1161828701
 962 0530 320FDAF2 		.long	-220590286
 963 0534 9CF7046B 		.long	1795487644
 964 0538 993CC7E3 		.long	-473482087
 965 053c 5C26A5B3 		.long	-1281022372
 966 0540 7DE01B5A 		.long	1511776381
 967 0544 2A3DA1BD 		.long	-1113506518
 968 0548 1C28DCED 		.long	-304338916
 969 054c 9AA3D9E9 		.long	-371612774
 970 0550 F1EF9BDE 		.long	-560205839
 971 0554 47173C57 		.long	1463555911
 972 0558 3E5BBE40 		.long	1086217022
 973 055c 68E95637 		.long	928442728
 974 0560 B6778096 		.long	-1769965642
 975 0564 8FA22565 		.long	1696965263
 976 0568 35077D74 		.long	1954350901
 977 056c 1DC10E8A 		.long	-1978744547
 978 0570 F53AC049 		.long	1237334773
 979 0574 5BF4DEF3 		.long	-203492261
 980 0578 4D21C9C3 		.long	-1010228915
 981 057c 6DE7A29E 		.long	-1633491091
 982 0580 15A7D3FA 		.long	-86792427
 983 0584 89ADA7CA 		.long	-894980727
 984 0588 4C8E82DE 		.long	-561869236
 985 058c D59B76A5 		.long	-1518953515
 986 0590 5ADB7C46 		.long	1182587738
 987 0594 CBCAF2D5 		.long	-705508661
 988 0598 82D1EB68 		.long	1760285058
 989 059c 1A34408D 		.long	-1925172198
 990 05a0 87685521 		.long	559245447
 991 05a4 6F5F0A00 		.long	679791
 992 05a8 73A4D85A 		.long	1524147315
 993 05ac 86E8E7AF 		.long	-1343756154
 994 05b0 397D9998 		.long	-1734771399
 995 05b4 18D25A94 		.long	-1805987304
 996 05b8 930CBE46 		.long	1186860179
 997 05bc 3ABDA593 		.long	-1817854662
 998 05c0 8C4AFA3F 		.long	1073367692
 999 05c4 36D934D8 		.long	-667625162
 1000 05c8 2A2A022F 		.long	788671018
 1001 05cc 6B1C7920 		.long	544808043
 1002 05d0 1615B55D 		.long	1572148502
 1003 05d4 D2EEEF8D 		.long	-1913655598
 1004 05d8 A528EE9D 		.long	-1645336411
 1005 05dc A7EB8851 		.long	1367927719
 1006 05e0 678C4FAB 		.long	-1420850073
 1007 05e4 96ACCE48 		.long	1221504150
 1008 05e8 6FE1112A 		.long	705814895
 1009 05ec 6D3B59C1 		.long	-1051116691
 1010              		.ident	"GCC: (i686-posix-sjlj-rev2, Built by MinGW-W64 project) 4.9.2"