   1              		.file	"main.cpp"
   2              		.text
   3              	Ltext0:
   4              		.cfi_sections	.debug_frame
   5              		.p2align 4,,15
   6              		.globl	__Z11farsh_keyedPKvjPKj
   8              	__Z11farsh_keyedPKvjPKj:
   9              	LFB518:
  10              		.file 1 "farsh.c"
   1:farsh.c       **** #include <stdlib.h>
   2:farsh.c       **** #include <memory.h>
   3:farsh.c       **** 
   4:farsh.c       **** #define UINT  /*uint32_t*/ unsigned
   5:farsh.c       **** #define ULONG /*uint64_t*/ unsigned long long
   6:farsh.c       **** 
   7:farsh.c       **** #define STRIPE          1024
   8:farsh.c       **** #define STRIPE_ELEMENTS (STRIPE/sizeof(UINT))
   9:farsh.c       **** static const UINT farsh_key[STRIPE_ELEMENTS+1024/32-1] = {  /* STRIPE bytes of key material plus ex
  10:farsh.c       ****     0xb8fe6c39,0x23a44bbe,0x7c01812c,0xf721ad1c,0xded46de9,0x839097db,0x7240a4a4,0xb7b3671f,0xcb79e
  11:farsh.c       ****     0xe3bc0197,0x55079913,0x9f72c696,0x363e00c8,0x53153947,0xebfd127f,0x00f60519,0x46a6b62a,0x93b83
  12:farsh.c       ****     };
  13:farsh.c       **** 
  14:farsh.c       **** /* Hash exactly STRIPE bytes */
  15:farsh.c       **** static UINT farsh_fast (const UINT *data, const UINT *key)
  16:farsh.c       **** {
  17:farsh.c       ****     ULONG sum = 0;  int i;
  18:farsh.c       ****     for (i=0; i < STRIPE_ELEMENTS; i+=2)
  19:farsh.c       ****         sum += (data[i] + key[i]) * (ULONG)(data[i+1] + key[i+1]);
  20:farsh.c       ****     return (UINT)(sum >> 32);
  21:farsh.c       **** }
  22:farsh.c       **** 
  23:farsh.c       **** /* Hash up to STRIPE bytes, consisting of whole UINT pairs, including optional
  24:farsh.c       ****    UINT pair in the extra[] */
  25:farsh.c       **** static UINT farsh_pairs (const UINT *data, size_t elements, const UINT* extra, const UINT *key)
  26:farsh.c       **** {
  27:farsh.c       ****     ULONG sum = 0;  int i;
  28:farsh.c       ****     for (i=0; i < elements; i+=2)
  29:farsh.c       ****         sum += (data[i] + key[i]) * (ULONG)(data[i+1] + key[i+1]);
  30:farsh.c       ****     if (extra)
  31:farsh.c       ****         sum += (extra[0] + key[i]) * (ULONG)(extra[1] + key[i+1]);
  32:farsh.c       ****     return (UINT)(sum >> 32);
  33:farsh.c       **** }
  34:farsh.c       **** 
  35:farsh.c       **** /* Hash up to STRIPE bytes, with special optimization for exactly STRIPE input
  36:farsh.c       ****    bytes and careful handling of partial UINT pair at the end of buffer */
  37:farsh.c       **** static UINT farsh_block (const void *data_ptr, size_t bytes, const UINT *key)
  38:farsh.c       **** {
  39:farsh.c       ****     const UINT *data = (const UINT*) data_ptr;
  40:farsh.c       ****     if (bytes == STRIPE)  return farsh_fast (data, key);
  41:farsh.c       ****     size_t elements = (bytes/sizeof(UINT)) & (~1);
  42:farsh.c       ****     UINT extra_data[2] = {0};
  43:farsh.c       ****     size_t extra_bytes = bytes - elements*sizeof(UINT);
  44:farsh.c       ****     memcpy (extra_data, data+elements, extra_bytes);
  45:farsh.c       ****     return farsh_pairs (data, elements, extra_bytes?extra_data:NULL, key);
  46:farsh.c       **** }
  47:farsh.c       **** 
  48:farsh.c       **** /* Hash the buffer of arbitrary size */
  49:farsh.c       **** UINT farsh_keyed (const void *data_ptr, size_t bytes, const UINT *key)
  50:farsh.c       **** {
  11              		.loc 1 50 0
  12              		.cfi_startproc
  13              	LVL0:
  14 0000 55       		pushl	%ebp
  15              		.cfi_def_cfa_offset 8
  16              		.cfi_offset 5, -8
  17 0001 57       		pushl	%edi
  18              		.cfi_def_cfa_offset 12
  19              		.cfi_offset 7, -12
  20 0002 56       		pushl	%esi
  21              		.cfi_def_cfa_offset 16
  22              		.cfi_offset 6, -16
  23 0003 53       		pushl	%ebx
  24              		.cfi_def_cfa_offset 20
  25              		.cfi_offset 3, -20
  26 0004 83EC5C   		subl	$92, %esp
  27              		.cfi_def_cfa_offset 112
  28              	LVL1:
  29              		.loc 1 50 0
  30 0007 8B442474 		movl	116(%esp), %eax
  31              	LBB40:
  51:farsh.c       ****     ULONG sum = 0;  int i = 0;
  52:farsh.c       ****     const char *data = (const char*) data_ptr,  *end = data+bytes;
  32              		.loc 1 52 0
  33 000b 8B742470 		movl	112(%esp), %esi
  34              	LBE40:
  50:farsh.c       ****     ULONG sum = 0;  int i = 0;
  35              		.loc 1 50 0
  36 000f 8B5C2478 		movl	120(%esp), %ebx
  37              	LBB55:
  38              		.loc 1 52 0
  39 0013 01C6     		addl	%eax, %esi
  53:farsh.c       ****     while (data < end)
  40              		.loc 1 53 0
  41 0015 39742470 		cmpl	%esi, 112(%esp)
  52:farsh.c       ****     while (data < end)
  42              		.loc 1 52 0
  43 0019 89742424 		movl	%esi, 36(%esp)
  44              	LVL2:
  45              		.loc 1 53 0
  46 001d 0F834802 		jae	L18
  46      0000
  47 0023 3D000400 		cmpl	$1024, %eax
  47      00
  48 0028 BA000400 		movl	$1024, %edx
  48      00
  49              	LBB41:
  50              	LBB42:
  51              	LBB43:
  43:farsh.c       ****     memcpy (extra_data, data+elements, extra_bytes);
  52              		.loc 1 43 0
  53 002d C744240C 		movl	$0, 12(%esp)
  53      00000000 
  54 0035 0F46D0   		cmovbe	%eax, %edx
  55 0038 C7442418 		movl	$0, 24(%esp)
  55      00000000 
  56 0040 C744241C 		movl	$0, 28(%esp)
  56      00000000 
  41:farsh.c       ****     UINT extra_data[2] = {0};
  57              		.loc 1 41 0
  58 0048 89D0     		movl	%edx, %eax
  59 004a 89542410 		movl	%edx, 16(%esp)
  60 004e C1E802   		shrl	$2, %eax
  61 0051 83E0FE   		andl	$-2, %eax
  62 0054 89442408 		movl	%eax, 8(%esp)
  43:farsh.c       ****     memcpy (extra_data, data+elements, extra_bytes);
  63              		.loc 1 43 0
  64 0058 C1E002   		sall	$2, %eax
  65 005b 89C6     		movl	%eax, %esi
  66              	LVL3:
  67 005d 89442430 		movl	%eax, 48(%esp)
  68 0061 89D0     		movl	%edx, %eax
  69 0063 29F0     		subl	%esi, %eax
  70 0065 8D742448 		leal	72(%esp), %esi
  71 0069 89C2     		movl	%eax, %edx
  72 006b 89442414 		movl	%eax, 20(%esp)
  73 006f B8000000 		movl	$0, %eax
  73      00
  74 0074 0F45C6   		cmovne	%esi, %eax
  75 0077 89442420 		movl	%eax, 32(%esp)
  44:farsh.c       ****     return farsh_pairs (data, elements, extra_bytes?extra_data:NULL, key);
  76              		.loc 1 44 0
  77 007b 89D0     		movl	%edx, %eax
  78 007d 83E002   		andl	$2, %eax
  79 0080 89442434 		movl	%eax, 52(%esp)
  80 0084 89D0     		movl	%edx, %eax
  81 0086 83E001   		andl	$1, %eax
  82 0089 89442438 		movl	%eax, 56(%esp)
  83 008d 89D0     		movl	%edx, %eax
  84 008f C1E802   		shrl	$2, %eax
  85 0092 8944243C 		movl	%eax, 60(%esp)
  86              	LVL4:
  87 0096 8D76008D 		.p2align 4,,10
  87      BC270000 
  87      0000
  88              	L15:
  40:farsh.c       ****     size_t elements = (bytes/sizeof(UINT)) & (~1);
  89              		.loc 1 40 0
  90 00a0 817C2410 		cmpl	$1024, 16(%esp)
  90      00040000 
  91 00a8 0F840201 		je	L34
  91      0000
  92              	LVL5:
  44:farsh.c       ****     return farsh_pairs (data, elements, extra_bytes?extra_data:NULL, key);
  93              		.loc 1 44 0
  94 00ae 8B442470 		movl	112(%esp), %eax
  95 00b2 8B742430 		movl	48(%esp), %esi
  96 00b6 8D7C2448 		leal	72(%esp), %edi
  42:farsh.c       ****     size_t extra_bytes = bytes - elements*sizeof(UINT);
  97              		.loc 1 42 0
  98 00ba C7442448 		movl	$0, 72(%esp)
  98      00000000 
  99 00c2 C744244C 		movl	$0, 76(%esp)
  99      00000000 
 100              	LVL6:
  44:farsh.c       ****     return farsh_pairs (data, elements, extra_bytes?extra_data:NULL, key);
 101              		.loc 1 44 0
 102 00ca 01C6     		addl	%eax, %esi
 103              	LVL7:
 104 00cc 837C2414 		cmpl	$4, 20(%esp)
 104      04
 105 00d1 7206     		jb	L6
 106 00d3 8B4C243C 		movl	60(%esp), %ecx
 107 00d7 F3A5     		rep movsl
 108              	L6:
 109 00d9 8B542434 		movl	52(%esp), %edx
 110 00dd 31C0     		xorl	%eax, %eax
 111 00df 85D2     		testl	%edx, %edx
 112 00e1 740B     		je	L7
 113 00e3 0FB706   		movzwl	(%esi), %eax
 114 00e6 668907   		movw	%ax, (%edi)
 115              	LVL8:
 116 00e9 B8020000 		movl	$2, %eax
 116      00
 117              	L7:
 118 00ee 8B6C2438 		movl	56(%esp), %ebp
 119 00f2 85ED     		testl	%ebp, %ebp
 120 00f4 7407     		je	L8
 121 00f6 0FB61406 		movzbl	(%esi,%eax), %edx
 122 00fa 881407   		movb	%dl, (%edi,%eax)
 123              	L8:
  45:farsh.c       **** }
 124              		.loc 1 45 0
 125 00fd 8B4C2414 		movl	20(%esp), %ecx
 126 0101 85C9     		testl	%ecx, %ecx
 127 0103 0F843B01 		je	L35
 127      0000
 128              	LVL9:
 129              	LBB44:
 130              	LBB45:
  28:farsh.c       ****         sum += (data[i] + key[i]) * (ULONG)(data[i+1] + key[i+1]);
 131              		.loc 1 28 0
 132 0109 8B542408 		movl	8(%esp), %edx
 133 010d 85D2     		testl	%edx, %edx
 134 010f 0F844201 		je	L36
 134      0000
 135              	LVL10:
 136              	L16:
 137 0115 8B6C2470 		movl	112(%esp), %ebp
 138              	LBE45:
 139              	LBE44:
  40:farsh.c       ****     size_t elements = (bytes/sizeof(UINT)) & (~1);
 140              		.loc 1 40 0
 141 0119 31C0     		xorl	%eax, %eax
 142 011b 31F6     		xorl	%esi, %esi
 143 011d 31FF     		xorl	%edi, %edi
 144 011f 89C1     		movl	%eax, %ecx
 145              	LVL11:
 146              		.p2align 4,,10
 147              	L11:
 148              	LBB48:
 149              	LBB46:
  29:farsh.c       ****     if (extra)
 150              		.loc 1 29 0
 151 0121 8B4500   		movl	0(%ebp), %eax
 152 0124 8B5504   		movl	4(%ebp), %edx
 153 0127 03048B   		addl	(%ebx,%ecx,4), %eax
 154 012a 03548B04 		addl	4(%ebx,%ecx,4), %edx
 155 012e F7E2     		mull	%edx
 156 0130 01C6     		addl	%eax, %esi
 157              	LVL12:
 158 0132 11D7     		adcl	%edx, %edi
 159              	LVL13:
  28:farsh.c       ****         sum += (data[i] + key[i]) * (ULONG)(data[i+1] + key[i+1]);
 160              		.loc 1 28 0
 161 0134 83C102   		addl	$2, %ecx
 162              	LVL14:
 163 0137 83C508   		addl	$8, %ebp
 164 013a 394C2408 		cmpl	%ecx, 8(%esp)
 165 013e 77E1     		ja	L11
 166 0140 89C8     		movl	%ecx, %eax
  30:farsh.c       ****         sum += (extra[0] + key[i]) * (ULONG)(extra[1] + key[i+1]);
 167              		.loc 1 30 0
 168 0142 8B4C2420 		movl	32(%esp), %ecx
 169              	LVL15:
  29:farsh.c       ****     if (extra)
 170              		.loc 1 29 0
 171 0146 89FA     		movl	%edi, %edx
 172 0148 C1E002   		sall	$2, %eax
 173              	LVL16:
 174 014b 8D6804   		leal	4(%eax), %ebp
  30:farsh.c       ****         sum += (extra[0] + key[i]) * (ULONG)(extra[1] + key[i+1]);
 175              		.loc 1 30 0
 176 014e 85C9     		testl	%ecx, %ecx
 177 0150 7413     		je	L31
 178              	LVL17:
 179              	L17:
  31:farsh.c       ****     return (UINT)(sum >> 32);
 180              		.loc 1 31 0
 181 0152 8B11     		movl	(%ecx), %edx
 182 0154 031403   		addl	(%ebx,%eax), %edx
 183 0157 89D0     		movl	%edx, %eax
 184 0159 8B5104   		movl	4(%ecx), %edx
 185 015c 03142B   		addl	(%ebx,%ebp), %edx
 186              	LVL18:
 187 015f F7E2     		mull	%edx
 188              	LVL19:
 189 0161 01F0     		addl	%esi, %eax
 190 0163 11FA     		adcl	%edi, %edx
 191              	L31:
 192 0165 89D0     		movl	%edx, %eax
 193              	LVL20:
 194              	L5:
 195              	LBE46:
 196              	LBE48:
 197              	LBE43:
 198              	LBE42:
  54:farsh.c       ****     {
  55:farsh.c       ****         size_t minbytes = (bytes<STRIPE? bytes : STRIPE);
  56:farsh.c       ****         UINT h = farsh_block (data, minbytes, key);
  57:farsh.c       ****         data += minbytes;
  58:farsh.c       ****         sum += h*(ULONG)key[i];
 199              		.loc 1 58 0
 200 0167 8B7C240C 		movl	12(%esp), %edi
  57:farsh.c       ****         sum += h*(ULONG)key[i];
 201              		.loc 1 57 0
 202 016b 8B742410 		movl	16(%esp), %esi
 203 016f 01742470 		addl	%esi, 112(%esp)
 204              	LVL21:
 205              		.loc 1 58 0
 206 0173 F724BB   		mull	(%ebx,%edi,4)
 207 0176 01442418 		addl	%eax, 24(%esp)
  59:farsh.c       ****         if (++i == STRIPE_ELEMENTS)
  60:farsh.c       ****             i = 0;/*to do*/
 208              		.loc 1 60 0
 209 017a B8000000 		movl	$0, %eax
 209      00
  58:farsh.c       ****         if (++i == STRIPE_ELEMENTS)
 210              		.loc 1 58 0
 211 017f 1154241C 		adcl	%edx, 28(%esp)
 212              	LVL22:
  59:farsh.c       ****         if (++i == STRIPE_ELEMENTS)
 213              		.loc 1 59 0
 214 0183 83C701   		addl	$1, %edi
 215              	LVL23:
 216              		.loc 1 60 0
 217 0186 81FF0001 		cmpl	$256, %edi
 217      0000
 218 018c 0F45C7   		cmovne	%edi, %eax
 219 018f 8944240C 		movl	%eax, 12(%esp)
 220              	LVL24:
 221              	LBE41:
  53:farsh.c       ****     {
 222              		.loc 1 53 0
 223 0193 8B442424 		movl	36(%esp), %eax
 224              	LVL25:
 225 0197 3B442470 		cmpl	112(%esp), %eax
 226 019b 0F87FFFE 		ja	L15
 226      FFFF
 227 01a1 8B44241C 		movl	28(%esp), %eax
 228              	LBE55:
  61:farsh.c       ****     }
  62:farsh.c       ****     return (UINT)(sum >> 32);
  63:farsh.c       **** }
 229              		.loc 1 63 0
 230 01a5 83C45C   		addl	$92, %esp
 231              		.cfi_remember_state
 232              		.cfi_def_cfa_offset 20
 233 01a8 5B       		popl	%ebx
 234              		.cfi_restore 3
 235              		.cfi_def_cfa_offset 16
 236              	LVL26:
 237 01a9 5E       		popl	%esi
 238              		.cfi_restore 6
 239              		.cfi_def_cfa_offset 12
 240 01aa 5F       		popl	%edi
 241              		.cfi_restore 7
 242              		.cfi_def_cfa_offset 8
 243 01ab 5D       		popl	%ebp
 244              		.cfi_restore 5
 245              		.cfi_def_cfa_offset 4
 246 01ac C3       		ret
 247              	LVL27:
 248 01ad 8D7600   		.p2align 4,,10
 249              	L34:
 250              		.cfi_restore_state
 251              	LBB56:
 252              	LBB54:
 253              	LBB53:
 254              	LBB52:
  40:farsh.c       ****     size_t elements = (bytes/sizeof(UINT)) & (~1);
 255              		.loc 1 40 0
 256 01b0 660FEFDB 		pxor	%xmm3, %xmm3
 257 01b4 8B542470 		movl	112(%esp), %edx
 258 01b8 31C0     		xorl	%eax, %eax
 259 01ba 8DB60000 		.p2align 4,,10
 259      0000
 260              	L4:
 261              	LBB49:
 262              	LBB50:
  19:farsh.c       ****     return (UINT)(sum >> 32);
 263              		.loc 1 19 0
 264 01c0 F30F6F14 		movdqu	(%edx,%eax), %xmm2
 264      02
 265 01c5 F30F6F0C 		movdqu	(%ebx,%eax), %xmm1
 265      03
 266 01ca 660F6FC2 		movdqa	%xmm2, %xmm0
 267 01ce F30F6F64 		movdqu	16(%edx,%eax), %xmm4
 267      0210
 268 01d4 660F6FF1 		movdqa	%xmm1, %xmm6
 269 01d8 F30F6F6C 		movdqu	16(%ebx,%eax), %xmm5
 269      0310
 270 01de 83C020   		addl	$32, %eax
 271 01e1 0FC6D4DD 		shufps	$221, %xmm4, %xmm2
 272 01e5 3D000400 		cmpl	$1024, %eax
 272      00
 273 01ea 0FC6C488 		shufps	$136, %xmm4, %xmm0
 274 01ee 0FC6F588 		shufps	$136, %xmm5, %xmm6
 275 01f2 0FC6CDDD 		shufps	$221, %xmm5, %xmm1
 276 01f6 660FFEC6 		paddd	%xmm6, %xmm0
 277 01fa 660FFECA 		paddd	%xmm2, %xmm1
 278 01fe 660F6FD0 		movdqa	%xmm0, %xmm2
 279 0202 660F6FE1 		movdqa	%xmm1, %xmm4
 280 0206 660F62D0 		punpckldq	%xmm0, %xmm2
 281 020a 660F62E1 		punpckldq	%xmm1, %xmm4
 282 020e 660F6AC0 		punpckhdq	%xmm0, %xmm0
 283 0212 660F6AC9 		punpckhdq	%xmm1, %xmm1
 284 0216 660FF4D4 		pmuludq	%xmm4, %xmm2
 285 021a 660FD4DA 		paddq	%xmm2, %xmm3
 286 021e 660FF4C1 		pmuludq	%xmm1, %xmm0
 287 0222 660FD4D8 		paddq	%xmm0, %xmm3
 288              	LVL28:
 289 0226 7598     		jne	L4
 290 0228 660F6FC3 		movdqa	%xmm3, %xmm0
 291 022c 660F73D8 		psrldq	$8, %xmm0
 291      08
 292 0231 660FD4D8 		paddq	%xmm0, %xmm3
 293 0235 660FD65C 		movq	%xmm3, 40(%esp)
 293      2428
  20:farsh.c       **** }
 294              		.loc 1 20 0
 295 023b 8B44242C 		movl	44(%esp), %eax
 296 023f E923FFFF 		jmp	L5
 296      FF
 297              	LVL29:
 298              		.p2align 4,,10
 299              	L35:
 300              	LBE50:
 301              	LBE49:
 302              	LBB51:
 303              	LBB47:
  28:farsh.c       ****         sum += (data[i] + key[i]) * (ULONG)(data[i+1] + key[i+1]);
 304              		.loc 1 28 0
 305 0244 8B442408 		movl	8(%esp), %eax
 306 0248 85C0     		testl	%eax, %eax
 307 024a 0F85C5FE 		jne	L16
 307      FFFF
 308 0250 31C0     		xorl	%eax, %eax
 309 0252 E910FFFF 		jmp	L5
 309      FF
 310              	LVL30:
 311              	L36:
 312 0257 BD040000 		movl	$4, %ebp
 312      00
 313 025c 31C0     		xorl	%eax, %eax
  27:farsh.c       ****     for (i=0; i < elements; i+=2)
 314              		.loc 1 27 0
 315 025e 31F6     		xorl	%esi, %esi
 316 0260 31FF     		xorl	%edi, %edi
 317              	LBE47:
 318              	LBE51:
  45:farsh.c       **** }
 319              		.loc 1 45 0
 320 0262 8D4C2448 		leal	72(%esp), %ecx
 321              	LVL31:
 322 0266 E9E7FEFF 		jmp	L17
 322      FF
 323              	LVL32:
 324              	L18:
 325              	LBE52:
 326              	LBE53:
 327              	LBE54:
 328              	LBE56:
 329              		.loc 1 63 0
 330 026b 83C45C   		addl	$92, %esp
 331              		.cfi_def_cfa_offset 20
 332              	LBB57:
  53:farsh.c       ****     {
 333              		.loc 1 53 0
 334 026e 31C0     		xorl	%eax, %eax
 335              	LBE57:
 336              		.loc 1 63 0
 337 0270 5B       		popl	%ebx
 338              		.cfi_restore 3
 339              		.cfi_def_cfa_offset 16
 340 0271 5E       		popl	%esi
 341              		.cfi_restore 6
 342              		.cfi_def_cfa_offset 12
 343              	LVL33:
 344 0272 5F       		popl	%edi
 345              		.cfi_restore 7
 346              		.cfi_def_cfa_offset 8
 347 0273 5D       		popl	%ebp
 348              		.cfi_restore 5
 349              		.cfi_def_cfa_offset 4
 350 0274 C3       		ret
 351              		.cfi_endproc
 352              	LFE518:
 353 0275 8D742600 		.p2align 4,,15
 353      8DBC2700 
 353      000000
 354              		.globl	__Z13farsh_keyed_nPKvjPKjiPj
 356              	__Z13farsh_keyed_nPKvjPKjiPj:
 357              	LFB519:
  64:farsh.c       **** 
  65:farsh.c       **** /* Hash the buffer of arbitrary size */
  66:farsh.c       **** void farsh_keyed_n (const void *data_ptr, size_t bytes, const UINT *key, int n, UINT *hash)
  67:farsh.c       **** {
 358              		.loc 1 67 0
 359              		.cfi_startproc
 360              	LVL34:
 361 0280 55       		pushl	%ebp
 362              		.cfi_def_cfa_offset 8
 363              		.cfi_offset 5, -8
 364 0281 57       		pushl	%edi
 365              		.cfi_def_cfa_offset 12
 366              		.cfi_offset 7, -12
 367 0282 56       		pushl	%esi
 368              		.cfi_def_cfa_offset 16
 369              		.cfi_offset 6, -16
 370 0283 53       		pushl	%ebx
 371              		.cfi_def_cfa_offset 20
 372              		.cfi_offset 3, -20
 373              	LBB59:
  68:farsh.c       ****     int i;
  69:farsh.c       ****     for (i=0; i < n; i++)
 374              		.loc 1 69 0
 375 0284 31DB     		xorl	%ebx, %ebx
 376              	LBE59:
  67:farsh.c       ****     int i;
 377              		.loc 1 67 0
 378 0286 83EC1C   		subl	$28, %esp
 379              		.cfi_def_cfa_offset 48
 380              	LBB60:
 381              		.loc 1 69 0
 382 0289 8B44243C 		movl	60(%esp), %eax
 383              	LBE60:
  67:farsh.c       ****     int i;
 384              		.loc 1 67 0
 385 028d 8B6C2430 		movl	48(%esp), %ebp
 386 0291 8B7C2434 		movl	52(%esp), %edi
 387 0295 8B742438 		movl	56(%esp), %esi
 388              	LBB61:
 389              		.loc 1 69 0
 390 0299 85C0     		testl	%eax, %eax
 391 029b 7E26     		jle	L37
 392              	LVL35:
 393 029d 8D7600   		.p2align 4,,10
 394              	L41:
  70:farsh.c       ****         hash[i] = farsh_keyed (data_ptr, bytes, key+i);
 395              		.loc 1 70 0 discriminator 3
 396 02a0 89742408 		movl	%esi, 8(%esp)
 397 02a4 897C2404 		movl	%edi, 4(%esp)
 398 02a8 83C604   		addl	$4, %esi
 399 02ab 892C24   		movl	%ebp, (%esp)
 400 02ae E84DFDFF 		call	__Z11farsh_keyedPKvjPKj
 400      FF
 401              	LVL36:
 402 02b3 8B542440 		movl	64(%esp), %edx
 403 02b7 89049A   		movl	%eax, (%edx,%ebx,4)
  69:farsh.c       ****         hash[i] = farsh_keyed (data_ptr, bytes, key+i);
 404              		.loc 1 69 0 discriminator 3
 405 02ba 83C301   		addl	$1, %ebx
 406              	LVL37:
 407 02bd 3B5C243C 		cmpl	60(%esp), %ebx
 408 02c1 75DD     		jne	L41
 409              	LVL38:
 410              	L37:
 411              	LBE61:
  71:farsh.c       **** }
 412              		.loc 1 71 0
 413 02c3 83C41C   		addl	$28, %esp
 414              		.cfi_def_cfa_offset 20
 415 02c6 5B       		popl	%ebx
 416              		.cfi_restore 3
 417              		.cfi_def_cfa_offset 16
 418 02c7 5E       		popl	%esi
 419              		.cfi_restore 6
 420              		.cfi_def_cfa_offset 12
 421 02c8 5F       		popl	%edi
 422              		.cfi_restore 7
 423              		.cfi_def_cfa_offset 8
 424 02c9 5D       		popl	%ebp
 425              		.cfi_restore 5
 426              		.cfi_def_cfa_offset 4
 427 02ca C3       		ret
 428              		.cfi_endproc
 429              	LFE519:
 430 02cb 908D7426 		.p2align 4,,15
 430      00
 431              		.globl	__Z7farsh_nPKvjiPj
 433              	__Z7farsh_nPKvjiPj:
 434              	LFB520:
  72:farsh.c       **** 
  73:farsh.c       **** /* Hash the buffer of arbitrary size */
  74:farsh.c       **** void farsh_n (const void *data_ptr, size_t bytes, int n, UINT *hash)
  75:farsh.c       **** {
 435              		.loc 1 75 0
 436              		.cfi_startproc
 437              	LVL39:
 438 02d0 55       		pushl	%ebp
 439              		.cfi_def_cfa_offset 8
 440              		.cfi_offset 5, -8
 441 02d1 57       		pushl	%edi
 442              		.cfi_def_cfa_offset 12
 443              		.cfi_offset 7, -12
 444 02d2 56       		pushl	%esi
 445              		.cfi_def_cfa_offset 16
 446              		.cfi_offset 6, -16
 447 02d3 53       		pushl	%ebx
 448              		.cfi_def_cfa_offset 20
 449              		.cfi_offset 3, -20
 450              	LBB65:
 451              	LBB66:
  69:farsh.c       ****         hash[i] = farsh_keyed (data_ptr, bytes, key+i);
 452              		.loc 1 69 0
 453 02d4 31DB     		xorl	%ebx, %ebx
 454 02d6 BE800000 		movl	$__ZL9farsh_key, %esi
 454      00
 455              	LBE66:
 456              	LBE65:
 457              		.loc 1 75 0
 458 02db 83EC1C   		subl	$28, %esp
 459              		.cfi_def_cfa_offset 48
 460              	LBB69:
 461              	LBB67:
  69:farsh.c       ****         hash[i] = farsh_keyed (data_ptr, bytes, key+i);
 462              		.loc 1 69 0
 463 02de 8B442438 		movl	56(%esp), %eax
 464              	LBE67:
 465              	LBE69:
 466              		.loc 1 75 0
 467 02e2 8B6C2430 		movl	48(%esp), %ebp
 468              	LVL40:
 469 02e6 8B7C2434 		movl	52(%esp), %edi
 470              	LVL41:
 471              	LBB70:
 472              	LBB68:
  69:farsh.c       ****         hash[i] = farsh_keyed (data_ptr, bytes, key+i);
 473              		.loc 1 69 0
 474 02ea 85C0     		testl	%eax, %eax
 475 02ec 7E25     		jle	L44
 476              	LVL42:
 477 02ee 6690     		.p2align 4,,10
 478              	L48:
  70:farsh.c       **** }
 479              		.loc 1 70 0
 480 02f0 89742408 		movl	%esi, 8(%esp)
 481 02f4 897C2404 		movl	%edi, 4(%esp)
 482 02f8 83C604   		addl	$4, %esi
 483 02fb 892C24   		movl	%ebp, (%esp)
 484 02fe E8FDFCFF 		call	__Z11farsh_keyedPKvjPKj
 484      FF
 485              	LVL43:
 486 0303 8B54243C 		movl	60(%esp), %edx
 487 0307 89049A   		movl	%eax, (%edx,%ebx,4)
  69:farsh.c       ****         hash[i] = farsh_keyed (data_ptr, bytes, key+i);
 488              		.loc 1 69 0
 489 030a 83C301   		addl	$1, %ebx
 490              	LVL44:
 491 030d 3B5C2438 		cmpl	56(%esp), %ebx
 492 0311 75DD     		jne	L48
 493              	LVL45:
 494              	L44:
 495              	LBE68:
 496              	LBE70:
  76:farsh.c       ****     farsh_keyed_n (data_ptr, bytes, farsh_key, n, hash);
  77:farsh.c       **** }
 497              		.loc 1 77 0
 498 0313 83C41C   		addl	$28, %esp
 499              		.cfi_def_cfa_offset 20
 500 0316 5B       		popl	%ebx
 501              		.cfi_restore 3
 502              		.cfi_def_cfa_offset 16
 503 0317 5E       		popl	%esi
 504              		.cfi_restore 6
 505              		.cfi_def_cfa_offset 12
 506 0318 5F       		popl	%edi
 507              		.cfi_restore 7
 508              		.cfi_def_cfa_offset 8
 509              	LVL46:
 510 0319 5D       		popl	%ebp
 511              		.cfi_restore 5
 512              		.cfi_def_cfa_offset 4
 513              	LVL47:
 514 031a C3       		ret
 515              		.cfi_endproc
 516              	LFE520:
 517 031b 908D7426 		.p2align 4,,15
 517      00
 518              		.globl	__Z5farshPKvj
 520              	__Z5farshPKvj:
 521              	LFB521:
  78:farsh.c       **** 
  79:farsh.c       **** /* Hash the buffer of arbitrary size */
  80:farsh.c       **** UINT farsh (const void *data_ptr, size_t bytes)
  81:farsh.c       **** {
 522              		.loc 1 81 0
 523              		.cfi_startproc
 524              	LVL48:
 525 0320 83EC1C   		subl	$28, %esp
 526              		.cfi_def_cfa_offset 32
  82:farsh.c       ****     return farsh_keyed (data_ptr, bytes, farsh_key);
 527              		.loc 1 82 0
 528 0323 8B442424 		movl	36(%esp), %eax
 529 0327 C7442408 		movl	$__ZL9farsh_key, 8(%esp)
 529      80000000 
 530 032f 89442404 		movl	%eax, 4(%esp)
 531 0333 8B442420 		movl	32(%esp), %eax
 532 0337 890424   		movl	%eax, (%esp)
 533 033a E8C1FCFF 		call	__Z11farsh_keyedPKvjPKj
 533      FF
 534              	LVL49:
  83:farsh.c       **** }
 535              		.loc 1 83 0
 536 033f 83C41C   		addl	$28, %esp
 537              		.cfi_def_cfa_offset 4
 538 0342 C3       		ret
 539              		.cfi_endproc
 540              	LFE521:
 542              		.section .rdata,"dr"
 543              	LC0:
 544 0000 48617368 		.ascii "Hashing %d GiB\0"
 544      696E6720 
 544      25642047 
 544      694200
 545 000f 00       		.align 4
 546              	LC5:
 547 0010 3A20252E 		.ascii ": %.3lf milliseconds = %.3lf GB/s = %.3lf GiB/s\12\0"
 547      336C6620 
 547      6D696C6C 
 547      69736563 
 547      6F6E6473 
 548              		.section	.text.startup,"x"
 549              		.p2align 4,,15
 550              		.globl	_main
 552              	_main:
 553              	LFB522:
 554              		.file 2 "main.cpp"
   1:main.cpp      **** #include <stdio.h>
   2:main.cpp      **** #include <stdint.h>
   3:main.cpp      **** #include "timer.h"
   4:main.cpp      **** #include "farsh.c"
   5:main.cpp      **** 
   6:main.cpp      **** int main()
   7:main.cpp      **** {
 555              		.loc 2 7 0
 556              		.cfi_startproc
 557 0000 8D4C2404 		leal	4(%esp), %ecx
 558              		.cfi_def_cfa 1, 0
 559 0004 83E4F0   		andl	$-16, %esp
 560 0007 FF71FC   		pushl	-4(%ecx)
 561 000a 55       		pushl	%ebp
 562              		.cfi_escape 0x10,0x5,0x2,0x75,0
 563 000b 89E5     		movl	%esp, %ebp
 564 000d 57       		pushl	%edi
 565 000e 56       		pushl	%esi
 566 000f 53       		pushl	%ebx
 567 0010 51       		pushl	%ecx
 568              		.cfi_escape 0xf,0x3,0x75,0x70,0x6
 569              		.cfi_escape 0x10,0x7,0x2,0x75,0x7c
 570              		.cfi_escape 0x10,0x6,0x2,0x75,0x78
 571              		.cfi_escape 0x10,0x3,0x2,0x75,0x74
 572              	LBB101:
 573              	LBB102:
 574              	LBB103:
 575              		.file 3 "timer.h"
   1:timer.h       **** //--------------------------------------------------------------------------------------
   2:timer.h       **** // Copyright (c) Microsoft Corp.
   3:timer.h       **** //
   4:timer.h       **** // File: timer.h
   5:timer.h       **** //
   6:timer.h       **** // Licensed under the Apache License, Version 2.0 (the "License"); you may not use this
   7:timer.h       **** // file except in compliance with the License. You may obtain a copy of the License at
   8:timer.h       **** // http://www.apache.org/licenses/LICENSE-2.0
   9:timer.h       **** //
  10:timer.h       **** // THIS CODE IS PROVIDED *AS IS* BASIS, WITHOUT WARRANTIES OR CONDITIONS OF ANY KIND,
  11:timer.h       **** // EITHER EXPRESS OR IMPLIED, INCLUDING WITHOUT LIMITATION ANY IMPLIED WARRANTIES OR
  12:timer.h       **** // CONDITIONS OF TITLE, FITNESS FOR A PARTICULAR PURPOSE, MERCHANTABLITY OR NON-INFRINGEMENT.
  13:timer.h       **** //
  14:timer.h       **** // See the Apache Version 2.0 License for specific language governing permissions and
  15:timer.h       **** // limitations under the License.
  16:timer.h       **** //--------------------------------------------------------------------------------------
  17:timer.h       **** 
  18:timer.h       **** #pragma once
  19:timer.h       **** #include <windows.h>
  20:timer.h       **** 
  21:timer.h       **** struct Timer
  22:timer.h       **** {
  23:timer.h       ****     void Start()
  24:timer.h       ****     {
  25:timer.h       ****         QueryPerformanceCounter(&m_start);
  26:timer.h       ****     }
  27:timer.h       **** 
  28:timer.h       ****     void Stop()
  29:timer.h       ****     {
  30:timer.h       ****         QueryPerformanceCounter(&m_stop);
  31:timer.h       ****     }
  32:timer.h       **** 
  33:timer.h       ****     // Returns elapsed time in milliseconds (ms)
  34:timer.h       ****     double Elapsed()
  35:timer.h       ****     {
  36:timer.h       ****         return (m_stop.QuadPart - m_start.QuadPart - m_overhead) \
  37:timer.h       ****                                           * 1000.0 / m_freq.QuadPart;
  38:timer.h       ****     }
  39:timer.h       **** 
  40:timer.h       ****     Timer()
  41:timer.h       ****     {
  42:timer.h       ****         // Initialize the resolution of the timer
  43:timer.h       ****         QueryPerformanceFrequency(&m_freq);
 576              		.loc 3 43 0
 577 0011 8D5DC8   		leal	-56(%ebp), %ebx
 578              	LBE103:
 579              	LBE102:
 580              	LBE101:
 581              		.loc 2 7 0
 582 0014 83EC68   		subl	$104, %esp
 583              		.loc 2 7 0
 584 0017 E8000000 		call	___main
 584      00
 585              	LVL50:
 586              	LBB163:
   8:main.cpp      ****     const size_t DATASIZE = 28*1024;
   9:main.cpp      ****     const uint64_t DATASET = uint64_t(10)<<30;
  10:main.cpp      ****     printf("Hashing %d GiB", int(DATASET>>30));
 587              		.loc 2 10 0
 588 001c C7442404 		movl	$10, 4(%esp)
 588      0A000000 
 589 0024 C7042400 		movl	$LC0, (%esp)
 589      000000
 590 002b E8000000 		call	_printf
 590      00
 591              	LVL51:
 592              	LBB123:
 593              	LBB120:
 594              		.loc 3 43 0
 595 0030 8D45D8   		leal	-40(%ebp), %eax
 596 0033 890424   		movl	%eax, (%esp)
 597 0036 FF150000 		call	*__imp__QueryPerformanceFrequency@4
 597      0000
 598              	LVL52:
 599              	LBB104:
 600              	LBB105:
 601              	LBB106:
 602              	LBB107:
  25:timer.h       ****     }
 603              		.loc 3 25 0
 604 003c A1000000 		movl	__imp__QueryPerformanceCounter@4, %eax
 604      00
 605              	LBE107:
 606              	LBE106:
 607              	LBE105:
 608              	LBE104:
 609              		.loc 3 43 0
 610 0041 83EC04   		subl	$4, %esp
 611              	LVL53:
 612              	LBB119:
 613              	LBB118:
 614              	LBB110:
 615              	LBB108:
  25:timer.h       ****     }
 616              		.loc 3 25 0
 617 0044 891C24   		movl	%ebx, (%esp)
 618 0047 89C7     		movl	%eax, %edi
 619 0049 8945B0   		movl	%eax, -80(%ebp)
 620 004c FFD0     		call	*%eax
 621              	LVL54:
 622              	LBE108:
 623              	LBE110:
 624              	LBB111:
 625              	LBB112:
  30:timer.h       ****     }
 626              		.loc 3 30 0
 627 004e 8D45D0   		leal	-48(%ebp), %eax
 628              	LBE112:
 629              	LBE111:
 630              	LBB115:
 631              	LBB109:
  25:timer.h       ****     }
 632              		.loc 3 25 0
 633 0051 83EC04   		subl	$4, %esp
 634              	LVL55:
 635              	LBE109:
 636              	LBE115:
 637              	LBB116:
 638              	LBB113:
  30:timer.h       ****     }
 639              		.loc 3 30 0
 640 0054 890424   		movl	%eax, (%esp)
 641 0057 89F8     		movl	%edi, %eax
 642 0059 FFD0     		call	*%eax
 643              	LVL56:
 644              	LBE113:
 645              	LBE116:
  44:timer.h       **** 
  45:timer.h       ****         // Calculate the overhead of the timer
  46:timer.h       ****         m_overhead = Timer::GetOverhead();
  47:timer.h       ****     }
  48:timer.h       **** 
  49:timer.h       **** private:
  50:timer.h       **** 
  51:timer.h       ****     // Returns the overhead of the timer in ticks
  52:timer.h       ****     LONGLONG GetOverhead()
  53:timer.h       ****     {
  54:timer.h       ****         Start();
  55:timer.h       ****         Stop();
  56:timer.h       ****         return m_stop.QuadPart - m_start.QuadPart;
 646              		.loc 3 56 0
 647 005b 8B45D0   		movl	-48(%ebp), %eax
 648              	LBB117:
 649              	LBB114:
  30:timer.h       ****     }
 650              		.loc 3 30 0
 651 005e 83EC04   		subl	$4, %esp
 652              	LBE114:
 653              	LBE117:
 654              		.loc 3 56 0
 655 0061 2B45C8   		subl	-56(%ebp), %eax
 656 0064 8B55D4   		movl	-44(%ebp), %edx
 657 0067 1B55CC   		sbbl	-52(%ebp), %edx
 658              	LBE118:
 659              	LBE119:
 660              	LBE120:
 661              	LBE123:
 662              	LBB124:
 663              	LBB125:
  25:timer.h       ****     }
 664              		.loc 3 25 0
 665 006a 891C24   		movl	%ebx, (%esp)
 666              	LBE125:
 667              	LBE124:
 668              	LBB129:
 669              	LBB121:
  46:timer.h       ****     }
 670              		.loc 3 46 0
 671 006d 8945E0   		movl	%eax, -32(%ebp)
 672              	LBE121:
 673              	LBE129:
 674              	LBB130:
 675              	LBB126:
  25:timer.h       ****     }
 676              		.loc 3 25 0
 677 0070 89F8     		movl	%edi, %eax
 678              	LBE126:
 679              	LBE130:
 680              	LBB131:
 681              	LBB122:
  46:timer.h       ****     }
 682              		.loc 3 46 0
 683 0072 8955E4   		movl	%edx, -28(%ebp)
 684              	LVL57:
 685              	LBE122:
 686              	LBE131:
 687              	LBB132:
 688              	LBB127:
  25:timer.h       ****     }
 689              		.loc 3 25 0
 690 0075 FFD0     		call	*%eax
 691              	LVL58:
 692 0077 C745B400 		movl	$0, -76(%ebp)
 692      000000
 693 007e 83EC04   		subl	$4, %esp
 694              	LVL59:
 695              	L59:
 696              	LBE127:
 697              	LBE132:
 698              	LBB133:
 699              	LBB134:
  11:main.cpp      ****     Timer t;  t.Start();
  12:main.cpp      **** 
  13:main.cpp      ****     for (int i=0; i<DATASET/DATASIZE; i++)
  14:main.cpp      ****     {
  15:main.cpp      ****         static char data[DATASIZE];  data[0]=(char)i;
 700              		.loc 2 15 0
 701 0081 0FB645B4 		movzbl	-76(%ebp), %eax
 702              	LBB135:
 703              	LBB136:
 704              	LBB137:
  51:farsh.c       ****     const char *data = (const char*) data_ptr,  *end = data+bytes;
 705              		.loc 1 51 0
 706 0085 31F6     		xorl	%esi, %esi
 707 0087 31FF     		xorl	%edi, %edi
 708 0089 31DB     		xorl	%ebx, %ebx
  52:farsh.c       ****     while (data < end)
 709              		.loc 1 52 0
 710 008b B9000000 		movl	$__ZZ4mainE4data, %ecx
 710      00
 711              	LBE137:
 712              	LBE136:
 713              	LBE135:
 714              		.loc 2 15 0
 715 0090 A2000000 		movb	%al, __ZZ4mainE4data
 715      00
 716              	LVL60:
 717              		.p2align 4,,10
 718              	L54:
 719              	LBE134:
 720              	LBE133:
 721              	LBB151:
 722              	LBB128:
  25:timer.h       ****     }
 723              		.loc 3 25 0
 724 0095 660FEFDB 		pxor	%xmm3, %xmm3
 725 0099 31C0     		xorl	%eax, %eax
 726              	LVL61:
 727 009b 908D7426 		.p2align 4,,10
 727      00
 728              	L55:
 729              	LBE128:
 730              	LBE151:
 731              	LBB152:
 732              	LBB150:
 733              	LBB149:
 734              	LBB148:
 735              	LBB147:
 736              	LBB138:
 737              	LBB139:
 738              	LBB140:
 739              	LBB141:
 740              	LBB142:
  19:farsh.c       ****     return (UINT)(sum >> 32);
 741              		.loc 1 19 0
 742 00a0 660F6F88 		movdqa	__ZL9farsh_key(%eax), %xmm1
 742      80000000 
 743 00a8 660F6F14 		movdqa	(%ecx,%eax), %xmm2
 743      01
 744 00ad 660F6FE1 		movdqa	%xmm1, %xmm4
 745 00b1 0FC68890 		shufps	$221, __ZL9farsh_key+16(%eax), %xmm1
 745      000000DD 
 746 00b9 660F6FC2 		movdqa	%xmm2, %xmm0
 747 00bd 0FC6A090 		shufps	$136, __ZL9farsh_key+16(%eax), %xmm4
 747      00000088 
 748 00c5 0FC65401 		shufps	$221, 16(%ecx,%eax), %xmm2
 748      10DD
 749 00cb 0FC64401 		shufps	$136, 16(%ecx,%eax), %xmm0
 749      1088
 750 00d1 83C020   		addl	$32, %eax
 751 00d4 3D000400 		cmpl	$1024, %eax
 751      00
 752 00d9 660FFECA 		paddd	%xmm2, %xmm1
 753 00dd 660FFEC4 		paddd	%xmm4, %xmm0
 754 00e1 660F6FE1 		movdqa	%xmm1, %xmm4
 755 00e5 660F6FD0 		movdqa	%xmm0, %xmm2
 756 00e9 660F62E1 		punpckldq	%xmm1, %xmm4
 757 00ed 660F62D0 		punpckldq	%xmm0, %xmm2
 758 00f1 660F6AC9 		punpckhdq	%xmm1, %xmm1
 759 00f5 660F6AC0 		punpckhdq	%xmm0, %xmm0
 760 00f9 660FF4D4 		pmuludq	%xmm4, %xmm2
 761 00fd 660FD4DA 		paddq	%xmm2, %xmm3
 762 0101 660FF4C1 		pmuludq	%xmm1, %xmm0
 763 0105 660FD4D8 		paddq	%xmm0, %xmm3
 764 0109 7595     		jne	L55
 765 010b 660F6FC3 		movdqa	%xmm3, %xmm0
 766              	LBE142:
 767              	LBE141:
 768              	LBE140:
 769              	LBE139:
  57:farsh.c       ****         sum += h*(ULONG)key[i];
 770              		.loc 1 57 0
 771 010f 81C10004 		addl	$1024, %ecx
 771      0000
 772              	LVL62:
 773 0115 660F73D8 		psrldq	$8, %xmm0
 773      08
 774              	LVL63:
 775 011a 660FD4D8 		paddq	%xmm0, %xmm3
 776 011e 660FD65D 		movq	%xmm3, -72(%ebp)
 776      B8
 777              	LBB146:
 778              	LBB145:
 779              	LBB144:
 780              	LBB143:
  20:farsh.c       **** }
 781              		.loc 1 20 0
 782 0123 8B45BC   		movl	-68(%ebp), %eax
 783              	LBE143:
 784              	LBE144:
 785              	LBE145:
 786              	LBE146:
  58:farsh.c       ****         if (++i == STRIPE_ELEMENTS)
 787              		.loc 1 58 0
 788 0126 F7249D80 		mull	__ZL9farsh_key(,%ebx,4)
 788      000000
 789 012d 01C6     		addl	%eax, %esi
 790              	LVL64:
  60:farsh.c       ****     }
 791              		.loc 1 60 0
 792 012f B8000000 		movl	$0, %eax
 792      00
  58:farsh.c       ****         if (++i == STRIPE_ELEMENTS)
 793              		.loc 1 58 0
 794 0134 11D7     		adcl	%edx, %edi
 795              	LVL65:
  59:farsh.c       ****             i = 0;/*to do*/
 796              		.loc 1 59 0
 797 0136 83C301   		addl	$1, %ebx
 798              	LVL66:
  60:farsh.c       ****     }
 799              		.loc 1 60 0
 800 0139 81FB0001 		cmpl	$256, %ebx
 800      0000
 801 013f 0F44D8   		cmove	%eax, %ebx
 802              	LVL67:
 803              	LBE138:
  53:farsh.c       ****     {
 804              		.loc 1 53 0
 805 0142 81F90070 		cmpl	$__ZZ4mainE4data+28672, %ecx
 805      0000
 806 0148 0F8247FF 		jb	L54
 806      FFFF
 807              	LBE147:
 808              	LBE148:
 809              	LBE149:
  16:main.cpp      ****         auto h = farsh (data, DATASIZE);
  17:main.cpp      ****         if (h==42) break;
 810              		.loc 2 17 0
 811 014e 83FF2A   		cmpl	$42, %edi
 812 0151 7412     		je	L58
 813              	LBE150:
  13:main.cpp      ****     {
 814              		.loc 2 13 0 discriminator 2
 815 0153 8345B401 		addl	$1, -76(%ebp)
 816              	LVL68:
 817 0157 8B45B4   		movl	-76(%ebp), %eax
 818              	LVL69:
 819 015a 3DDBB605 		cmpl	$374491, %eax
 819      00
 820 015f 0F851CFF 		jne	L59
 820      FFFF
 821              	LVL70:
 822              	L58:
 823              	LBE152:
 824              	LBB153:
 825              	LBB154:
  30:timer.h       ****     }
 826              		.loc 3 30 0
 827 0165 8D45D0   		leal	-48(%ebp), %eax
 828 0168 890424   		movl	%eax, (%esp)
 829 016b FF55B0   		call	*-80(%ebp)
 830              	LVL71:
 831              	LBE154:
 832              	LBE153:
 833              	LBB156:
 834              	LBB157:
  36:timer.h       ****                                           * 1000.0 / m_freq.QuadPart;
 835              		.loc 3 36 0
 836 016e 8B45D0   		movl	-48(%ebp), %eax
 837              	LBE157:
 838              	LBE156:
 839              	LBB160:
 840              	LBB155:
  30:timer.h       ****     }
 841              		.loc 3 30 0
 842 0171 83EC04   		subl	$4, %esp
 843              	LVL72:
 844              	LBE155:
 845              	LBE160:
 846              	LBB161:
 847              	LBB158:
  36:timer.h       ****                                           * 1000.0 / m_freq.QuadPart;
 848              		.loc 3 36 0
 849 0174 2B45C8   		subl	-56(%ebp), %eax
 850 0177 8B55D4   		movl	-44(%ebp), %edx
 851 017a 1B55CC   		sbbl	-52(%ebp), %edx
 852 017d 2B45E0   		subl	-32(%ebp), %eax
 853              	LBE158:
 854              	LBE161:
  18:main.cpp      ****     }
  19:main.cpp      **** 
  20:main.cpp      ****     t.Stop();  auto speed = DATASET/(t.Elapsed()/1000);
  21:main.cpp      ****     printf(": %.3lf milliseconds = %.3lf GB/s = %.3lf GiB/s\n", t.Elapsed(), speed/1e9, speed/(1<<3
 855              		.loc 2 21 0
 856 0180 C7042410 		movl	$LC5, (%esp)
 856      000000
 857              	LBB162:
 858              	LBB159:
  36:timer.h       ****                                           * 1000.0 / m_freq.QuadPart;
 859              		.loc 3 36 0
 860 0187 1B55E4   		sbbl	-28(%ebp), %edx
  37:timer.h       ****     }
 861              		.loc 3 37 0
 862 018a 8945B8   		movl	%eax, -72(%ebp)
 863 018d 8955BC   		movl	%edx, -68(%ebp)
 864 0190 DF6DB8   		fildq	-72(%ebp)
 865 0193 D905FC04 		flds	LC1
 865      0000
 866 0199 DCC9     		fmul	%st, %st(1)
 867 019b DF6DD8   		fildq	-40(%ebp)
 868 019e DEFA     		fdivrp	%st, %st(2)
 869              	LBE159:
 870              	LBE162:
  20:main.cpp      ****     printf(": %.3lf milliseconds = %.3lf GB/s = %.3lf GiB/s\n", t.Elapsed(), speed/1e9, speed/(1<<3
 871              		.loc 2 20 0
 872 01a0 D8F9     		fdivr	%st(1), %st
 873 01a2 D83D0005 		fdivrs	LC2
 873      0000
 874              	LVL73:
 875              		.loc 2 21 0
 876 01a8 D9C0     		fld	%st(0)
 877 01aa D80D0405 		fmuls	LC3
 877      0000
 878              	LVL74:
 879 01b0 DD5C2414 		fstpl	20(%esp)
 880 01b4 D8350805 		fdivs	LC4
 880      0000
 881 01ba DD5C240C 		fstpl	12(%esp)
 882 01be DD5C2404 		fstpl	4(%esp)
 883 01c2 E8000000 		call	_printf
 883      00
 884              	LVL75:
 885              	LBE163:
  22:main.cpp      ****     return 0;
  23:main.cpp      **** }
 886              		.loc 2 23 0
 887 01c7 8D65F0   		leal	-16(%ebp), %esp
 888 01ca 31C0     		xorl	%eax, %eax
 889 01cc 59       		popl	%ecx
 890              		.cfi_restore 1
 891              		.cfi_def_cfa 1, 0
 892 01cd 5B       		popl	%ebx
 893              		.cfi_restore 3
 894              	LVL76:
 895 01ce 5E       		popl	%esi
 896              		.cfi_restore 6
 897              	LVL77:
 898 01cf 5F       		popl	%edi
 899              		.cfi_restore 7
 900 01d0 5D       		popl	%ebp
 901              		.cfi_restore 5
 902              	LVL78:
 903 01d1 8D61FC   		leal	-4(%ecx), %esp
 904              		.cfi_def_cfa 4, 4
 905 01d4 C3       		ret
 906              		.cfi_endproc
 907              	LFE522:
 908              	.lcomm __ZZ4mainE4data,28672,64
 909 01d5 90909090 		.section .rdata,"dr"
 909      90909090 
 909      909090
 910 0041 00000000 		.align 64
 910      00000000 
 910      00000000 
 910      00000000 
 910      00000000 
 911              	__ZL9farsh_key:
 912 0080 396CFEB8 		.long	-1191285703
 913 0084 BE4BA423 		.long	597969854
 914 0088 2C81017C 		.long	2080473388
 915 008c 1CAD21F7 		.long	-148787940
 916 0090 E96DD4DE 		.long	-556503575
 917 0094 DB979083 		.long	-2087675941
 918 0098 A4A44072 		.long	1916839076
 919 009c 1F67B3B7 		.long	-1212979425
 920 00a0 4EE679CB 		.long	-881203634
 921 00a4 78E5C0CC 		.long	-859773576
 922 00a8 7DD05A82 		.long	-2107977603
 923 00ac 2172FFCC 		.long	-855674335
 924 00b0 744608B8 		.long	-1207417228
 925 00b4 8E2443F7 		.long	-146594674
 926 00b8 E69035E0 		.long	-533360410
 927 00bc 4C263A81 		.long	-2126895540
 928 00c0 BB52283C 		.long	1009275579
 929 00c4 CB00C391 		.long	-1849491253
 930 00c8 8B65D088 		.long	-1999608437
 931 00cc A32E531B 		.long	458436259
 932 00d0 97486471 		.long	1902397591
 933 00d4 4EF90DA2 		.long	-1576142514
 934 00d8 46EF1938 		.long	941223750
 935 00dc D8ACDEA9 		.long	-1445024552
 936 00e0 3F76FAA8 		.long	-1459980737
 937 00e4 3F349CE3 		.long	-476302273
 938 00e8 C7BBDCF9 		.long	-102974521
 939 00ec 1D4F0BC7 		.long	-955560163
 940 00f0 4BE0518A 		.long	-1974345653
 941 00f4 3159B4CD 		.long	-843818703
 942 00f8 C97E9FC8 		.long	-929071415
 943 00fc 647378D9 		.long	-646417564
 944 0100 52076A4F 		.long	1332348754
 945 0104 9C079BA7 		.long	-1483012196
 946 0108 9994C48F 		.long	-1882942311
 947 010c A9B7C98E 		.long	-1899382871
 948 0110 4922C933 		.long	868819529
 949 0114 4F40B64E 		.long	1320566863
 950 0118 4EFB2AFB 		.long	-81069234
 951 011c 554281A4 		.long	-1535032747
 952 0120 981B0E2F 		.long	789453720
 953 0124 243BE9AC 		.long	-1394001116
 954 0128 CD508818 		.long	411586765
 955 012c A7745C6C 		.long	1817998503
 956 0130 0444FA66 		.long	1727677444
 957 0134 83ACC5EA 		.long	-356143997
 958 0138 C3EBD334 		.long	886303683
 959 013c FFA081C5 		.long	-981360385
 960 0140 EB6313FA 		.long	-99392533
 961 0144 51DD0D17 		.long	386784593
 962 0148 49DAF0B7 		.long	-1208952247
 963 014c 265516D3 		.long	-753511130
 964 0150 9E68D429 		.long	701786270
 965 0154 58BE162B 		.long	722910808
 966 0158 FCA1477D 		.long	2101846524
 967 015c D1B8F88F 		.long	-1879525167
 968 0160 CE31D07A 		.long	2060464590
 969 0164 8F3ACB45 		.long	1170946703
 970 0168 28041695 		.long	-1793719256
 971 016c CAFBD7AF 		.long	-1344799798
 972 0170 7E404BBB 		.long	-1152696194
 973 0174 A4745299 		.long	-1722649436
 974 0178 932D9AEB 		.long	-342217325
 975 017c 0889E73B 		.long	1005029640
 976 0180 6C5F47ED 		.long	-314089620
 977 0184 F2D89C91 		.long	-1851991822
 978 0188 5A1E86D3 		.long	-746185126
 979 018c 0C39316E 		.long	1848719628
 980 0190 493A6AFE 		.long	-26592695
 981 0194 1409ADDC 		.long	-592639724
 982 0198 EB8B5006 		.long	105941995
 983 019c F39983A8 		.long	-1467770381
 984 01a0 2F1158B0 		.long	-1336405713
 985 01a4 79FAB0E8 		.long	-391054727
 986 01a8 06DAB429 		.long	699718150
 987 01ac FB53C2ED 		.long	-306031621
 988 01b0 AD6DE9C3 		.long	-1008112211
 989 01b4 832B376E 		.long	1849109379
 990 01b8 53B1784F 		.long	1333309779
 991 01bc 866EFAFF 		.long	-364922
 992 01c0 ECEEBE21 		.long	566161132
 993 01c4 02EACA01 		.long	30075394
 994 01c8 0DE56712 		.long	308798733
 995 01cc 2F09E611 		.long	300288303
 996 01d0 98D219E8 		.long	-400960872
 997 01d4 DD802F83 		.long	-2094038819
 998 01d8 77244E0C 		.long	206447735
 999 01dc EB8678BC 		.long	-1132951829
 1000 01e0 37665001 		.long	22046263
 1001 01e4 6896A88B 		.long	-1951885720
 1002 01e8 A0E7116D 		.long	1829889952
 1003 01ec 15FD12FC 		.long	-65864427
 1004 01f0 194CA586 		.long	-2035987431
 1005 01f4 DDE33C59 		.long	1497162717
 1006 01f8 E53FB1D2 		.long	-760135707
 1007 01fc 532B778E 		.long	-1904792749
 1008 0200 CC604AAE 		.long	-1370857268
 1009 0204 1B3B7A64 		.long	1685732123
 1010 0208 E0867754 		.long	1417119456
 1011 020c 8E37C43E 		.long	1053046670
 1012 0210 89CF7A8D 		.long	-1921331319
 1013 0214 47F936CA 		.long	-902366905
 1014 0218 EFD5890E 		.long	243914223
 1015 021c 3C6ADAAA 		.long	-1428526532
 1016 0220 09A1A46D 		.long	1839505673
 1017 0224 1CE1C69A 		.long	-1698242276
 1018 0228 EF916668 		.long	1751552495
 1019 022c 2BBD57A3 		.long	-1554531029
 1020 0230 9A1B6FD1 		.long	-781247590
 1021 0234 0303C738 		.long	952566531
 1022 0238 B322467D 		.long	2101748403
 1023 023c 8FFA6829 		.long	694745743
 1024 0240 B9BCA58C 		.long	-1935295303
 1025 0244 0510D6FC 		.long	-53080059
 1026 0248 965E8B22 		.long	579559062
 1027 024c 19CC9D2C 		.long	748538905
 1028 0250 3C24CF57 		.long	1473193020
 1029 0254 C1F9533C 		.long	1012136385
 1030 0258 2C95C70C 		.long	214406444
 1031 025c F0E46D68 		.long	1752032496
 1032 0260 B547A793 		.long	-1817753675
 1033 0264 10A5874E 		.long	1317512464
 1034 0268 AE915E97 		.long	-1755410002
 1035 026c 8EB9104C 		.long	1276164494
 1036 0270 8C067F8A 		.long	-1971386740
 1037 0274 AB196B34 		.long	879434155
 1038 0278 25A63C35 		.long	893167141
 1039 027c E0500AF2 		.long	-234204960
 1040 0280 F62199CE 		.long	-828825098
 1041 0284 14E066DF 		.long	-546906092
 1042 0288 4BEF110A 		.long	168947531
 1043 028c DF4DC88B 		.long	-1949807137
 1044 0290 225DD284 		.long	-2066588382
 1045 0294 6D9323C8 		.long	-937192595
 1046 0298 C31E7494 		.long	-1804329277
 1047 029c 608A2788 		.long	-2010674592
 1048 02a0 319364B8 		.long	-1201368271
 1049 02a4 107A707A 		.long	2054191632
 1050 02a8 D6CA9272 		.long	1922222806
 1051 02ac C244C6A7 		.long	-1480178494
 1052 02b0 FA6B15BD 		.long	-1122669574
 1053 02b4 78956C64 		.long	1684837752
 1054 02b8 D5DFF4B7 		.long	-1208688683
 1055 02bc A777829F 		.long	-1618839641
 1056 02c0 4E921370 		.long	1880330830
 1057 02c4 C34C67AD 		.long	-1385739069
 1058 02c8 059DAE2C 		.long	749640965
 1059 02cc 229A2A91 		.long	-1859479006
 1060 02d0 FA537CF6 		.long	-159624198
 1061 02d4 A9227E8D 		.long	-1921113431
 1062 02d8 2B37AE59 		.long	1504589611
 1063 02dc F3990185 		.long	-2063492621
 1064 02e0 2C10A263 		.long	1671565356
 1065 02e4 6112FFD6 		.long	-687926687
 1066 02e8 E18E7356 		.long	1450413793
 1067 02ec 5B1495AA 		.long	-1433070501
 1068 02f0 3228D1FD 		.long	-36624334
 1069 02f4 EB4D685B 		.long	1533562347
 1070 02f8 94DE8407 		.long	126148244
 1071 02fc 0E3962AA 		.long	-1436403442
 1072 0300 19CF7CBB 		.long	-1149448423
 1073 0304 72D5EF0F 		.long	267375986
 1074 0308 CA415B56 		.long	1448821194
 1075 030c 02D20622 		.long	570872322
 1076 0310 7984602D 		.long	761300089
 1077 0314 3DCD0F4C 		.long	1276103997
 1078 0318 E33B6DD3 		.long	-747815965
 1079 031c 659A5A15 		.long	358259301
 1080 0320 32E7F910 		.long	284813106
 1081 0324 1E0F9BAC 		.long	-1399124194
 1082 0328 3BA0721F 		.long	527605819
 1083 032c AE4094EA 		.long	-359382866
 1084 0330 4F4B675B 		.long	1533496143
 1085 0334 D127A831 		.long	833103825
 1086 0338 4F95CAEC 		.long	-322267825
 1087 033c 1ED62C3D 		.long	1026348574
 1088 0340 A43D8D76 		.long	1988967844
 1089 0344 C15A7493 		.long	-1821091135
 1090 0348 CB585D1D 		.long	492656843
 1091 034c B6F3864B 		.long	1267135414
 1092 0350 3A92BA2A 		.long	716870202
 1093 0354 4C81650E 		.long	241533260
 1094 0358 D963E08A 		.long	-1965005863
 1095 035c B06969CD 		.long	-848729680
 1096 0360 85156436 		.long	912528773
 1097 0364 9DF52A74 		.long	1948972445
 1098 0368 16133A61 		.long	1631195926
 1099 036c 71A48E33 		.long	864986225
 1100 0370 F31A8647 		.long	1199971059
 1101 0374 C39D4730 		.long	809999811
 1102 0378 81A47012 		.long	309372033
 1103 037c 69107708 		.long	142020713
 1104 0380 D2F0C4E3 		.long	-473632558
 1105 0384 4C872902 		.long	36276044
 1106 0388 C13B8A5A 		.long	1519008705
 1107 038c 33970DE3 		.long	-485648589
 1108 0390 A2E55BD0 		.long	-799283806
 1109 0394 BA31AFE2 		.long	-491834950
 1110 0398 F9492022 		.long	572541433
 1111 039c 6A3B929F 		.long	-1617806486
 1112 03a0 EC643F03 		.long	54486252
 1113 03a4 2BB628E5 		.long	-450316757
 1114 03a8 BDEF0182 		.long	-2113802307
 1115 03ac 77D80721 		.long	554162295
 1116 03b0 F12E31D8 		.long	-667865359
 1117 03b4 999F67A5 		.long	-1519935591
 1118 03b8 1BB53017 		.long	389068059
 1119 03bc D2162675 		.long	1965430482
 1120 03c0 09593005 		.long	87054601
 1121 03c4 0B44CA0D 		.long	231359499
 1122 03c8 D9CD9320 		.long	546557401
 1123 03cc 50AB0964 		.long	1678355280
 1124 03d0 CC8E5CBA 		.long	-1168339252
 1125 03d4 EA08478D 		.long	-1924724502
 1126 03d8 17099F42 		.long	1117718807
 1127 03dc B0FA62B7 		.long	-1218250064
 1128 03e0 75EA6151 		.long	1365371509
 1129 03e4 EBA0EB45 		.long	1173070059
 1130 03e8 414BF3B6 		.long	-1225569471
 1131 03ec 23710452 		.long	1376022819
 1132 03f0 231518E4 		.long	-468183773
 1133 03f4 0AE9748D 		.long	-1921718006
 1134 03f8 1C40FA54 		.long	1425686556
 1135 03fc C70CDADD 		.long	-572912441
 1136 0400 2A18DF63 		.long	1675565098
 1137 0404 F63E40C6 		.long	-968868106
 1138 0408 E8C68E34 		.long	881772264
 1139 040c F557FFB9 		.long	-1174448139
 1140 0410 BDB852F6 		.long	-162350915
 1141 0414 F3B0860F 		.long	260485363
 1142 0418 8A083AFB 		.long	-80082806
 1143 041c 3315C74D 		.long	1304892723
 1144 0420 D217367B 		.long	2067142610
 1145 0424 EB874EA3 		.long	-1555134485
 1146 0428 DD9B2ABA 		.long	-1171612707
 1147 042c 061338E3 		.long	-482864378
 1148 0430 BBD6BA14 		.long	347788987
 1149 0434 C2C76DC9 		.long	-915552318
 1150 0438 B6543B33 		.long	859526326
 1151 043c FA7CE49B 		.long	-1679524614
 1152 0440 9992CF1D 		.long	500142745
 1153 0444 995FEAE7 		.long	-404070503
 1154 0448 CDEA8FB3 		.long	-1282413875
 1155 044c F7E2CFC3 		.long	-1009786121
 1156 0450 22E8875B 		.long	1535633442
 1157 0454 56ABC539 		.long	969255766
 1158 0458 8FA1F418 		.long	418685327
 1159 045c 9C4D482D 		.long	759713180
 1160 0460 19D56341 		.long	1097061657
 1161 0464 989E7679 		.long	2037816984
 1162 0468 F0678AF5 		.long	-175478800
 1163 046c 020C5940 		.long	1079577602
 1164 0470 C0719631 		.long	831943104
 1165 0474 3A136B26 		.long	644551482
 1166 0478 87B281AF 		.long	-1350454649
 1167 047c 37F7316A 		.long	1781659447
 1168 0480 9701BCE3 		.long	-474218089
 1169 0484 13990755 		.long	1426561299
 1170 0488 96C6729F 		.long	-1619868010
 1171 048c C8003E36 		.long	910033096
 1172 0490 47391553 		.long	1393899847
 1173 0494 7F12FDEB 		.long	-335736193
 1174 0498 1905F600 		.long	16123161
 1175 049c 2AB6A646 		.long	1185330730
 1176 04a0 8033B893 		.long	-1816644736
 1177 04a4 2493E23F 		.long	1071813412
 1178 04a8 9170C6DF 		.long	-540643183
 1179 04ac 6D38620F 		.long	258095213
 1180 04b0 795E37DC 		.long	-600351111
 1181 04b4 3E3FEA8F 		.long	-1880473794
 1182 04b8 D06384DF 		.long	-544971824
 1183 04bc 7BFA0237 		.long	922942075
 1184 04c0 5E435439 		.long	961823582
 1185 04c4 48A6CA87 		.long	-2016762296
 1186 04c8 EE8B15A9 		.long	-1458205714
 1187 04cc 250CF308 		.long	150146085
 1188 04d0 3629B866 		.long	1723345206
 1189 04d4 EB3FFCE7 		.long	-402898965
 1190 04d8 50543C18 		.long	406606928
 1191 04dc 4543EFD7 		.long	-672185531
 1192 04e0 63798C79 		.long	2039249251
 1193 04e4 57F52CC0 		.long	-1070795433
 1194 04e8 D1538509 		.long	159732689
 1195 04ec AA1243FA 		.long	-96267606
 1196 04f0 83F89EE2 		.long	-492898173
 1197 04f4 8D12AF7C 		.long	2091848333
 1198 04f8 7DA0B374 		.long	1957929085
 1199              		.align 4
 1200              	LC1:
 1201 04fc 00007A44 		.long	1148846080
 1202              		.align 4
 1203              	LC2:
 1204 0500 00002050 		.long	1344274432
 1205              		.align 4
 1206              	LC3:
 1207 0504 00008030 		.long	813694976
 1208              		.align 4
 1209              	LC4:
 1210 0508 286B6E4E 		.long	1315859240
 1211 050c 00000000 		.text
 1211      00000000 
 1211      00000000 
 1211      00000000 
 1211      00000000 
 1212              	Letext0:
 1213              		.file 4 "C:/Base/Compiler/MinGW-4.9.2/mingw32/i686-w64-mingw32/include/stdio.h"
 1214              		.file 5 "C:/Base/Compiler/MinGW-4.9.2/mingw32/i686-w64-mingw32/include/crtdefs.h"
 1215              		.file 6 "C:/Base/Compiler/MinGW-4.9.2/mingw32/i686-w64-mingw32/include/stdint.h"
 1216              		.file 7 "C:/Base/Compiler/MinGW-4.9.2/mingw32/i686-w64-mingw32/include/minwindef.h"
 1217              		.file 8 "C:/Base/Compiler/MinGW-4.9.2/mingw32/i686-w64-mingw32/include/winnt.h"
 1218 0343 90909090 		.section	.debug_info,"dr"
 1218      90909090 
 1218      90909090 
 1218      90
 1219              	Ldebug_info0:
 1220 0000 440D0000 		.long	0xd44
 1221 0004 0400     		.word	0x4
 1222 0006 00000000 		.secrel32	Ldebug_abbrev0
 1223 000a 04       		.byte	0x4
 1224 000b 01       		.uleb128 0x1
 1225 000c 474E5520 		.ascii "GNU C++ 4.9.2 -m32 -msse2 -mtune=generic -march=i686 -g -O3 -std=c++11\0"
 1225      432B2B20 
 1225      342E392E 
 1225      32202D6D 
 1225      3332202D 
 1226 0053 04       		.byte	0x4
 1227 0054 6D61696E 		.ascii "main.cpp\0"
 1227      2E637070 
 1227      00
 1228 005d 433A5C21 		.ascii "C:\\!FreeArc\\public\\FARSH\0"
 1228      46726565 
 1228      4172635C 
 1228      7075626C 
 1228      69635C46 
 1229 0076 10020000 		.secrel32	Ldebug_ranges0+0x210
 1230 007a 00000000 		.long	0
 1231 007e 00000000 		.secrel32	Ldebug_line0
 1232 0082 02       		.uleb128 0x2
 1233 0083 08       		.byte	0x8
 1234 0084 07       		.byte	0x7
 1235 0085 6C6F6E67 		.ascii "long long unsigned int\0"
 1235      206C6F6E 
 1235      6720756E 
 1235      7369676E 
 1235      65642069 
 1236 009c 02       		.uleb128 0x2
 1237 009d 08       		.byte	0x8
 1238 009e 04       		.byte	0x4
 1239 009f 646F7562 		.ascii "double\0"
 1239      6C6500
 1240 00a6 02       		.uleb128 0x2
 1241 00a7 04       		.byte	0x4
 1242 00a8 07       		.byte	0x7
 1243 00a9 756E7369 		.ascii "unsigned int\0"
 1243      676E6564 
 1243      20696E74 
 1243      00
 1244 00b6 02       		.uleb128 0x2
 1245 00b7 08       		.byte	0x8
 1246 00b8 05       		.byte	0x5
 1247 00b9 6C6F6E67 		.ascii "long long int\0"
 1247      206C6F6E 
 1247      6720696E 
 1247      7400
 1248 00c7 02       		.uleb128 0x2
 1249 00c8 01       		.byte	0x1
 1250 00c9 06       		.byte	0x6
 1251 00ca 63686172 		.ascii "char\0"
 1251      00
 1252 00cf 03       		.uleb128 0x3
 1253 00d0 73697A65 		.ascii "size_t\0"
 1253      5F7400
 1254 00d7 05       		.byte	0x5
 1255 00d8 25       		.byte	0x25
 1256 00d9 A6000000 		.long	0xa6
 1257 00dd 02       		.uleb128 0x2
 1258 00de 04       		.byte	0x4
 1259 00df 05       		.byte	0x5
 1260 00e0 696E7400 		.ascii "int\0"
 1261 00e4 02       		.uleb128 0x2
 1262 00e5 02       		.byte	0x2
 1263 00e6 07       		.byte	0x7
 1264 00e7 73686F72 		.ascii "short unsigned int\0"
 1264      7420756E 
 1264      7369676E 
 1264      65642069 
 1264      6E7400
 1265 00fa 02       		.uleb128 0x2
 1266 00fb 04       		.byte	0x4
 1267 00fc 05       		.byte	0x5
 1268 00fd 6C6F6E67 		.ascii "long int\0"
 1268      20696E74 
 1268      00
 1269 0106 04       		.uleb128 0x4
 1270 0107 04       		.byte	0x4
 1271 0108 C7000000 		.long	0xc7
 1272 010c 02       		.uleb128 0x2
 1273 010d 02       		.byte	0x2
 1274 010e 07       		.byte	0x7
 1275 010f 77636861 		.ascii "wchar_t\0"
 1275      725F7400 
 1276 0117 02       		.uleb128 0x2
 1277 0118 04       		.byte	0x4
 1278 0119 07       		.byte	0x7
 1279 011a 73697A65 		.ascii "sizetype\0"
 1279      74797065 
 1279      00
 1280 0123 02       		.uleb128 0x2
 1281 0124 04       		.byte	0x4
 1282 0125 07       		.byte	0x7
 1283 0126 6C6F6E67 		.ascii "long unsigned int\0"
 1283      20756E73 
 1283      69676E65 
 1283      6420696E 
 1283      7400
 1284 0138 02       		.uleb128 0x2
 1285 0139 01       		.byte	0x1
 1286 013a 08       		.byte	0x8
 1287 013b 756E7369 		.ascii "unsigned char\0"
 1287      676E6564 
 1287      20636861 
 1287      7200
 1288 0149 05       		.uleb128 0x5
 1289 014a 5F696F62 		.ascii "_iobuf\0"
 1289      756600
 1290 0151 20       		.byte	0x20
 1291 0152 04       		.byte	0x4
 1292 0153 1A       		.byte	0x1a
 1293 0154 D0010000 		.long	0x1d0
 1294 0158 06       		.uleb128 0x6
 1295 0159 5F707472 		.ascii "_ptr\0"
 1295      00
 1296 015e 04       		.byte	0x4
 1297 015f 1B       		.byte	0x1b
 1298 0160 06010000 		.long	0x106
 1299 0164 00       		.byte	0
 1300 0165 06       		.uleb128 0x6
 1301 0166 5F636E74 		.ascii "_cnt\0"
 1301      00
 1302 016b 04       		.byte	0x4
 1303 016c 1C       		.byte	0x1c
 1304 016d DD000000 		.long	0xdd
 1305 0171 04       		.byte	0x4
 1306 0172 06       		.uleb128 0x6
 1307 0173 5F626173 		.ascii "_base\0"
 1307      6500
 1308 0179 04       		.byte	0x4
 1309 017a 1D       		.byte	0x1d
 1310 017b 06010000 		.long	0x106
 1311 017f 08       		.byte	0x8
 1312 0180 06       		.uleb128 0x6
 1313 0181 5F666C61 		.ascii "_flag\0"
 1313      6700
 1314 0187 04       		.byte	0x4
 1315 0188 1E       		.byte	0x1e
 1316 0189 DD000000 		.long	0xdd
 1317 018d 0C       		.byte	0xc
 1318 018e 06       		.uleb128 0x6
 1319 018f 5F66696C 		.ascii "_file\0"
 1319      6500
 1320 0195 04       		.byte	0x4
 1321 0196 1F       		.byte	0x1f
 1322 0197 DD000000 		.long	0xdd
 1323 019b 10       		.byte	0x10
 1324 019c 06       		.uleb128 0x6
 1325 019d 5F636861 		.ascii "_charbuf\0"
 1325      72627566 
 1325      00
 1326 01a6 04       		.byte	0x4
 1327 01a7 20       		.byte	0x20
 1328 01a8 DD000000 		.long	0xdd
 1329 01ac 14       		.byte	0x14
 1330 01ad 06       		.uleb128 0x6
 1331 01ae 5F627566 		.ascii "_bufsiz\0"
 1331      73697A00 
 1332 01b6 04       		.byte	0x4
 1333 01b7 21       		.byte	0x21
 1334 01b8 DD000000 		.long	0xdd
 1335 01bc 18       		.byte	0x18
 1336 01bd 06       		.uleb128 0x6
 1337 01be 5F746D70 		.ascii "_tmpfname\0"
 1337      666E616D 
 1337      6500
 1338 01c8 04       		.byte	0x4
 1339 01c9 22       		.byte	0x22
 1340 01ca 06010000 		.long	0x106
 1341 01ce 1C       		.byte	0x1c
 1342 01cf 00       		.byte	0
 1343 01d0 02       		.uleb128 0x2
 1344 01d1 0C       		.byte	0xc
 1345 01d2 04       		.byte	0x4
 1346 01d3 6C6F6E67 		.ascii "long double\0"
 1346      20646F75 
 1346      626C6500 
 1347 01df 07       		.uleb128 0x7
 1348 01e0 6465636C 		.ascii "decltype(nullptr)\0"
 1348      74797065 
 1348      286E756C 
 1348      6C707472 
 1348      2900
 1349 01f2 02       		.uleb128 0x2
 1350 01f3 01       		.byte	0x1
 1351 01f4 06       		.byte	0x6
 1352 01f5 7369676E 		.ascii "signed char\0"
 1352      65642063 
 1352      68617200 
 1353 0201 02       		.uleb128 0x2
 1354 0202 02       		.byte	0x2
 1355 0203 05       		.byte	0x5
 1356 0204 73686F72 		.ascii "short int\0"
 1356      7420696E 
 1356      7400
 1357 020e 03       		.uleb128 0x3
 1358 020f 75696E74 		.ascii "uint64_t\0"
 1358      36345F74 
 1358      00
 1359 0218 06       		.byte	0x6
 1360 0219 2A       		.byte	0x2a
 1361 021a 82000000 		.long	0x82
 1362 021e 03       		.uleb128 0x3
 1363 021f 44574F52 		.ascii "DWORD\0"
 1363      4400
 1364 0225 07       		.byte	0x7
 1365 0226 8D       		.byte	0x8d
 1366 0227 23010000 		.long	0x123
 1367 022b 02       		.uleb128 0x2
 1368 022c 04       		.byte	0x4
 1369 022d 04       		.byte	0x4
 1370 022e 666C6F61 		.ascii "float\0"
 1370      7400
 1371 0234 04       		.uleb128 0x4
 1372 0235 04       		.byte	0x4
 1373 0236 3A020000 		.long	0x23a
 1374 023a 08       		.uleb128 0x8
 1375 023b 04       		.uleb128 0x4
 1376 023c 04       		.byte	0x4
 1377 023d A6000000 		.long	0xa6
 1378 0241 09       		.uleb128 0x9
 1379 0242 4C4F4E47 		.ascii "LONG\0"
 1379      00
 1380 0247 08       		.byte	0x8
 1381 0248 1801     		.word	0x118
 1382 024a FA000000 		.long	0xfa
 1383 024e 09       		.uleb128 0x9
 1384 024f 4C4F4E47 		.ascii "LONGLONG\0"
 1384      4C4F4E47 
 1384      00
 1385 0258 08       		.byte	0x8
 1386 0259 E301     		.word	0x1e3
 1387 025b B6000000 		.long	0xb6
 1388 025f 0A       		.uleb128 0xa
 1389 0260 5F4C4152 		.ascii "_LARGE_INTEGER\0"
 1389      47455F49 
 1389      4E544547 
 1389      455200
 1390 026f 08       		.byte	0x8
 1391 0270 08       		.byte	0x8
 1392 0271 F201     		.word	0x1f2
 1393 0273 E8020000 		.long	0x2e8
 1394 0277 0B       		.uleb128 0xb
 1395 0278 08       		.byte	0x8
 1396 0279 08       		.byte	0x8
 1397 027a F301     		.word	0x1f3
 1398 027c 9F020000 		.long	0x29f
 1399 0280 0C       		.uleb128 0xc
 1400 0281 4C6F7750 		.ascii "LowPart\0"
 1400      61727400 
 1401 0289 08       		.byte	0x8
 1402 028a F401     		.word	0x1f4
 1403 028c 1E020000 		.long	0x21e
 1404 0290 00       		.byte	0
 1405 0291 0D       		.uleb128 0xd
 1406 0292 00000000 		.secrel32	LASF0
 1407 0296 08       		.byte	0x8
 1408 0297 F501     		.word	0x1f5
 1409 0299 41020000 		.long	0x241
 1410 029d 04       		.byte	0x4
 1411 029e 00       		.byte	0
 1412 029f 0B       		.uleb128 0xb
 1413 02a0 08       		.byte	0x8
 1414 02a1 08       		.byte	0x8
 1415 02a2 F701     		.word	0x1f7
 1416 02a4 C7020000 		.long	0x2c7
 1417 02a8 0C       		.uleb128 0xc
 1418 02a9 4C6F7750 		.ascii "LowPart\0"
 1418      61727400 
 1419 02b1 08       		.byte	0x8
 1420 02b2 F801     		.word	0x1f8
 1421 02b4 1E020000 		.long	0x21e
 1422 02b8 00       		.byte	0
 1423 02b9 0D       		.uleb128 0xd
 1424 02ba 00000000 		.secrel32	LASF0
 1425 02be 08       		.byte	0x8
 1426 02bf F901     		.word	0x1f9
 1427 02c1 41020000 		.long	0x241
 1428 02c5 04       		.byte	0x4
 1429 02c6 00       		.byte	0
 1430 02c7 0E       		.uleb128 0xe
 1431 02c8 77020000 		.long	0x277
 1432 02cc 0F       		.uleb128 0xf
 1433 02cd 7500     		.ascii "u\0"
 1434 02cf 08       		.byte	0x8
 1435 02d0 FA01     		.word	0x1fa
 1436 02d2 9F020000 		.long	0x29f
 1437 02d6 0F       		.uleb128 0xf
 1438 02d7 51756164 		.ascii "QuadPart\0"
 1438      50617274 
 1438      00
 1439 02e0 08       		.byte	0x8
 1440 02e1 FC01     		.word	0x1fc
 1441 02e3 4E020000 		.long	0x24e
 1442 02e7 00       		.byte	0
 1443 02e8 09       		.uleb128 0x9
 1444 02e9 4C415247 		.ascii "LARGE_INTEGER\0"
 1444      455F494E 
 1444      54454745 
 1444      5200
 1445 02f7 08       		.byte	0x8
 1446 02f8 FD01     		.word	0x1fd
 1447 02fa 5F020000 		.long	0x25f
 1448 02fe 05       		.uleb128 0x5
 1449 02ff 54696D65 		.ascii "Timer\0"
 1449      7200
 1450 0305 20       		.byte	0x20
 1451 0306 03       		.byte	0x3
 1452 0307 15       		.byte	0x15
 1453 0308 21040000 		.long	0x421
 1454 030c 10       		.uleb128 0x10
 1455 030d 6D5F7374 		.ascii "m_start\0"
 1455      61727400 
 1456 0315 03       		.byte	0x3
 1457 0316 3B       		.byte	0x3b
 1458 0317 E8020000 		.long	0x2e8
 1459 031b 00       		.byte	0
 1460 031c 03       		.byte	0x3
 1461 031d 10       		.uleb128 0x10
 1462 031e 6D5F7374 		.ascii "m_stop\0"
 1462      6F7000
 1463 0325 03       		.byte	0x3
 1464 0326 3C       		.byte	0x3c
 1465 0327 E8020000 		.long	0x2e8
 1466 032b 08       		.byte	0x8
 1467 032c 03       		.byte	0x3
 1468 032d 10       		.uleb128 0x10
 1469 032e 6D5F6672 		.ascii "m_freq\0"
 1469      657100
 1470 0335 03       		.byte	0x3
 1471 0336 3D       		.byte	0x3d
 1472 0337 E8020000 		.long	0x2e8
 1473 033b 10       		.byte	0x10
 1474 033c 03       		.byte	0x3
 1475 033d 10       		.uleb128 0x10
 1476 033e 6D5F6F76 		.ascii "m_overhead\0"
 1476      65726865 
 1476      616400
 1477 0349 03       		.byte	0x3
 1478 034a 3E       		.byte	0x3e
 1479 034b 4E020000 		.long	0x24e
 1480 034f 18       		.byte	0x18
 1481 0350 03       		.byte	0x3
 1482 0351 11       		.uleb128 0x11
 1483 0352 53746172 		.ascii "Start\0"
 1483      7400
 1484 0358 03       		.byte	0x3
 1485 0359 17       		.byte	0x17
 1486 035a 5F5A4E35 		.ascii "_ZN5Timer5StartEv\0"
 1486      54696D65 
 1486      72355374 
 1486      61727445 
 1486      7600
 1487 036c 74030000 		.long	0x374
 1488 0370 7A030000 		.long	0x37a
 1489 0374 12       		.uleb128 0x12
 1490 0375 21040000 		.long	0x421
 1491 0379 00       		.byte	0
 1492 037a 11       		.uleb128 0x11
 1493 037b 53746F70 		.ascii "Stop\0"
 1493      00
 1494 0380 03       		.byte	0x3
 1495 0381 1C       		.byte	0x1c
 1496 0382 5F5A4E35 		.ascii "_ZN5Timer4StopEv\0"
 1496      54696D65 
 1496      72345374 
 1496      6F704576 
 1496      00
 1497 0393 9B030000 		.long	0x39b
 1498 0397 A1030000 		.long	0x3a1
 1499 039b 12       		.uleb128 0x12
 1500 039c 21040000 		.long	0x421
 1501 03a0 00       		.byte	0
 1502 03a1 13       		.uleb128 0x13
 1503 03a2 456C6170 		.ascii "Elapsed\0"
 1503      73656400 
 1504 03aa 03       		.byte	0x3
 1505 03ab 22       		.byte	0x22
 1506 03ac 5F5A4E35 		.ascii "_ZN5Timer7ElapsedEv\0"
 1506      54696D65 
 1506      7237456C 
 1506      61707365 
 1506      64457600 
 1507 03c0 9C000000 		.long	0x9c
 1508 03c4 CC030000 		.long	0x3cc
 1509 03c8 D2030000 		.long	0x3d2
 1510 03cc 12       		.uleb128 0x12
 1511 03cd 21040000 		.long	0x421
 1512 03d1 00       		.byte	0
 1513 03d2 14       		.uleb128 0x14
 1514 03d3 54696D65 		.ascii "Timer\0"
 1514      7200
 1515 03d9 03       		.byte	0x3
 1516 03da 28       		.byte	0x28
 1517 03db E3030000 		.long	0x3e3
 1518 03df E9030000 		.long	0x3e9
 1519 03e3 12       		.uleb128 0x12
 1520 03e4 21040000 		.long	0x421
 1521 03e8 00       		.byte	0
 1522 03e9 15       		.uleb128 0x15
 1523 03ea 4765744F 		.ascii "GetOverhead\0"
 1523      76657268 
 1523      65616400 
 1524 03f6 03       		.byte	0x3
 1525 03f7 34       		.byte	0x34
 1526 03f8 5F5A4E35 		.ascii "_ZN5Timer11GetOverheadEv\0"
 1526      54696D65 
 1526      72313147 
 1526      65744F76 
 1526      65726865 
 1527 0411 4E020000 		.long	0x24e
 1528 0415 03       		.byte	0x3
 1529 0416 1A040000 		.long	0x41a
 1530 041a 12       		.uleb128 0x12
 1531 041b 21040000 		.long	0x421
 1532 041f 00       		.byte	0
 1533 0420 00       		.byte	0
 1534 0421 04       		.uleb128 0x4
 1535 0422 04       		.byte	0x4
 1536 0423 FE020000 		.long	0x2fe
 1537 0427 16       		.uleb128 0x16
 1538 0428 51030000 		.long	0x351
 1539 042c 03       		.byte	0x3
 1540 042d 35040000 		.long	0x435
 1541 0431 40040000 		.long	0x440
 1542 0435 17       		.uleb128 0x17
 1543 0436 74686973 		.ascii "this\0"
 1543      00
 1544 043b 40040000 		.long	0x440
 1545 043f 00       		.byte	0
 1546 0440 18       		.uleb128 0x18
 1547 0441 21040000 		.long	0x421
 1548 0445 16       		.uleb128 0x16
 1549 0446 7A030000 		.long	0x37a
 1550 044a 03       		.byte	0x3
 1551 044b 53040000 		.long	0x453
 1552 044f 5E040000 		.long	0x45e
 1553 0453 17       		.uleb128 0x17
 1554 0454 74686973 		.ascii "this\0"
 1554      00
 1555 0459 40040000 		.long	0x440
 1556 045d 00       		.byte	0
 1557 045e 16       		.uleb128 0x16
 1558 045f E9030000 		.long	0x3e9
 1559 0463 03       		.byte	0x3
 1560 0464 6C040000 		.long	0x46c
 1561 0468 77040000 		.long	0x477
 1562 046c 17       		.uleb128 0x17
 1563 046d 74686973 		.ascii "this\0"
 1563      00
 1564 0472 40040000 		.long	0x440
 1565 0476 00       		.byte	0
 1566 0477 19       		.uleb128 0x19
 1567 0478 66617273 		.ascii "farsh\0"
 1567      6800
 1568 047e 01       		.byte	0x1
 1569 047f 50       		.byte	0x50
 1570 0480 A6000000 		.long	0xa6
 1571 0484 01       		.byte	0x1
 1572 0485 A0040000 		.long	0x4a0
 1573 0489 1A       		.uleb128 0x1a
 1574 048a 18000000 		.secrel32	LASF1
 1575 048e 01       		.byte	0x1
 1576 048f 50       		.byte	0x50
 1577 0490 34020000 		.long	0x234
 1578 0494 1A       		.uleb128 0x1a
 1579 0495 12000000 		.secrel32	LASF2
 1580 0499 01       		.byte	0x1
 1581 049a 50       		.byte	0x50
 1582 049b CF000000 		.long	0xcf
 1583 049f 00       		.byte	0
 1584 04a0 16       		.uleb128 0x16
 1585 04a1 A1030000 		.long	0x3a1
 1586 04a5 03       		.byte	0x3
 1587 04a6 AE040000 		.long	0x4ae
 1588 04aa B9040000 		.long	0x4b9
 1589 04ae 17       		.uleb128 0x17
 1590 04af 74686973 		.ascii "this\0"
 1590      00
 1591 04b4 40040000 		.long	0x440
 1592 04b8 00       		.byte	0
 1593 04b9 1B       		.uleb128 0x1b
 1594 04ba 66617273 		.ascii "farsh_block\0"
 1594      685F626C 
 1594      6F636B00 
 1595 04c6 01       		.byte	0x1
 1596 04c7 25       		.byte	0x25
 1597 04c8 A6000000 		.long	0xa6
 1598 04cc 01       		.byte	0x1
 1599 04cd 31050000 		.long	0x531
 1600 04d1 1A       		.uleb128 0x1a
 1601 04d2 18000000 		.secrel32	LASF1
 1602 04d6 01       		.byte	0x1
 1603 04d7 25       		.byte	0x25
 1604 04d8 34020000 		.long	0x234
 1605 04dc 1A       		.uleb128 0x1a
 1606 04dd 12000000 		.secrel32	LASF2
 1607 04e1 01       		.byte	0x1
 1608 04e2 25       		.byte	0x25
 1609 04e3 CF000000 		.long	0xcf
 1610 04e7 1C       		.uleb128 0x1c
 1611 04e8 6B657900 		.ascii "key\0"
 1612 04ec 01       		.byte	0x1
 1613 04ed 25       		.byte	0x25
 1614 04ee 31050000 		.long	0x531
 1615 04f2 1D       		.uleb128 0x1d
 1616 04f3 1E       		.uleb128 0x1e
 1617 04f4 64617461 		.ascii "data\0"
 1617      00
 1618 04f9 01       		.byte	0x1
 1619 04fa 27       		.byte	0x27
 1620 04fb 31050000 		.long	0x531
 1621 04ff 1F       		.uleb128 0x1f
 1622 0500 09000000 		.secrel32	LASF3
 1623 0504 01       		.byte	0x1
 1624 0505 29       		.byte	0x29
 1625 0506 CF000000 		.long	0xcf
 1626 050a 1E       		.uleb128 0x1e
 1627 050b 65787472 		.ascii "extra_data\0"
 1627      615F6461 
 1627      746100
 1628 0516 01       		.byte	0x1
 1629 0517 2A       		.byte	0x2a
 1630 0518 3C050000 		.long	0x53c
 1631 051c 1E       		.uleb128 0x1e
 1632 051d 65787472 		.ascii "extra_bytes\0"
 1632      615F6279 
 1632      74657300 
 1633 0529 01       		.byte	0x1
 1634 052a 2B       		.byte	0x2b
 1635 052b CF000000 		.long	0xcf
 1636 052f 00       		.byte	0
 1637 0530 00       		.byte	0
 1638 0531 04       		.uleb128 0x4
 1639 0532 04       		.byte	0x4
 1640 0533 37050000 		.long	0x537
 1641 0537 18       		.uleb128 0x18
 1642 0538 A6000000 		.long	0xa6
 1643 053c 20       		.uleb128 0x20
 1644 053d A6000000 		.long	0xa6
 1645 0541 4C050000 		.long	0x54c
 1646 0545 21       		.uleb128 0x21
 1647 0546 17010000 		.long	0x117
 1648 054a 01       		.byte	0x1
 1649 054b 00       		.byte	0
 1650 054c 19       		.uleb128 0x19
 1651 054d 66617273 		.ascii "farsh_keyed\0"
 1651      685F6B65 
 1651      79656400 
 1652 0559 01       		.byte	0x1
 1653 055a 31       		.byte	0x31
 1654 055b A6000000 		.long	0xa6
 1655 055f 01       		.byte	0x1
 1656 0560 CE050000 		.long	0x5ce
 1657 0564 1A       		.uleb128 0x1a
 1658 0565 18000000 		.secrel32	LASF1
 1659 0569 01       		.byte	0x1
 1660 056a 31       		.byte	0x31
 1661 056b 34020000 		.long	0x234
 1662 056f 1A       		.uleb128 0x1a
 1663 0570 12000000 		.secrel32	LASF2
 1664 0574 01       		.byte	0x1
 1665 0575 31       		.byte	0x31
 1666 0576 CF000000 		.long	0xcf
 1667 057a 1C       		.uleb128 0x1c
 1668 057b 6B657900 		.ascii "key\0"
 1669 057f 01       		.byte	0x1
 1670 0580 31       		.byte	0x31
 1671 0581 31050000 		.long	0x531
 1672 0585 1D       		.uleb128 0x1d
 1673 0586 1E       		.uleb128 0x1e
 1674 0587 73756D00 		.ascii "sum\0"
 1675 058b 01       		.byte	0x1
 1676 058c 33       		.byte	0x33
 1677 058d 82000000 		.long	0x82
 1678 0591 1E       		.uleb128 0x1e
 1679 0592 6900     		.ascii "i\0"
 1680 0594 01       		.byte	0x1
 1681 0595 33       		.byte	0x33
 1682 0596 DD000000 		.long	0xdd
 1683 059a 1E       		.uleb128 0x1e
 1684 059b 64617461 		.ascii "data\0"
 1684      00
 1685 05a0 01       		.byte	0x1
 1686 05a1 34       		.byte	0x34
 1687 05a2 CE050000 		.long	0x5ce
 1688 05a6 1E       		.uleb128 0x1e
 1689 05a7 656E6400 		.ascii "end\0"
 1690 05ab 01       		.byte	0x1
 1691 05ac 34       		.byte	0x34
 1692 05ad CE050000 		.long	0x5ce
 1693 05b1 1D       		.uleb128 0x1d
 1694 05b2 1E       		.uleb128 0x1e
 1695 05b3 6D696E62 		.ascii "minbytes\0"
 1695      79746573 
 1695      00
 1696 05bc 01       		.byte	0x1
 1697 05bd 37       		.byte	0x37
 1698 05be CF000000 		.long	0xcf
 1699 05c2 1E       		.uleb128 0x1e
 1700 05c3 6800     		.ascii "h\0"
 1701 05c5 01       		.byte	0x1
 1702 05c6 38       		.byte	0x38
 1703 05c7 A6000000 		.long	0xa6
 1704 05cb 00       		.byte	0
 1705 05cc 00       		.byte	0
 1706 05cd 00       		.byte	0
 1707 05ce 04       		.uleb128 0x4
 1708 05cf 04       		.byte	0x4
 1709 05d0 D4050000 		.long	0x5d4
 1710 05d4 18       		.uleb128 0x18
 1711 05d5 C7000000 		.long	0xc7
 1712 05d9 1B       		.uleb128 0x1b
 1713 05da 66617273 		.ascii "farsh_fast\0"
 1713      685F6661 
 1713      737400
 1714 05e5 01       		.byte	0x1
 1715 05e6 0F       		.byte	0xf
 1716 05e7 A6000000 		.long	0xa6
 1717 05eb 01       		.byte	0x1
 1718 05ec 1E060000 		.long	0x61e
 1719 05f0 1C       		.uleb128 0x1c
 1720 05f1 64617461 		.ascii "data\0"
 1720      00
 1721 05f6 01       		.byte	0x1
 1722 05f7 0F       		.byte	0xf
 1723 05f8 31050000 		.long	0x531
 1724 05fc 1C       		.uleb128 0x1c
 1725 05fd 6B657900 		.ascii "key\0"
 1726 0601 01       		.byte	0x1
 1727 0602 0F       		.byte	0xf
 1728 0603 31050000 		.long	0x531
 1729 0607 1D       		.uleb128 0x1d
 1730 0608 1E       		.uleb128 0x1e
 1731 0609 73756D00 		.ascii "sum\0"
 1732 060d 01       		.byte	0x1
 1733 060e 11       		.byte	0x11
 1734 060f 82000000 		.long	0x82
 1735 0613 1E       		.uleb128 0x1e
 1736 0614 6900     		.ascii "i\0"
 1737 0616 01       		.byte	0x1
 1738 0617 11       		.byte	0x11
 1739 0618 DD000000 		.long	0xdd
 1740 061c 00       		.byte	0
 1741 061d 00       		.byte	0
 1742 061e 1B       		.uleb128 0x1b
 1743 061f 66617273 		.ascii "farsh_pairs\0"
 1743      685F7061 
 1743      69727300 
 1744 062b 01       		.byte	0x1
 1745 062c 19       		.byte	0x19
 1746 062d A6000000 		.long	0xa6
 1747 0631 01       		.byte	0x1
 1748 0632 7C060000 		.long	0x67c
 1749 0636 1C       		.uleb128 0x1c
 1750 0637 64617461 		.ascii "data\0"
 1750      00
 1751 063c 01       		.byte	0x1
 1752 063d 19       		.byte	0x19
 1753 063e 31050000 		.long	0x531
 1754 0642 1A       		.uleb128 0x1a
 1755 0643 09000000 		.secrel32	LASF3
 1756 0647 01       		.byte	0x1
 1757 0648 19       		.byte	0x19
 1758 0649 CF000000 		.long	0xcf
 1759 064d 1C       		.uleb128 0x1c
 1760 064e 65787472 		.ascii "extra\0"
 1760      6100
 1761 0654 01       		.byte	0x1
 1762 0655 19       		.byte	0x19
 1763 0656 31050000 		.long	0x531
 1764 065a 1C       		.uleb128 0x1c
 1765 065b 6B657900 		.ascii "key\0"
 1766 065f 01       		.byte	0x1
 1767 0660 19       		.byte	0x19
 1768 0661 31050000 		.long	0x531
 1769 0665 1D       		.uleb128 0x1d
 1770 0666 1E       		.uleb128 0x1e
 1771 0667 73756D00 		.ascii "sum\0"
 1772 066b 01       		.byte	0x1
 1773 066c 1B       		.byte	0x1b
 1774 066d 82000000 		.long	0x82
 1775 0671 1E       		.uleb128 0x1e
 1776 0672 6900     		.ascii "i\0"
 1777 0674 01       		.byte	0x1
 1778 0675 1B       		.byte	0x1b
 1779 0676 DD000000 		.long	0xdd
 1780 067a 00       		.byte	0
 1781 067b 00       		.byte	0
 1782 067c 22       		.uleb128 0x22
 1783 067d 4C050000 		.long	0x54c
 1784 0681 5F5A3131 		.ascii "_Z11farsh_keyedPKvjPKj\0"
 1784      66617273 
 1784      685F6B65 
 1784      79656450 
 1784      4B766A50 
 1785 0698 00000000 		.long	LFB518
 1786 069c 75020000 		.long	LFE518-LFB518
 1787 06a0 01       		.uleb128 0x1
 1788 06a1 9C       		.byte	0x9c
 1789 06a2 CA070000 		.long	0x7ca
 1790 06a6 23       		.uleb128 0x23
 1791 06a7 64050000 		.long	0x564
 1792 06ab 00000000 		.secrel32	LLST0
 1793 06af 23       		.uleb128 0x23
 1794 06b0 6F050000 		.long	0x56f
 1795 06b4 20000000 		.secrel32	LLST1
 1796 06b8 23       		.uleb128 0x23
 1797 06b9 7A050000 		.long	0x57a
 1798 06bd 40000000 		.secrel32	LLST2
 1799 06c1 24       		.uleb128 0x24
 1800 06c2 00000000 		.secrel32	Ldebug_ranges0+0
 1801 06c6 25       		.uleb128 0x25
 1802 06c7 86050000 		.long	0x586
 1803 06cb 60000000 		.secrel32	LLST3
 1804 06cf 25       		.uleb128 0x25
 1805 06d0 91050000 		.long	0x591
 1806 06d4 AA000000 		.secrel32	LLST4
 1807 06d8 25       		.uleb128 0x25
 1808 06d9 9A050000 		.long	0x59a
 1809 06dd FA000000 		.secrel32	LLST5
 1810 06e1 25       		.uleb128 0x25
 1811 06e2 A6050000 		.long	0x5a6
 1812 06e6 26010000 		.secrel32	LLST6
 1813 06ea 24       		.uleb128 0x24
 1814 06eb 28000000 		.secrel32	Ldebug_ranges0+0x28
 1815 06ef 25       		.uleb128 0x25
 1816 06f0 B2050000 		.long	0x5b2
 1817 06f4 5E010000 		.secrel32	LLST7
 1818 06f8 26       		.uleb128 0x26
 1819 06f9 C2050000 		.long	0x5c2
 1820 06fd 27       		.uleb128 0x27
 1821 06fe B9040000 		.long	0x4b9
 1822 0702 2D000000 		.long	LBB42
 1823 0706 40000000 		.secrel32	Ldebug_ranges0+0x40
 1824 070a 01       		.byte	0x1
 1825 070b 38       		.byte	0x38
 1826 070c 23       		.uleb128 0x23
 1827 070d E7040000 		.long	0x4e7
 1828 0711 80010000 		.secrel32	LLST8
 1829 0715 23       		.uleb128 0x23
 1830 0716 DC040000 		.long	0x4dc
 1831 071a 5E010000 		.secrel32	LLST7
 1832 071e 23       		.uleb128 0x23
 1833 071f D1040000 		.long	0x4d1
 1834 0723 9E010000 		.secrel32	LLST10
 1835 0727 24       		.uleb128 0x24
 1836 0728 40000000 		.secrel32	Ldebug_ranges0+0x40
 1837 072c 25       		.uleb128 0x25
 1838 072d F3040000 		.long	0x4f3
 1839 0731 9E010000 		.secrel32	LLST10
 1840 0735 26       		.uleb128 0x26
 1841 0736 FF040000 		.long	0x4ff
 1842 073a 28       		.uleb128 0x28
 1843 073b 0A050000 		.long	0x50a
 1844 073f 02       		.uleb128 0x2
 1845 0740 91       		.byte	0x91
 1846 0741 58       		.sleb128 -40
 1847 0742 25       		.uleb128 0x25
 1848 0743 1C050000 		.long	0x51c
 1849 0747 BE010000 		.secrel32	LLST12
 1850 074b 29       		.uleb128 0x29
 1851 074c 1E060000 		.long	0x61e
 1852 0750 09010000 		.long	LBB44
 1853 0754 58000000 		.secrel32	Ldebug_ranges0+0x58
 1854 0758 01       		.byte	0x1
 1855 0759 2D       		.byte	0x2d
 1856 075a 97070000 		.long	0x797
 1857 075e 23       		.uleb128 0x23
 1858 075f 5A060000 		.long	0x65a
 1859 0763 EB010000 		.secrel32	LLST13
 1860 0767 23       		.uleb128 0x23
 1861 0768 4D060000 		.long	0x64d
 1862 076c 09020000 		.secrel32	LLST14
 1863 0770 2A       		.uleb128 0x2a
 1864 0771 42060000 		.long	0x642
 1865 0775 23       		.uleb128 0x23
 1866 0776 36060000 		.long	0x636
 1867 077a 42020000 		.secrel32	LLST15
 1868 077e 24       		.uleb128 0x24
 1869 077f 58000000 		.secrel32	Ldebug_ranges0+0x58
 1870 0783 25       		.uleb128 0x25
 1871 0784 66060000 		.long	0x666
 1872 0788 62020000 		.secrel32	LLST16
 1873 078c 25       		.uleb128 0x25
 1874 078d 71060000 		.long	0x671
 1875 0791 D3020000 		.secrel32	LLST17
 1876 0795 00       		.byte	0
 1877 0796 00       		.byte	0
 1878 0797 2B       		.uleb128 0x2b
 1879 0798 D9050000 		.long	0x5d9
 1880 079c C0010000 		.long	LBB49
 1881 07a0 84000000 		.long	LBE49-LBB49
 1882 07a4 01       		.byte	0x1
 1883 07a5 28       		.byte	0x28
 1884 07a6 2A       		.uleb128 0x2a
 1885 07a7 FC050000 		.long	0x5fc
 1886 07ab 2A       		.uleb128 0x2a
 1887 07ac F0050000 		.long	0x5f0
 1888 07b0 2C       		.uleb128 0x2c
 1889 07b1 C0010000 		.long	LBB50
 1890 07b5 84000000 		.long	LBE50-LBB50
 1891 07b9 26       		.uleb128 0x26
 1892 07ba 08060000 		.long	0x608
 1893 07be 26       		.uleb128 0x26
 1894 07bf 13060000 		.long	0x613
 1895 07c3 00       		.byte	0
 1896 07c4 00       		.byte	0
 1897 07c5 00       		.byte	0
 1898 07c6 00       		.byte	0
 1899 07c7 00       		.byte	0
 1900 07c8 00       		.byte	0
 1901 07c9 00       		.byte	0
 1902 07ca 2D       		.uleb128 0x2d
 1903 07cb 66617273 		.ascii "farsh_keyed_n\0"
 1903      685F6B65 
 1903      7965645F 
 1903      6E00
 1904 07d9 01       		.byte	0x1
 1905 07da 42       		.byte	0x42
 1906 07db 01       		.byte	0x1
 1907 07dc 22080000 		.long	0x822
 1908 07e0 1A       		.uleb128 0x1a
 1909 07e1 18000000 		.secrel32	LASF1
 1910 07e5 01       		.byte	0x1
 1911 07e6 42       		.byte	0x42
 1912 07e7 34020000 		.long	0x234
 1913 07eb 1A       		.uleb128 0x1a
 1914 07ec 12000000 		.secrel32	LASF2
 1915 07f0 01       		.byte	0x1
 1916 07f1 42       		.byte	0x42
 1917 07f2 CF000000 		.long	0xcf
 1918 07f6 1C       		.uleb128 0x1c
 1919 07f7 6B657900 		.ascii "key\0"
 1920 07fb 01       		.byte	0x1
 1921 07fc 42       		.byte	0x42
 1922 07fd 31050000 		.long	0x531
 1923 0801 1C       		.uleb128 0x1c
 1924 0802 6E00     		.ascii "n\0"
 1925 0804 01       		.byte	0x1
 1926 0805 42       		.byte	0x42
 1927 0806 DD000000 		.long	0xdd
 1928 080a 1C       		.uleb128 0x1c
 1929 080b 68617368 		.ascii "hash\0"
 1929      00
 1930 0810 01       		.byte	0x1
 1931 0811 42       		.byte	0x42
 1932 0812 3B020000 		.long	0x23b
 1933 0816 1D       		.uleb128 0x1d
 1934 0817 1E       		.uleb128 0x1e
 1935 0818 6900     		.ascii "i\0"
 1936 081a 01       		.byte	0x1
 1937 081b 44       		.byte	0x44
 1938 081c DD000000 		.long	0xdd
 1939 0820 00       		.byte	0
 1940 0821 00       		.byte	0
 1941 0822 22       		.uleb128 0x22
 1942 0823 CA070000 		.long	0x7ca
 1943 0827 5F5A3133 		.ascii "_Z13farsh_keyed_nPKvjPKjiPj\0"
 1943      66617273 
 1943      685F6B65 
 1943      7965645F 
 1943      6E504B76 
 1944 0843 80020000 		.long	LFB519
 1945 0847 4B000000 		.long	LFE519-LFB519
 1946 084b 01       		.uleb128 0x1
 1947 084c 9C       		.byte	0x9c
 1948 084d A8080000 		.long	0x8a8
 1949 0851 2E       		.uleb128 0x2e
 1950 0852 E0070000 		.long	0x7e0
 1951 0856 02       		.uleb128 0x2
 1952 0857 91       		.byte	0x91
 1953 0858 00       		.sleb128 0
 1954 0859 2E       		.uleb128 0x2e
 1955 085a EB070000 		.long	0x7eb
 1956 085e 02       		.uleb128 0x2
 1957 085f 91       		.byte	0x91
 1958 0860 04       		.sleb128 4
 1959 0861 2E       		.uleb128 0x2e
 1960 0862 F6070000 		.long	0x7f6
 1961 0866 02       		.uleb128 0x2
 1962 0867 91       		.byte	0x91
 1963 0868 08       		.sleb128 8
 1964 0869 2E       		.uleb128 0x2e
 1965 086a 01080000 		.long	0x801
 1966 086e 02       		.uleb128 0x2
 1967 086f 91       		.byte	0x91
 1968 0870 0C       		.sleb128 12
 1969 0871 2E       		.uleb128 0x2e
 1970 0872 0A080000 		.long	0x80a
 1971 0876 02       		.uleb128 0x2
 1972 0877 91       		.byte	0x91
 1973 0878 10       		.sleb128 16
 1974 0879 24       		.uleb128 0x24
 1975 087a 78000000 		.secrel32	Ldebug_ranges0+0x78
 1976 087e 25       		.uleb128 0x25
 1977 087f 17080000 		.long	0x817
 1978 0883 09030000 		.secrel32	LLST18
 1979 0887 2F       		.uleb128 0x2f
 1980 0888 B3020000 		.long	LVL36
 1981 088c 4C050000 		.long	0x54c
 1982 0890 30       		.uleb128 0x30
 1983 0891 02       		.uleb128 0x2
 1984 0892 74       		.byte	0x74
 1985 0893 00       		.sleb128 0
 1986 0894 02       		.uleb128 0x2
 1987 0895 75       		.byte	0x75
 1988 0896 00       		.sleb128 0
 1989 0897 30       		.uleb128 0x30
 1990 0898 02       		.uleb128 0x2
 1991 0899 74       		.byte	0x74
 1992 089a 04       		.sleb128 4
 1993 089b 02       		.uleb128 0x2
 1994 089c 77       		.byte	0x77
 1995 089d 00       		.sleb128 0
 1996 089e 30       		.uleb128 0x30
 1997 089f 02       		.uleb128 0x2
 1998 08a0 74       		.byte	0x74
 1999 08a1 08       		.sleb128 8
 2000 08a2 02       		.uleb128 0x2
 2001 08a3 76       		.byte	0x76
 2002 08a4 7C       		.sleb128 -4
 2003 08a5 00       		.byte	0
 2004 08a6 00       		.byte	0
 2005 08a7 00       		.byte	0
 2006 08a8 31       		.uleb128 0x31
 2007 08a9 66617273 		.ascii "farsh_n\0"
 2007      685F6E00 
 2008 08b1 01       		.byte	0x1
 2009 08b2 4A       		.byte	0x4a
 2010 08b3 5F5A3766 		.ascii "_Z7farsh_nPKvjiPj\0"
 2010      61727368 
 2010      5F6E504B 
 2010      766A6950 
 2010      6A00
 2011 08c5 D0020000 		.long	LFB520
 2012 08c9 4B000000 		.long	LFE520-LFB520
 2013 08cd 01       		.uleb128 0x1
 2014 08ce 9C       		.byte	0x9c
 2015 08cf 78090000 		.long	0x978
 2016 08d3 32       		.uleb128 0x32
 2017 08d4 18000000 		.secrel32	LASF1
 2018 08d8 01       		.byte	0x1
 2019 08d9 4A       		.byte	0x4a
 2020 08da 34020000 		.long	0x234
 2021 08de 02       		.uleb128 0x2
 2022 08df 91       		.byte	0x91
 2023 08e0 00       		.sleb128 0
 2024 08e1 32       		.uleb128 0x32
 2025 08e2 12000000 		.secrel32	LASF2
 2026 08e6 01       		.byte	0x1
 2027 08e7 4A       		.byte	0x4a
 2028 08e8 CF000000 		.long	0xcf
 2029 08ec 02       		.uleb128 0x2
 2030 08ed 91       		.byte	0x91
 2031 08ee 04       		.sleb128 4
 2032 08ef 33       		.uleb128 0x33
 2033 08f0 6E00     		.ascii "n\0"
 2034 08f2 01       		.byte	0x1
 2035 08f3 4A       		.byte	0x4a
 2036 08f4 DD000000 		.long	0xdd
 2037 08f8 02       		.uleb128 0x2
 2038 08f9 91       		.byte	0x91
 2039 08fa 08       		.sleb128 8
 2040 08fb 33       		.uleb128 0x33
 2041 08fc 68617368 		.ascii "hash\0"
 2041      00
 2042 0901 01       		.byte	0x1
 2043 0902 4A       		.byte	0x4a
 2044 0903 3B020000 		.long	0x23b
 2045 0907 02       		.uleb128 0x2
 2046 0908 91       		.byte	0x91
 2047 0909 0C       		.sleb128 12
 2048 090a 27       		.uleb128 0x27
 2049 090b CA070000 		.long	0x7ca
 2050 090f D4020000 		.long	LBB65
 2051 0913 98000000 		.secrel32	Ldebug_ranges0+0x98
 2052 0917 01       		.byte	0x1
 2053 0918 4C       		.byte	0x4c
 2054 0919 2E       		.uleb128 0x2e
 2055 091a 0A080000 		.long	0x80a
 2056 091e 02       		.uleb128 0x2
 2057 091f 91       		.byte	0x91
 2058 0920 0C       		.sleb128 12
 2059 0921 23       		.uleb128 0x23
 2060 0922 01080000 		.long	0x801
 2061 0926 28030000 		.secrel32	LLST19
 2062 092a 2E       		.uleb128 0x2e
 2063 092b F6070000 		.long	0x7f6
 2064 092f 06       		.uleb128 0x6
 2065 0930 03       		.byte	0x3
 2066 0931 80000000 		.long	__ZL9farsh_key
 2067 0935 9F       		.byte	0x9f
 2068 0936 23       		.uleb128 0x23
 2069 0937 EB070000 		.long	0x7eb
 2070 093b 47030000 		.secrel32	LLST20
 2071 093f 23       		.uleb128 0x23
 2072 0940 E0070000 		.long	0x7e0
 2073 0944 66030000 		.secrel32	LLST21
 2074 0948 24       		.uleb128 0x24
 2075 0949 98000000 		.secrel32	Ldebug_ranges0+0x98
 2076 094d 25       		.uleb128 0x25
 2077 094e 17080000 		.long	0x817
 2078 0952 85030000 		.secrel32	LLST22
 2079 0956 2F       		.uleb128 0x2f
 2080 0957 03030000 		.long	LVL43
 2081 095b 4C050000 		.long	0x54c
 2082 095f 30       		.uleb128 0x30
 2083 0960 02       		.uleb128 0x2
 2084 0961 74       		.byte	0x74
 2085 0962 00       		.sleb128 0
 2086 0963 02       		.uleb128 0x2
 2087 0964 75       		.byte	0x75
 2088 0965 00       		.sleb128 0
 2089 0966 30       		.uleb128 0x30
 2090 0967 02       		.uleb128 0x2
 2091 0968 74       		.byte	0x74
 2092 0969 04       		.sleb128 4
 2093 096a 02       		.uleb128 0x2
 2094 096b 77       		.byte	0x77
 2095 096c 00       		.sleb128 0
 2096 096d 30       		.uleb128 0x30
 2097 096e 02       		.uleb128 0x2
 2098 096f 74       		.byte	0x74
 2099 0970 08       		.sleb128 8
 2100 0971 02       		.uleb128 0x2
 2101 0972 76       		.byte	0x76
 2102 0973 7C       		.sleb128 -4
 2103 0974 00       		.byte	0
 2104 0975 00       		.byte	0
 2105 0976 00       		.byte	0
 2106 0977 00       		.byte	0
 2107 0978 22       		.uleb128 0x22
 2108 0979 77040000 		.long	0x477
 2109 097d 5F5A3566 		.ascii "_Z5farshPKvj\0"
 2109      61727368 
 2109      504B766A 
 2109      00
 2110 098a 20030000 		.long	LFB521
 2111 098e 23000000 		.long	LFE521-LFB521
 2112 0992 01       		.uleb128 0x1
 2113 0993 9C       		.byte	0x9c
 2114 0994 CD090000 		.long	0x9cd
 2115 0998 2E       		.uleb128 0x2e
 2116 0999 89040000 		.long	0x489
 2117 099d 02       		.uleb128 0x2
 2118 099e 91       		.byte	0x91
 2119 099f 00       		.sleb128 0
 2120 09a0 2E       		.uleb128 0x2e
 2121 09a1 94040000 		.long	0x494
 2122 09a5 02       		.uleb128 0x2
 2123 09a6 91       		.byte	0x91
 2124 09a7 04       		.sleb128 4
 2125 09a8 2F       		.uleb128 0x2f
 2126 09a9 3F030000 		.long	LVL49
 2127 09ad 4C050000 		.long	0x54c
 2128 09b1 30       		.uleb128 0x30
 2129 09b2 02       		.uleb128 0x2
 2130 09b3 74       		.byte	0x74
 2131 09b4 00       		.sleb128 0
 2132 09b5 03       		.uleb128 0x3
 2133 09b6 91       		.byte	0x91
 2134 09b7 00       		.sleb128 0
 2135 09b8 06       		.byte	0x6
 2136 09b9 30       		.uleb128 0x30
 2137 09ba 02       		.uleb128 0x2
 2138 09bb 74       		.byte	0x74
 2139 09bc 04       		.sleb128 4
 2140 09bd 03       		.uleb128 0x3
 2141 09be 91       		.byte	0x91
 2142 09bf 04       		.sleb128 4
 2143 09c0 06       		.byte	0x6
 2144 09c1 30       		.uleb128 0x30
 2145 09c2 02       		.uleb128 0x2
 2146 09c3 74       		.byte	0x74
 2147 09c4 08       		.sleb128 8
 2148 09c5 05       		.uleb128 0x5
 2149 09c6 03       		.byte	0x3
 2150 09c7 80000000 		.long	__ZL9farsh_key
 2151 09cb 00       		.byte	0
 2152 09cc 00       		.byte	0
 2153 09cd 16       		.uleb128 0x16
 2154 09ce D2030000 		.long	0x3d2
 2155 09d2 02       		.byte	0x2
 2156 09d3 DB090000 		.long	0x9db
 2157 09d7 E6090000 		.long	0x9e6
 2158 09db 17       		.uleb128 0x17
 2159 09dc 74686973 		.ascii "this\0"
 2159      00
 2160 09e1 40040000 		.long	0x440
 2161 09e5 00       		.byte	0
 2162 09e6 34       		.uleb128 0x34
 2163 09e7 6D61696E 		.ascii "main\0"
 2163      00
 2164 09ec 02       		.byte	0x2
 2165 09ed 06       		.byte	0x6
 2166 09ee DD000000 		.long	0xdd
 2167 09f2 00000000 		.long	LFB522
 2168 09f6 D5010000 		.long	LFE522-LFB522
 2169 09fa 01       		.uleb128 0x1
 2170 09fb 9C       		.byte	0x9c
 2171 09fc C60C0000 		.long	0xcc6
 2172 0a00 24       		.uleb128 0x24
 2173 0a01 B8000000 		.secrel32	Ldebug_ranges0+0xb8
 2174 0a05 35       		.uleb128 0x35
 2175 0a06 44415441 		.ascii "DATASIZE\0"
 2175      53495A45 
 2175      00
 2176 0a0f 02       		.byte	0x2
 2177 0a10 08       		.byte	0x8
 2178 0a11 C60C0000 		.long	0xcc6
 2179 0a15 0070     		.word	0x7000
 2180 0a17 36       		.uleb128 0x36
 2181 0a18 44415441 		.ascii "DATASET\0"
 2181      53455400 
 2182 0a20 02       		.byte	0x2
 2183 0a21 09       		.byte	0x9
 2184 0a22 CB0C0000 		.long	0xccb
 2185 0a26 00000080 		.quad	0x280000000
 2185      02000000 
 2186 0a2e 37       		.uleb128 0x37
 2187 0a2f 7400     		.ascii "t\0"
 2188 0a31 02       		.byte	0x2
 2189 0a32 0B       		.byte	0xb
 2190 0a33 FE020000 		.long	0x2fe
 2191 0a37 02       		.uleb128 0x2
 2192 0a38 75       		.byte	0x75
 2193 0a39 48       		.sleb128 -56
 2194 0a3a 38       		.uleb128 0x38
 2195 0a3b 73706565 		.ascii "speed\0"
 2195      6400
 2196 0a41 02       		.byte	0x2
 2197 0a42 14       		.byte	0x14
 2198 0a43 9C000000 		.long	0x9c
 2199 0a47 A4030000 		.secrel32	LLST23
 2200 0a4b 29       		.uleb128 0x29
 2201 0a4c CD090000 		.long	0x9cd
 2202 0a50 11000000 		.long	LBB102
 2203 0a54 D0000000 		.secrel32	Ldebug_ranges0+0xd0
 2204 0a58 02       		.byte	0x2
 2205 0a59 0B       		.byte	0xb
 2206 0a5a E80A0000 		.long	0xae8
 2207 0a5e 23       		.uleb128 0x23
 2208 0a5f DB090000 		.long	0x9db
 2209 0a63 DD030000 		.secrel32	LLST24
 2210 0a67 29       		.uleb128 0x29
 2211 0a68 5E040000 		.long	0x45e
 2212 0a6c 3C000000 		.long	LBB104
 2213 0a70 F8000000 		.secrel32	Ldebug_ranges0+0xf8
 2214 0a74 03       		.byte	0x3
 2215 0a75 2E       		.byte	0x2e
 2216 0a76 DA0A0000 		.long	0xada
 2217 0a7a 23       		.uleb128 0x23
 2218 0a7b 6C040000 		.long	0x46c
 2219 0a7f 10040000 		.secrel32	LLST25
 2220 0a83 29       		.uleb128 0x29
 2221 0a84 27040000 		.long	0x427
 2222 0a88 3C000000 		.long	LBB106
 2223 0a8c 10010000 		.secrel32	Ldebug_ranges0+0x110
 2224 0a90 03       		.byte	0x3
 2225 0a91 36       		.byte	0x36
 2226 0a92 B00A0000 		.long	0xab0
 2227 0a96 23       		.uleb128 0x23
 2228 0a97 35040000 		.long	0x435
 2229 0a9b 10040000 		.secrel32	LLST25
 2230 0a9f 39       		.uleb128 0x39
 2231 0aa0 4E000000 		.long	LVL54
 2232 0aa4 02       		.uleb128 0x2
 2233 0aa5 77       		.byte	0x77
 2234 0aa6 00       		.sleb128 0
 2235 0aa7 30       		.uleb128 0x30
 2236 0aa8 02       		.uleb128 0x2
 2237 0aa9 74       		.byte	0x74
 2238 0aaa 00       		.sleb128 0
 2239 0aab 02       		.uleb128 0x2
 2240 0aac 73       		.byte	0x73
 2241 0aad 00       		.sleb128 0
 2242 0aae 00       		.byte	0
 2243 0aaf 00       		.byte	0
 2244 0ab0 27       		.uleb128 0x27
 2245 0ab1 45040000 		.long	0x445
 2246 0ab5 4E000000 		.long	LBB111
 2247 0ab9 30010000 		.secrel32	Ldebug_ranges0+0x130
 2248 0abd 03       		.byte	0x3
 2249 0abe 37       		.byte	0x37
 2250 0abf 23       		.uleb128 0x23
 2251 0ac0 53040000 		.long	0x453
 2252 0ac4 43040000 		.secrel32	LLST27
 2253 0ac8 39       		.uleb128 0x39
 2254 0ac9 5B000000 		.long	LVL56
 2255 0acd 02       		.uleb128 0x2
 2256 0ace 77       		.byte	0x77
 2257 0acf 00       		.sleb128 0
 2258 0ad0 30       		.uleb128 0x30
 2259 0ad1 02       		.uleb128 0x2
 2260 0ad2 74       		.byte	0x74
 2261 0ad3 00       		.sleb128 0
 2262 0ad4 02       		.uleb128 0x2
 2263 0ad5 75       		.byte	0x75
 2264 0ad6 50       		.sleb128 -48
 2265 0ad7 00       		.byte	0
 2266 0ad8 00       		.byte	0
 2267 0ad9 00       		.byte	0
 2268 0ada 3A       		.uleb128 0x3a
 2269 0adb 3C000000 		.long	LVL52
 2270 0adf 30       		.uleb128 0x30
 2271 0ae0 02       		.uleb128 0x2
 2272 0ae1 74       		.byte	0x74
 2273 0ae2 00       		.sleb128 0
 2274 0ae3 02       		.uleb128 0x2
 2275 0ae4 75       		.byte	0x75
 2276 0ae5 58       		.sleb128 -40
 2277 0ae6 00       		.byte	0
 2278 0ae7 00       		.byte	0
 2279 0ae8 29       		.uleb128 0x29
 2280 0ae9 27040000 		.long	0x427
 2281 0aed 6A000000 		.long	LBB124
 2282 0af1 50010000 		.secrel32	Ldebug_ranges0+0x150
 2283 0af5 02       		.byte	0x2
 2284 0af6 0B       		.byte	0xb
 2285 0af7 150B0000 		.long	0xb15
 2286 0afb 23       		.uleb128 0x23
 2287 0afc 35040000 		.long	0x435
 2288 0b00 76040000 		.secrel32	LLST28
 2289 0b04 39       		.uleb128 0x39
 2290 0b05 77000000 		.long	LVL58
 2291 0b09 02       		.uleb128 0x2
 2292 0b0a 77       		.byte	0x77
 2293 0b0b 00       		.sleb128 0
 2294 0b0c 30       		.uleb128 0x30
 2295 0b0d 02       		.uleb128 0x2
 2296 0b0e 74       		.byte	0x74
 2297 0b0f 00       		.sleb128 0
 2298 0b10 02       		.uleb128 0x2
 2299 0b11 73       		.byte	0x73
 2300 0b12 00       		.sleb128 0
 2301 0b13 00       		.byte	0
 2302 0b14 00       		.byte	0
 2303 0b15 3B       		.uleb128 0x3b
 2304 0b16 78010000 		.secrel32	Ldebug_ranges0+0x178
 2305 0b1a 4B0C0000 		.long	0xc4b
 2306 0b1e 38       		.uleb128 0x38
 2307 0b1f 6900     		.ascii "i\0"
 2308 0b21 02       		.byte	0x2
 2309 0b22 0D       		.byte	0xd
 2310 0b23 DD000000 		.long	0xdd
 2311 0b27 A9040000 		.secrel32	LLST29
 2312 0b2b 24       		.uleb128 0x24
 2313 0b2c 90010000 		.secrel32	Ldebug_ranges0+0x190
 2314 0b30 37       		.uleb128 0x37
 2315 0b31 64617461 		.ascii "data\0"
 2315      00
 2316 0b36 02       		.byte	0x2
 2317 0b37 0F       		.byte	0xf
 2318 0b38 D00C0000 		.long	0xcd0
 2319 0b3c 05       		.uleb128 0x5
 2320 0b3d 03       		.byte	0x3
 2321 0b3e 00000000 		.long	__ZZ4mainE4data
 2322 0b42 1E       		.uleb128 0x1e
 2323 0b43 6800     		.ascii "h\0"
 2324 0b45 02       		.byte	0x2
 2325 0b46 10       		.byte	0x10
 2326 0b47 A6000000 		.long	0xa6
 2327 0b4b 27       		.uleb128 0x27
 2328 0b4c 77040000 		.long	0x477
 2329 0b50 85000000 		.long	LBB135
 2330 0b54 A8010000 		.secrel32	Ldebug_ranges0+0x1a8
 2331 0b58 02       		.byte	0x2
 2332 0b59 10       		.byte	0x10
 2333 0b5a 3C       		.uleb128 0x3c
 2334 0b5b 94040000 		.long	0x494
 2335 0b5f 0070     		.word	0x7000
 2336 0b61 2E       		.uleb128 0x2e
 2337 0b62 89040000 		.long	0x489
 2338 0b66 06       		.uleb128 0x6
 2339 0b67 03       		.byte	0x3
 2340 0b68 00000000 		.long	__ZZ4mainE4data
 2341 0b6c 9F       		.byte	0x9f
 2342 0b6d 27       		.uleb128 0x27
 2343 0b6e 4C050000 		.long	0x54c
 2344 0b72 85000000 		.long	LBB136
 2345 0b76 A8010000 		.secrel32	Ldebug_ranges0+0x1a8
 2346 0b7a 01       		.byte	0x1
 2347 0b7b 52       		.byte	0x52
 2348 0b7c 2E       		.uleb128 0x2e
 2349 0b7d 64050000 		.long	0x564
 2350 0b81 06       		.uleb128 0x6
 2351 0b82 03       		.byte	0x3
 2352 0b83 00000000 		.long	__ZZ4mainE4data
 2353 0b87 9F       		.byte	0x9f
 2354 0b88 3C       		.uleb128 0x3c
 2355 0b89 6F050000 		.long	0x56f
 2356 0b8d 0070     		.word	0x7000
 2357 0b8f 2E       		.uleb128 0x2e
 2358 0b90 7A050000 		.long	0x57a
 2359 0b94 06       		.uleb128 0x6
 2360 0b95 03       		.byte	0x3
 2361 0b96 80000000 		.long	__ZL9farsh_key
 2362 0b9a 9F       		.byte	0x9f
 2363 0b9b 24       		.uleb128 0x24
 2364 0b9c A8010000 		.secrel32	Ldebug_ranges0+0x1a8
 2365 0ba0 25       		.uleb128 0x25
 2366 0ba1 86050000 		.long	0x586
 2367 0ba5 C9040000 		.secrel32	LLST30
 2368 0ba9 25       		.uleb128 0x25
 2369 0baa 91050000 		.long	0x591
 2370 0bae F1040000 		.secrel32	LLST31
 2371 0bb2 25       		.uleb128 0x25
 2372 0bb3 9A050000 		.long	0x59a
 2373 0bb7 04050000 		.secrel32	LLST32
 2374 0bbb 28       		.uleb128 0x28
 2375 0bbc A6050000 		.long	0x5a6
 2376 0bc0 06       		.uleb128 0x6
 2377 0bc1 03       		.byte	0x3
 2378 0bc2 00700000 		.long	__ZZ4mainE4data+28672
 2379 0bc6 9F       		.byte	0x9f
 2380 0bc7 2C       		.uleb128 0x2c
 2381 0bc8 A0000000 		.long	LBB138
 2382 0bcc A2000000 		.long	LBE138-LBB138
 2383 0bd0 26       		.uleb128 0x26
 2384 0bd1 B2050000 		.long	0x5b2
 2385 0bd5 26       		.uleb128 0x26
 2386 0bd6 C2050000 		.long	0x5c2
 2387 0bda 27       		.uleb128 0x27
 2388 0bdb B9040000 		.long	0x4b9
 2389 0bdf A0000000 		.long	LBB139
 2390 0be3 C0010000 		.secrel32	Ldebug_ranges0+0x1c0
 2391 0be7 01       		.byte	0x1
 2392 0be8 38       		.byte	0x38
 2393 0be9 2A       		.uleb128 0x2a
 2394 0bea DC040000 		.long	0x4dc
 2395 0bee 2A       		.uleb128 0x2a
 2396 0bef E7040000 		.long	0x4e7
 2397 0bf3 2A       		.uleb128 0x2a
 2398 0bf4 D1040000 		.long	0x4d1
 2399 0bf8 24       		.uleb128 0x24
 2400 0bf9 C0010000 		.secrel32	Ldebug_ranges0+0x1c0
 2401 0bfd 26       		.uleb128 0x26
 2402 0bfe F3040000 		.long	0x4f3
 2403 0c02 26       		.uleb128 0x26
 2404 0c03 FF040000 		.long	0x4ff
 2405 0c07 26       		.uleb128 0x26
 2406 0c08 0A050000 		.long	0x50a
 2407 0c0c 26       		.uleb128 0x26
 2408 0c0d 1C050000 		.long	0x51c
 2409 0c11 27       		.uleb128 0x27
 2410 0c12 D9050000 		.long	0x5d9
 2411 0c16 A0000000 		.long	LBB141
 2412 0c1a C0010000 		.secrel32	Ldebug_ranges0+0x1c0
 2413 0c1e 01       		.byte	0x1
 2414 0c1f 28       		.byte	0x28
 2415 0c20 2A       		.uleb128 0x2a
 2416 0c21 FC050000 		.long	0x5fc
 2417 0c25 2A       		.uleb128 0x2a
 2418 0c26 F0050000 		.long	0x5f0
 2419 0c2a 24       		.uleb128 0x24
 2420 0c2b C0010000 		.secrel32	Ldebug_ranges0+0x1c0
 2421 0c2f 25       		.uleb128 0x25
 2422 0c30 08060000 		.long	0x608
 2423 0c34 30050000 		.secrel32	LLST33
 2424 0c38 25       		.uleb128 0x25
 2425 0c39 13060000 		.long	0x613
 2426 0c3d 4C050000 		.secrel32	LLST34
 2427 0c41 00       		.byte	0
 2428 0c42 00       		.byte	0
 2429 0c43 00       		.byte	0
 2430 0c44 00       		.byte	0
 2431 0c45 00       		.byte	0
 2432 0c46 00       		.byte	0
 2433 0c47 00       		.byte	0
 2434 0c48 00       		.byte	0
 2435 0c49 00       		.byte	0
 2436 0c4a 00       		.byte	0
 2437 0c4b 29       		.uleb128 0x29
 2438 0c4c 45040000 		.long	0x445
 2439 0c50 65010000 		.long	LBB153
 2440 0c54 D8010000 		.secrel32	Ldebug_ranges0+0x1d8
 2441 0c58 02       		.byte	0x2
 2442 0c59 14       		.byte	0x14
 2443 0c5a 750C0000 		.long	0xc75
 2444 0c5e 23       		.uleb128 0x23
 2445 0c5f 53040000 		.long	0x453
 2446 0c63 60050000 		.secrel32	LLST35
 2447 0c67 3A       		.uleb128 0x3a
 2448 0c68 6E010000 		.long	LVL71
 2449 0c6c 30       		.uleb128 0x30
 2450 0c6d 02       		.uleb128 0x2
 2451 0c6e 74       		.byte	0x74
 2452 0c6f 00       		.sleb128 0
 2453 0c70 02       		.uleb128 0x2
 2454 0c71 75       		.byte	0x75
 2455 0c72 50       		.sleb128 -48
 2456 0c73 00       		.byte	0
 2457 0c74 00       		.byte	0
 2458 0c75 29       		.uleb128 0x29
 2459 0c76 A0040000 		.long	0x4a0
 2460 0c7a 6E010000 		.long	LBB156
 2461 0c7e F0010000 		.secrel32	Ldebug_ranges0+0x1f0
 2462 0c82 02       		.byte	0x2
 2463 0c83 14       		.byte	0x14
 2464 0c84 920C0000 		.long	0xc92
 2465 0c88 23       		.uleb128 0x23
 2466 0c89 AE040000 		.long	0x4ae
 2467 0c8d 88050000 		.secrel32	LLST36
 2468 0c91 00       		.byte	0
 2469 0c92 3D       		.uleb128 0x3d
 2470 0c93 30000000 		.long	LVL51
 2471 0c97 310D0000 		.long	0xd31
 2472 0c9b B00C0000 		.long	0xcb0
 2473 0c9f 30       		.uleb128 0x30
 2474 0ca0 02       		.uleb128 0x2
 2475 0ca1 74       		.byte	0x74
 2476 0ca2 00       		.sleb128 0
 2477 0ca3 05       		.uleb128 0x5
 2478 0ca4 03       		.byte	0x3
 2479 0ca5 00000000 		.long	LC0
 2480 0ca9 30       		.uleb128 0x30
 2481 0caa 02       		.uleb128 0x2
 2482 0cab 74       		.byte	0x74
 2483 0cac 04       		.sleb128 4
 2484 0cad 01       		.uleb128 0x1
 2485 0cae 3A       		.byte	0x3a
 2486 0caf 00       		.byte	0
 2487 0cb0 2F       		.uleb128 0x2f
 2488 0cb1 C7010000 		.long	LVL75
 2489 0cb5 310D0000 		.long	0xd31
 2490 0cb9 30       		.uleb128 0x30
 2491 0cba 02       		.uleb128 0x2
 2492 0cbb 74       		.byte	0x74
 2493 0cbc 00       		.sleb128 0
 2494 0cbd 05       		.uleb128 0x5
 2495 0cbe 03       		.byte	0x3
 2496 0cbf 10000000 		.long	LC5
 2497 0cc3 00       		.byte	0
 2498 0cc4 00       		.byte	0
 2499 0cc5 00       		.byte	0
 2500 0cc6 18       		.uleb128 0x18
 2501 0cc7 CF000000 		.long	0xcf
 2502 0ccb 18       		.uleb128 0x18
 2503 0ccc 0E020000 		.long	0x20e
 2504 0cd0 20       		.uleb128 0x20
 2505 0cd1 C7000000 		.long	0xc7
 2506 0cd5 E10C0000 		.long	0xce1
 2507 0cd9 3E       		.uleb128 0x3e
 2508 0cda 17010000 		.long	0x117
 2509 0cde FF6F     		.word	0x6fff
 2510 0ce0 00       		.byte	0
 2511 0ce1 20       		.uleb128 0x20
 2512 0ce2 49010000 		.long	0x149
 2513 0ce6 EC0C0000 		.long	0xcec
 2514 0cea 3F       		.uleb128 0x3f
 2515 0ceb 00       		.byte	0
 2516 0cec 40       		.uleb128 0x40
 2517 0ced 5F696D70 		.ascii "_imp___iob\0"
 2517      5F5F5F69 
 2517      6F6200
 2518 0cf8 04       		.byte	0x4
 2519 0cf9 5B       		.byte	0x5b
 2520 0cfa FE0C0000 		.long	0xcfe
 2521 0cfe 04       		.uleb128 0x4
 2522 0cff 04       		.byte	0x4
 2523 0d00 E10C0000 		.long	0xce1
 2524 0d04 20       		.uleb128 0x20
 2525 0d05 A6000000 		.long	0xa6
 2526 0d09 150D0000 		.long	0xd15
 2527 0d0d 3E       		.uleb128 0x3e
 2528 0d0e 17010000 		.long	0x117
 2529 0d12 1E01     		.word	0x11e
 2530 0d14 00       		.byte	0
 2531 0d15 37       		.uleb128 0x37
 2532 0d16 66617273 		.ascii "farsh_key\0"
 2532      685F6B65 
 2532      7900
 2533 0d20 01       		.byte	0x1
 2534 0d21 09       		.byte	0x9
 2535 0d22 2C0D0000 		.long	0xd2c
 2536 0d26 05       		.uleb128 0x5
 2537 0d27 03       		.byte	0x3
 2538 0d28 80000000 		.long	__ZL9farsh_key
 2539 0d2c 18       		.uleb128 0x18
 2540 0d2d 040D0000 		.long	0xd04
 2541 0d31 41       		.uleb128 0x41
 2542 0d32 7072696E 		.ascii "printf\0"
 2542      746600
 2543 0d39 04       		.byte	0x4
 2544 0d3a 7A01     		.word	0x17a
 2545 0d3c DD000000 		.long	0xdd
 2546 0d40 42       		.uleb128 0x42
 2547 0d41 CE050000 		.long	0x5ce
 2548 0d45 43       		.uleb128 0x43
 2549 0d46 00       		.byte	0
 2550 0d47 00       		.byte	0
 2551              		.section	.debug_abbrev,"dr"
 2552              	Ldebug_abbrev0:
 2553 0000 01       		.uleb128 0x1
 2554 0001 11       		.uleb128 0x11
 2555 0002 01       		.byte	0x1
 2556 0003 25       		.uleb128 0x25
 2557 0004 08       		.uleb128 0x8
 2558 0005 13       		.uleb128 0x13
 2559 0006 0B       		.uleb128 0xb
 2560 0007 03       		.uleb128 0x3
 2561 0008 08       		.uleb128 0x8
 2562 0009 1B       		.uleb128 0x1b
 2563 000a 08       		.uleb128 0x8
 2564 000b 55       		.uleb128 0x55
 2565 000c 17       		.uleb128 0x17
 2566 000d 11       		.uleb128 0x11
 2567 000e 01       		.uleb128 0x1
 2568 000f 10       		.uleb128 0x10
 2569 0010 17       		.uleb128 0x17
 2570 0011 00       		.byte	0
 2571 0012 00       		.byte	0
 2572 0013 02       		.uleb128 0x2
 2573 0014 24       		.uleb128 0x24
 2574 0015 00       		.byte	0
 2575 0016 0B       		.uleb128 0xb
 2576 0017 0B       		.uleb128 0xb
 2577 0018 3E       		.uleb128 0x3e
 2578 0019 0B       		.uleb128 0xb
 2579 001a 03       		.uleb128 0x3
 2580 001b 08       		.uleb128 0x8
 2581 001c 00       		.byte	0
 2582 001d 00       		.byte	0
 2583 001e 03       		.uleb128 0x3
 2584 001f 16       		.uleb128 0x16
 2585 0020 00       		.byte	0
 2586 0021 03       		.uleb128 0x3
 2587 0022 08       		.uleb128 0x8
 2588 0023 3A       		.uleb128 0x3a
 2589 0024 0B       		.uleb128 0xb
 2590 0025 3B       		.uleb128 0x3b
 2591 0026 0B       		.uleb128 0xb
 2592 0027 49       		.uleb128 0x49
 2593 0028 13       		.uleb128 0x13
 2594 0029 00       		.byte	0
 2595 002a 00       		.byte	0
 2596 002b 04       		.uleb128 0x4
 2597 002c 0F       		.uleb128 0xf
 2598 002d 00       		.byte	0
 2599 002e 0B       		.uleb128 0xb
 2600 002f 0B       		.uleb128 0xb
 2601 0030 49       		.uleb128 0x49
 2602 0031 13       		.uleb128 0x13
 2603 0032 00       		.byte	0
 2604 0033 00       		.byte	0
 2605 0034 05       		.uleb128 0x5
 2606 0035 13       		.uleb128 0x13
 2607 0036 01       		.byte	0x1
 2608 0037 03       		.uleb128 0x3
 2609 0038 08       		.uleb128 0x8
 2610 0039 0B       		.uleb128 0xb
 2611 003a 0B       		.uleb128 0xb
 2612 003b 3A       		.uleb128 0x3a
 2613 003c 0B       		.uleb128 0xb
 2614 003d 3B       		.uleb128 0x3b
 2615 003e 0B       		.uleb128 0xb
 2616 003f 01       		.uleb128 0x1
 2617 0040 13       		.uleb128 0x13
 2618 0041 00       		.byte	0
 2619 0042 00       		.byte	0
 2620 0043 06       		.uleb128 0x6
 2621 0044 0D       		.uleb128 0xd
 2622 0045 00       		.byte	0
 2623 0046 03       		.uleb128 0x3
 2624 0047 08       		.uleb128 0x8
 2625 0048 3A       		.uleb128 0x3a
 2626 0049 0B       		.uleb128 0xb
 2627 004a 3B       		.uleb128 0x3b
 2628 004b 0B       		.uleb128 0xb
 2629 004c 49       		.uleb128 0x49
 2630 004d 13       		.uleb128 0x13
 2631 004e 38       		.uleb128 0x38
 2632 004f 0B       		.uleb128 0xb
 2633 0050 00       		.byte	0
 2634 0051 00       		.byte	0
 2635 0052 07       		.uleb128 0x7
 2636 0053 3B       		.uleb128 0x3b
 2637 0054 00       		.byte	0
 2638 0055 03       		.uleb128 0x3
 2639 0056 08       		.uleb128 0x8
 2640 0057 00       		.byte	0
 2641 0058 00       		.byte	0
 2642 0059 08       		.uleb128 0x8
 2643 005a 26       		.uleb128 0x26
 2644 005b 00       		.byte	0
 2645 005c 00       		.byte	0
 2646 005d 00       		.byte	0
 2647 005e 09       		.uleb128 0x9
 2648 005f 16       		.uleb128 0x16
 2649 0060 00       		.byte	0
 2650 0061 03       		.uleb128 0x3
 2651 0062 08       		.uleb128 0x8
 2652 0063 3A       		.uleb128 0x3a
 2653 0064 0B       		.uleb128 0xb
 2654 0065 3B       		.uleb128 0x3b
 2655 0066 05       		.uleb128 0x5
 2656 0067 49       		.uleb128 0x49
 2657 0068 13       		.uleb128 0x13
 2658 0069 00       		.byte	0
 2659 006a 00       		.byte	0
 2660 006b 0A       		.uleb128 0xa
 2661 006c 17       		.uleb128 0x17
 2662 006d 01       		.byte	0x1
 2663 006e 03       		.uleb128 0x3
 2664 006f 08       		.uleb128 0x8
 2665 0070 0B       		.uleb128 0xb
 2666 0071 0B       		.uleb128 0xb
 2667 0072 3A       		.uleb128 0x3a
 2668 0073 0B       		.uleb128 0xb
 2669 0074 3B       		.uleb128 0x3b
 2670 0075 05       		.uleb128 0x5
 2671 0076 01       		.uleb128 0x1
 2672 0077 13       		.uleb128 0x13
 2673 0078 00       		.byte	0
 2674 0079 00       		.byte	0
 2675 007a 0B       		.uleb128 0xb
 2676 007b 13       		.uleb128 0x13
 2677 007c 01       		.byte	0x1
 2678 007d 0B       		.uleb128 0xb
 2679 007e 0B       		.uleb128 0xb
 2680 007f 3A       		.uleb128 0x3a
 2681 0080 0B       		.uleb128 0xb
 2682 0081 3B       		.uleb128 0x3b
 2683 0082 05       		.uleb128 0x5
 2684 0083 01       		.uleb128 0x1
 2685 0084 13       		.uleb128 0x13
 2686 0085 00       		.byte	0
 2687 0086 00       		.byte	0
 2688 0087 0C       		.uleb128 0xc
 2689 0088 0D       		.uleb128 0xd
 2690 0089 00       		.byte	0
 2691 008a 03       		.uleb128 0x3
 2692 008b 08       		.uleb128 0x8
 2693 008c 3A       		.uleb128 0x3a
 2694 008d 0B       		.uleb128 0xb
 2695 008e 3B       		.uleb128 0x3b
 2696 008f 05       		.uleb128 0x5
 2697 0090 49       		.uleb128 0x49
 2698 0091 13       		.uleb128 0x13
 2699 0092 38       		.uleb128 0x38
 2700 0093 0B       		.uleb128 0xb
 2701 0094 00       		.byte	0
 2702 0095 00       		.byte	0
 2703 0096 0D       		.uleb128 0xd
 2704 0097 0D       		.uleb128 0xd
 2705 0098 00       		.byte	0
 2706 0099 03       		.uleb128 0x3
 2707 009a 0E       		.uleb128 0xe
 2708 009b 3A       		.uleb128 0x3a
 2709 009c 0B       		.uleb128 0xb
 2710 009d 3B       		.uleb128 0x3b
 2711 009e 05       		.uleb128 0x5
 2712 009f 49       		.uleb128 0x49
 2713 00a0 13       		.uleb128 0x13
 2714 00a1 38       		.uleb128 0x38
 2715 00a2 0B       		.uleb128 0xb
 2716 00a3 00       		.byte	0
 2717 00a4 00       		.byte	0
 2718 00a5 0E       		.uleb128 0xe
 2719 00a6 0D       		.uleb128 0xd
 2720 00a7 00       		.byte	0
 2721 00a8 49       		.uleb128 0x49
 2722 00a9 13       		.uleb128 0x13
 2723 00aa 00       		.byte	0
 2724 00ab 00       		.byte	0
 2725 00ac 0F       		.uleb128 0xf
 2726 00ad 0D       		.uleb128 0xd
 2727 00ae 00       		.byte	0
 2728 00af 03       		.uleb128 0x3
 2729 00b0 08       		.uleb128 0x8
 2730 00b1 3A       		.uleb128 0x3a
 2731 00b2 0B       		.uleb128 0xb
 2732 00b3 3B       		.uleb128 0x3b
 2733 00b4 05       		.uleb128 0x5
 2734 00b5 49       		.uleb128 0x49
 2735 00b6 13       		.uleb128 0x13
 2736 00b7 00       		.byte	0
 2737 00b8 00       		.byte	0
 2738 00b9 10       		.uleb128 0x10
 2739 00ba 0D       		.uleb128 0xd
 2740 00bb 00       		.byte	0
 2741 00bc 03       		.uleb128 0x3
 2742 00bd 08       		.uleb128 0x8
 2743 00be 3A       		.uleb128 0x3a
 2744 00bf 0B       		.uleb128 0xb
 2745 00c0 3B       		.uleb128 0x3b
 2746 00c1 0B       		.uleb128 0xb
 2747 00c2 49       		.uleb128 0x49
 2748 00c3 13       		.uleb128 0x13
 2749 00c4 38       		.uleb128 0x38
 2750 00c5 0B       		.uleb128 0xb
 2751 00c6 32       		.uleb128 0x32
 2752 00c7 0B       		.uleb128 0xb
 2753 00c8 00       		.byte	0
 2754 00c9 00       		.byte	0
 2755 00ca 11       		.uleb128 0x11
 2756 00cb 2E       		.uleb128 0x2e
 2757 00cc 01       		.byte	0x1
 2758 00cd 3F       		.uleb128 0x3f
 2759 00ce 19       		.uleb128 0x19
 2760 00cf 03       		.uleb128 0x3
 2761 00d0 08       		.uleb128 0x8
 2762 00d1 3A       		.uleb128 0x3a
 2763 00d2 0B       		.uleb128 0xb
 2764 00d3 3B       		.uleb128 0x3b
 2765 00d4 0B       		.uleb128 0xb
 2766 00d5 6E       		.uleb128 0x6e
 2767 00d6 08       		.uleb128 0x8
 2768 00d7 3C       		.uleb128 0x3c
 2769 00d8 19       		.uleb128 0x19
 2770 00d9 64       		.uleb128 0x64
 2771 00da 13       		.uleb128 0x13
 2772 00db 01       		.uleb128 0x1
 2773 00dc 13       		.uleb128 0x13
 2774 00dd 00       		.byte	0
 2775 00de 00       		.byte	0
 2776 00df 12       		.uleb128 0x12
 2777 00e0 05       		.uleb128 0x5
 2778 00e1 00       		.byte	0
 2779 00e2 49       		.uleb128 0x49
 2780 00e3 13       		.uleb128 0x13
 2781 00e4 34       		.uleb128 0x34
 2782 00e5 19       		.uleb128 0x19
 2783 00e6 00       		.byte	0
 2784 00e7 00       		.byte	0
 2785 00e8 13       		.uleb128 0x13
 2786 00e9 2E       		.uleb128 0x2e
 2787 00ea 01       		.byte	0x1
 2788 00eb 3F       		.uleb128 0x3f
 2789 00ec 19       		.uleb128 0x19
 2790 00ed 03       		.uleb128 0x3
 2791 00ee 08       		.uleb128 0x8
 2792 00ef 3A       		.uleb128 0x3a
 2793 00f0 0B       		.uleb128 0xb
 2794 00f1 3B       		.uleb128 0x3b
 2795 00f2 0B       		.uleb128 0xb
 2796 00f3 6E       		.uleb128 0x6e
 2797 00f4 08       		.uleb128 0x8
 2798 00f5 49       		.uleb128 0x49
 2799 00f6 13       		.uleb128 0x13
 2800 00f7 3C       		.uleb128 0x3c
 2801 00f8 19       		.uleb128 0x19
 2802 00f9 64       		.uleb128 0x64
 2803 00fa 13       		.uleb128 0x13
 2804 00fb 01       		.uleb128 0x1
 2805 00fc 13       		.uleb128 0x13
 2806 00fd 00       		.byte	0
 2807 00fe 00       		.byte	0
 2808 00ff 14       		.uleb128 0x14
 2809 0100 2E       		.uleb128 0x2e
 2810 0101 01       		.byte	0x1
 2811 0102 3F       		.uleb128 0x3f
 2812 0103 19       		.uleb128 0x19
 2813 0104 03       		.uleb128 0x3
 2814 0105 08       		.uleb128 0x8
 2815 0106 3A       		.uleb128 0x3a
 2816 0107 0B       		.uleb128 0xb
 2817 0108 3B       		.uleb128 0x3b
 2818 0109 0B       		.uleb128 0xb
 2819 010a 3C       		.uleb128 0x3c
 2820 010b 19       		.uleb128 0x19
 2821 010c 64       		.uleb128 0x64
 2822 010d 13       		.uleb128 0x13
 2823 010e 01       		.uleb128 0x1
 2824 010f 13       		.uleb128 0x13
 2825 0110 00       		.byte	0
 2826 0111 00       		.byte	0
 2827 0112 15       		.uleb128 0x15
 2828 0113 2E       		.uleb128 0x2e
 2829 0114 01       		.byte	0x1
 2830 0115 3F       		.uleb128 0x3f
 2831 0116 19       		.uleb128 0x19
 2832 0117 03       		.uleb128 0x3
 2833 0118 08       		.uleb128 0x8
 2834 0119 3A       		.uleb128 0x3a
 2835 011a 0B       		.uleb128 0xb
 2836 011b 3B       		.uleb128 0x3b
 2837 011c 0B       		.uleb128 0xb
 2838 011d 6E       		.uleb128 0x6e
 2839 011e 08       		.uleb128 0x8
 2840 011f 49       		.uleb128 0x49
 2841 0120 13       		.uleb128 0x13
 2842 0121 32       		.uleb128 0x32
 2843 0122 0B       		.uleb128 0xb
 2844 0123 3C       		.uleb128 0x3c
 2845 0124 19       		.uleb128 0x19
 2846 0125 64       		.uleb128 0x64
 2847 0126 13       		.uleb128 0x13
 2848 0127 00       		.byte	0
 2849 0128 00       		.byte	0
 2850 0129 16       		.uleb128 0x16
 2851 012a 2E       		.uleb128 0x2e
 2852 012b 01       		.byte	0x1
 2853 012c 47       		.uleb128 0x47
 2854 012d 13       		.uleb128 0x13
 2855 012e 20       		.uleb128 0x20
 2856 012f 0B       		.uleb128 0xb
 2857 0130 64       		.uleb128 0x64
 2858 0131 13       		.uleb128 0x13
 2859 0132 01       		.uleb128 0x1
 2860 0133 13       		.uleb128 0x13
 2861 0134 00       		.byte	0
 2862 0135 00       		.byte	0
 2863 0136 17       		.uleb128 0x17
 2864 0137 05       		.uleb128 0x5
 2865 0138 00       		.byte	0
 2866 0139 03       		.uleb128 0x3
 2867 013a 08       		.uleb128 0x8
 2868 013b 49       		.uleb128 0x49
 2869 013c 13       		.uleb128 0x13
 2870 013d 34       		.uleb128 0x34
 2871 013e 19       		.uleb128 0x19
 2872 013f 00       		.byte	0
 2873 0140 00       		.byte	0
 2874 0141 18       		.uleb128 0x18
 2875 0142 26       		.uleb128 0x26
 2876 0143 00       		.byte	0
 2877 0144 49       		.uleb128 0x49
 2878 0145 13       		.uleb128 0x13
 2879 0146 00       		.byte	0
 2880 0147 00       		.byte	0
 2881 0148 19       		.uleb128 0x19
 2882 0149 2E       		.uleb128 0x2e
 2883 014a 01       		.byte	0x1
 2884 014b 3F       		.uleb128 0x3f
 2885 014c 19       		.uleb128 0x19
 2886 014d 03       		.uleb128 0x3
 2887 014e 08       		.uleb128 0x8
 2888 014f 3A       		.uleb128 0x3a
 2889 0150 0B       		.uleb128 0xb
 2890 0151 3B       		.uleb128 0x3b
 2891 0152 0B       		.uleb128 0xb
 2892 0153 49       		.uleb128 0x49
 2893 0154 13       		.uleb128 0x13
 2894 0155 20       		.uleb128 0x20
 2895 0156 0B       		.uleb128 0xb
 2896 0157 01       		.uleb128 0x1
 2897 0158 13       		.uleb128 0x13
 2898 0159 00       		.byte	0
 2899 015a 00       		.byte	0
 2900 015b 1A       		.uleb128 0x1a
 2901 015c 05       		.uleb128 0x5
 2902 015d 00       		.byte	0
 2903 015e 03       		.uleb128 0x3
 2904 015f 0E       		.uleb128 0xe
 2905 0160 3A       		.uleb128 0x3a
 2906 0161 0B       		.uleb128 0xb
 2907 0162 3B       		.uleb128 0x3b
 2908 0163 0B       		.uleb128 0xb
 2909 0164 49       		.uleb128 0x49
 2910 0165 13       		.uleb128 0x13
 2911 0166 00       		.byte	0
 2912 0167 00       		.byte	0
 2913 0168 1B       		.uleb128 0x1b
 2914 0169 2E       		.uleb128 0x2e
 2915 016a 01       		.byte	0x1
 2916 016b 03       		.uleb128 0x3
 2917 016c 08       		.uleb128 0x8
 2918 016d 3A       		.uleb128 0x3a
 2919 016e 0B       		.uleb128 0xb
 2920 016f 3B       		.uleb128 0x3b
 2921 0170 0B       		.uleb128 0xb
 2922 0171 49       		.uleb128 0x49
 2923 0172 13       		.uleb128 0x13
 2924 0173 20       		.uleb128 0x20
 2925 0174 0B       		.uleb128 0xb
 2926 0175 01       		.uleb128 0x1
 2927 0176 13       		.uleb128 0x13
 2928 0177 00       		.byte	0
 2929 0178 00       		.byte	0
 2930 0179 1C       		.uleb128 0x1c
 2931 017a 05       		.uleb128 0x5
 2932 017b 00       		.byte	0
 2933 017c 03       		.uleb128 0x3
 2934 017d 08       		.uleb128 0x8
 2935 017e 3A       		.uleb128 0x3a
 2936 017f 0B       		.uleb128 0xb
 2937 0180 3B       		.uleb128 0x3b
 2938 0181 0B       		.uleb128 0xb
 2939 0182 49       		.uleb128 0x49
 2940 0183 13       		.uleb128 0x13
 2941 0184 00       		.byte	0
 2942 0185 00       		.byte	0
 2943 0186 1D       		.uleb128 0x1d
 2944 0187 0B       		.uleb128 0xb
 2945 0188 01       		.byte	0x1
 2946 0189 00       		.byte	0
 2947 018a 00       		.byte	0
 2948 018b 1E       		.uleb128 0x1e
 2949 018c 34       		.uleb128 0x34
 2950 018d 00       		.byte	0
 2951 018e 03       		.uleb128 0x3
 2952 018f 08       		.uleb128 0x8
 2953 0190 3A       		.uleb128 0x3a
 2954 0191 0B       		.uleb128 0xb
 2955 0192 3B       		.uleb128 0x3b
 2956 0193 0B       		.uleb128 0xb
 2957 0194 49       		.uleb128 0x49
 2958 0195 13       		.uleb128 0x13
 2959 0196 00       		.byte	0
 2960 0197 00       		.byte	0
 2961 0198 1F       		.uleb128 0x1f
 2962 0199 34       		.uleb128 0x34
 2963 019a 00       		.byte	0
 2964 019b 03       		.uleb128 0x3
 2965 019c 0E       		.uleb128 0xe
 2966 019d 3A       		.uleb128 0x3a
 2967 019e 0B       		.uleb128 0xb
 2968 019f 3B       		.uleb128 0x3b
 2969 01a0 0B       		.uleb128 0xb
 2970 01a1 49       		.uleb128 0x49
 2971 01a2 13       		.uleb128 0x13
 2972 01a3 00       		.byte	0
 2973 01a4 00       		.byte	0
 2974 01a5 20       		.uleb128 0x20
 2975 01a6 01       		.uleb128 0x1
 2976 01a7 01       		.byte	0x1
 2977 01a8 49       		.uleb128 0x49
 2978 01a9 13       		.uleb128 0x13
 2979 01aa 01       		.uleb128 0x1
 2980 01ab 13       		.uleb128 0x13
 2981 01ac 00       		.byte	0
 2982 01ad 00       		.byte	0
 2983 01ae 21       		.uleb128 0x21
 2984 01af 21       		.uleb128 0x21
 2985 01b0 00       		.byte	0
 2986 01b1 49       		.uleb128 0x49
 2987 01b2 13       		.uleb128 0x13
 2988 01b3 2F       		.uleb128 0x2f
 2989 01b4 0B       		.uleb128 0xb
 2990 01b5 00       		.byte	0
 2991 01b6 00       		.byte	0
 2992 01b7 22       		.uleb128 0x22
 2993 01b8 2E       		.uleb128 0x2e
 2994 01b9 01       		.byte	0x1
 2995 01ba 31       		.uleb128 0x31
 2996 01bb 13       		.uleb128 0x13
 2997 01bc 6E       		.uleb128 0x6e
 2998 01bd 08       		.uleb128 0x8
 2999 01be 11       		.uleb128 0x11
 3000 01bf 01       		.uleb128 0x1
 3001 01c0 12       		.uleb128 0x12
 3002 01c1 06       		.uleb128 0x6
 3003 01c2 40       		.uleb128 0x40
 3004 01c3 18       		.uleb128 0x18
 3005 01c4 9742     		.uleb128 0x2117
 3006 01c6 19       		.uleb128 0x19
 3007 01c7 01       		.uleb128 0x1
 3008 01c8 13       		.uleb128 0x13
 3009 01c9 00       		.byte	0
 3010 01ca 00       		.byte	0
 3011 01cb 23       		.uleb128 0x23
 3012 01cc 05       		.uleb128 0x5
 3013 01cd 00       		.byte	0
 3014 01ce 31       		.uleb128 0x31
 3015 01cf 13       		.uleb128 0x13
 3016 01d0 02       		.uleb128 0x2
 3017 01d1 17       		.uleb128 0x17
 3018 01d2 00       		.byte	0
 3019 01d3 00       		.byte	0
 3020 01d4 24       		.uleb128 0x24
 3021 01d5 0B       		.uleb128 0xb
 3022 01d6 01       		.byte	0x1
 3023 01d7 55       		.uleb128 0x55
 3024 01d8 17       		.uleb128 0x17
 3025 01d9 00       		.byte	0
 3026 01da 00       		.byte	0
 3027 01db 25       		.uleb128 0x25
 3028 01dc 34       		.uleb128 0x34
 3029 01dd 00       		.byte	0
 3030 01de 31       		.uleb128 0x31
 3031 01df 13       		.uleb128 0x13
 3032 01e0 02       		.uleb128 0x2
 3033 01e1 17       		.uleb128 0x17
 3034 01e2 00       		.byte	0
 3035 01e3 00       		.byte	0
 3036 01e4 26       		.uleb128 0x26
 3037 01e5 34       		.uleb128 0x34
 3038 01e6 00       		.byte	0
 3039 01e7 31       		.uleb128 0x31
 3040 01e8 13       		.uleb128 0x13
 3041 01e9 00       		.byte	0
 3042 01ea 00       		.byte	0
 3043 01eb 27       		.uleb128 0x27
 3044 01ec 1D       		.uleb128 0x1d
 3045 01ed 01       		.byte	0x1
 3046 01ee 31       		.uleb128 0x31
 3047 01ef 13       		.uleb128 0x13
 3048 01f0 52       		.uleb128 0x52
 3049 01f1 01       		.uleb128 0x1
 3050 01f2 55       		.uleb128 0x55
 3051 01f3 17       		.uleb128 0x17
 3052 01f4 58       		.uleb128 0x58
 3053 01f5 0B       		.uleb128 0xb
 3054 01f6 59       		.uleb128 0x59
 3055 01f7 0B       		.uleb128 0xb
 3056 01f8 00       		.byte	0
 3057 01f9 00       		.byte	0
 3058 01fa 28       		.uleb128 0x28
 3059 01fb 34       		.uleb128 0x34
 3060 01fc 00       		.byte	0
 3061 01fd 31       		.uleb128 0x31
 3062 01fe 13       		.uleb128 0x13
 3063 01ff 02       		.uleb128 0x2
 3064 0200 18       		.uleb128 0x18
 3065 0201 00       		.byte	0
 3066 0202 00       		.byte	0
 3067 0203 29       		.uleb128 0x29
 3068 0204 1D       		.uleb128 0x1d
 3069 0205 01       		.byte	0x1
 3070 0206 31       		.uleb128 0x31
 3071 0207 13       		.uleb128 0x13
 3072 0208 52       		.uleb128 0x52
 3073 0209 01       		.uleb128 0x1
 3074 020a 55       		.uleb128 0x55
 3075 020b 17       		.uleb128 0x17
 3076 020c 58       		.uleb128 0x58
 3077 020d 0B       		.uleb128 0xb
 3078 020e 59       		.uleb128 0x59
 3079 020f 0B       		.uleb128 0xb
 3080 0210 01       		.uleb128 0x1
 3081 0211 13       		.uleb128 0x13
 3082 0212 00       		.byte	0
 3083 0213 00       		.byte	0
 3084 0214 2A       		.uleb128 0x2a
 3085 0215 05       		.uleb128 0x5
 3086 0216 00       		.byte	0
 3087 0217 31       		.uleb128 0x31
 3088 0218 13       		.uleb128 0x13
 3089 0219 00       		.byte	0
 3090 021a 00       		.byte	0
 3091 021b 2B       		.uleb128 0x2b
 3092 021c 1D       		.uleb128 0x1d
 3093 021d 01       		.byte	0x1
 3094 021e 31       		.uleb128 0x31
 3095 021f 13       		.uleb128 0x13
 3096 0220 11       		.uleb128 0x11
 3097 0221 01       		.uleb128 0x1
 3098 0222 12       		.uleb128 0x12
 3099 0223 06       		.uleb128 0x6
 3100 0224 58       		.uleb128 0x58
 3101 0225 0B       		.uleb128 0xb
 3102 0226 59       		.uleb128 0x59
 3103 0227 0B       		.uleb128 0xb
 3104 0228 00       		.byte	0
 3105 0229 00       		.byte	0
 3106 022a 2C       		.uleb128 0x2c
 3107 022b 0B       		.uleb128 0xb
 3108 022c 01       		.byte	0x1
 3109 022d 11       		.uleb128 0x11
 3110 022e 01       		.uleb128 0x1
 3111 022f 12       		.uleb128 0x12
 3112 0230 06       		.uleb128 0x6
 3113 0231 00       		.byte	0
 3114 0232 00       		.byte	0
 3115 0233 2D       		.uleb128 0x2d
 3116 0234 2E       		.uleb128 0x2e
 3117 0235 01       		.byte	0x1
 3118 0236 3F       		.uleb128 0x3f
 3119 0237 19       		.uleb128 0x19
 3120 0238 03       		.uleb128 0x3
 3121 0239 08       		.uleb128 0x8
 3122 023a 3A       		.uleb128 0x3a
 3123 023b 0B       		.uleb128 0xb
 3124 023c 3B       		.uleb128 0x3b
 3125 023d 0B       		.uleb128 0xb
 3126 023e 20       		.uleb128 0x20
 3127 023f 0B       		.uleb128 0xb
 3128 0240 01       		.uleb128 0x1
 3129 0241 13       		.uleb128 0x13
 3130 0242 00       		.byte	0
 3131 0243 00       		.byte	0
 3132 0244 2E       		.uleb128 0x2e
 3133 0245 05       		.uleb128 0x5
 3134 0246 00       		.byte	0
 3135 0247 31       		.uleb128 0x31
 3136 0248 13       		.uleb128 0x13
 3137 0249 02       		.uleb128 0x2
 3138 024a 18       		.uleb128 0x18
 3139 024b 00       		.byte	0
 3140 024c 00       		.byte	0
 3141 024d 2F       		.uleb128 0x2f
 3142 024e 898201   		.uleb128 0x4109
 3143 0251 01       		.byte	0x1
 3144 0252 11       		.uleb128 0x11
 3145 0253 01       		.uleb128 0x1
 3146 0254 31       		.uleb128 0x31
 3147 0255 13       		.uleb128 0x13
 3148 0256 00       		.byte	0
 3149 0257 00       		.byte	0
 3150 0258 30       		.uleb128 0x30
 3151 0259 8A8201   		.uleb128 0x410a
 3152 025c 00       		.byte	0
 3153 025d 02       		.uleb128 0x2
 3154 025e 18       		.uleb128 0x18
 3155 025f 9142     		.uleb128 0x2111
 3156 0261 18       		.uleb128 0x18
 3157 0262 00       		.byte	0
 3158 0263 00       		.byte	0
 3159 0264 31       		.uleb128 0x31
 3160 0265 2E       		.uleb128 0x2e
 3161 0266 01       		.byte	0x1
 3162 0267 3F       		.uleb128 0x3f
 3163 0268 19       		.uleb128 0x19
 3164 0269 03       		.uleb128 0x3
 3165 026a 08       		.uleb128 0x8
 3166 026b 3A       		.uleb128 0x3a
 3167 026c 0B       		.uleb128 0xb
 3168 026d 3B       		.uleb128 0x3b
 3169 026e 0B       		.uleb128 0xb
 3170 026f 6E       		.uleb128 0x6e
 3171 0270 08       		.uleb128 0x8
 3172 0271 11       		.uleb128 0x11
 3173 0272 01       		.uleb128 0x1
 3174 0273 12       		.uleb128 0x12
 3175 0274 06       		.uleb128 0x6
 3176 0275 40       		.uleb128 0x40
 3177 0276 18       		.uleb128 0x18
 3178 0277 9742     		.uleb128 0x2117
 3179 0279 19       		.uleb128 0x19
 3180 027a 01       		.uleb128 0x1
 3181 027b 13       		.uleb128 0x13
 3182 027c 00       		.byte	0
 3183 027d 00       		.byte	0
 3184 027e 32       		.uleb128 0x32
 3185 027f 05       		.uleb128 0x5
 3186 0280 00       		.byte	0
 3187 0281 03       		.uleb128 0x3
 3188 0282 0E       		.uleb128 0xe
 3189 0283 3A       		.uleb128 0x3a
 3190 0284 0B       		.uleb128 0xb
 3191 0285 3B       		.uleb128 0x3b
 3192 0286 0B       		.uleb128 0xb
 3193 0287 49       		.uleb128 0x49
 3194 0288 13       		.uleb128 0x13
 3195 0289 02       		.uleb128 0x2
 3196 028a 18       		.uleb128 0x18
 3197 028b 00       		.byte	0
 3198 028c 00       		.byte	0
 3199 028d 33       		.uleb128 0x33
 3200 028e 05       		.uleb128 0x5
 3201 028f 00       		.byte	0
 3202 0290 03       		.uleb128 0x3
 3203 0291 08       		.uleb128 0x8
 3204 0292 3A       		.uleb128 0x3a
 3205 0293 0B       		.uleb128 0xb
 3206 0294 3B       		.uleb128 0x3b
 3207 0295 0B       		.uleb128 0xb
 3208 0296 49       		.uleb128 0x49
 3209 0297 13       		.uleb128 0x13
 3210 0298 02       		.uleb128 0x2
 3211 0299 18       		.uleb128 0x18
 3212 029a 00       		.byte	0
 3213 029b 00       		.byte	0
 3214 029c 34       		.uleb128 0x34
 3215 029d 2E       		.uleb128 0x2e
 3216 029e 01       		.byte	0x1
 3217 029f 3F       		.uleb128 0x3f
 3218 02a0 19       		.uleb128 0x19
 3219 02a1 03       		.uleb128 0x3
 3220 02a2 08       		.uleb128 0x8
 3221 02a3 3A       		.uleb128 0x3a
 3222 02a4 0B       		.uleb128 0xb
 3223 02a5 3B       		.uleb128 0x3b
 3224 02a6 0B       		.uleb128 0xb
 3225 02a7 49       		.uleb128 0x49
 3226 02a8 13       		.uleb128 0x13
 3227 02a9 11       		.uleb128 0x11
 3228 02aa 01       		.uleb128 0x1
 3229 02ab 12       		.uleb128 0x12
 3230 02ac 06       		.uleb128 0x6
 3231 02ad 40       		.uleb128 0x40
 3232 02ae 18       		.uleb128 0x18
 3233 02af 9642     		.uleb128 0x2116
 3234 02b1 19       		.uleb128 0x19
 3235 02b2 01       		.uleb128 0x1
 3236 02b3 13       		.uleb128 0x13
 3237 02b4 00       		.byte	0
 3238 02b5 00       		.byte	0
 3239 02b6 35       		.uleb128 0x35
 3240 02b7 34       		.uleb128 0x34
 3241 02b8 00       		.byte	0
 3242 02b9 03       		.uleb128 0x3
 3243 02ba 08       		.uleb128 0x8
 3244 02bb 3A       		.uleb128 0x3a
 3245 02bc 0B       		.uleb128 0xb
 3246 02bd 3B       		.uleb128 0x3b
 3247 02be 0B       		.uleb128 0xb
 3248 02bf 49       		.uleb128 0x49
 3249 02c0 13       		.uleb128 0x13
 3250 02c1 1C       		.uleb128 0x1c
 3251 02c2 05       		.uleb128 0x5
 3252 02c3 00       		.byte	0
 3253 02c4 00       		.byte	0
 3254 02c5 36       		.uleb128 0x36
 3255 02c6 34       		.uleb128 0x34
 3256 02c7 00       		.byte	0
 3257 02c8 03       		.uleb128 0x3
 3258 02c9 08       		.uleb128 0x8
 3259 02ca 3A       		.uleb128 0x3a
 3260 02cb 0B       		.uleb128 0xb
 3261 02cc 3B       		.uleb128 0x3b
 3262 02cd 0B       		.uleb128 0xb
 3263 02ce 49       		.uleb128 0x49
 3264 02cf 13       		.uleb128 0x13
 3265 02d0 1C       		.uleb128 0x1c
 3266 02d1 07       		.uleb128 0x7
 3267 02d2 00       		.byte	0
 3268 02d3 00       		.byte	0
 3269 02d4 37       		.uleb128 0x37
 3270 02d5 34       		.uleb128 0x34
 3271 02d6 00       		.byte	0
 3272 02d7 03       		.uleb128 0x3
 3273 02d8 08       		.uleb128 0x8
 3274 02d9 3A       		.uleb128 0x3a
 3275 02da 0B       		.uleb128 0xb
 3276 02db 3B       		.uleb128 0x3b
 3277 02dc 0B       		.uleb128 0xb
 3278 02dd 49       		.uleb128 0x49
 3279 02de 13       		.uleb128 0x13
 3280 02df 02       		.uleb128 0x2
 3281 02e0 18       		.uleb128 0x18
 3282 02e1 00       		.byte	0
 3283 02e2 00       		.byte	0
 3284 02e3 38       		.uleb128 0x38
 3285 02e4 34       		.uleb128 0x34
 3286 02e5 00       		.byte	0
 3287 02e6 03       		.uleb128 0x3
 3288 02e7 08       		.uleb128 0x8
 3289 02e8 3A       		.uleb128 0x3a
 3290 02e9 0B       		.uleb128 0xb
 3291 02ea 3B       		.uleb128 0x3b
 3292 02eb 0B       		.uleb128 0xb
 3293 02ec 49       		.uleb128 0x49
 3294 02ed 13       		.uleb128 0x13
 3295 02ee 02       		.uleb128 0x2
 3296 02ef 17       		.uleb128 0x17
 3297 02f0 00       		.byte	0
 3298 02f1 00       		.byte	0
 3299 02f2 39       		.uleb128 0x39
 3300 02f3 898201   		.uleb128 0x4109
 3301 02f6 01       		.byte	0x1
 3302 02f7 11       		.uleb128 0x11
 3303 02f8 01       		.uleb128 0x1
 3304 02f9 9342     		.uleb128 0x2113
 3305 02fb 18       		.uleb128 0x18
 3306 02fc 00       		.byte	0
 3307 02fd 00       		.byte	0
 3308 02fe 3A       		.uleb128 0x3a
 3309 02ff 898201   		.uleb128 0x4109
 3310 0302 01       		.byte	0x1
 3311 0303 11       		.uleb128 0x11
 3312 0304 01       		.uleb128 0x1
 3313 0305 00       		.byte	0
 3314 0306 00       		.byte	0
 3315 0307 3B       		.uleb128 0x3b
 3316 0308 0B       		.uleb128 0xb
 3317 0309 01       		.byte	0x1
 3318 030a 55       		.uleb128 0x55
 3319 030b 17       		.uleb128 0x17
 3320 030c 01       		.uleb128 0x1
 3321 030d 13       		.uleb128 0x13
 3322 030e 00       		.byte	0
 3323 030f 00       		.byte	0
 3324 0310 3C       		.uleb128 0x3c
 3325 0311 05       		.uleb128 0x5
 3326 0312 00       		.byte	0
 3327 0313 31       		.uleb128 0x31
 3328 0314 13       		.uleb128 0x13
 3329 0315 1C       		.uleb128 0x1c
 3330 0316 05       		.uleb128 0x5
 3331 0317 00       		.byte	0
 3332 0318 00       		.byte	0
 3333 0319 3D       		.uleb128 0x3d
 3334 031a 898201   		.uleb128 0x4109
 3335 031d 01       		.byte	0x1
 3336 031e 11       		.uleb128 0x11
 3337 031f 01       		.uleb128 0x1
 3338 0320 31       		.uleb128 0x31
 3339 0321 13       		.uleb128 0x13
 3340 0322 01       		.uleb128 0x1
 3341 0323 13       		.uleb128 0x13
 3342 0324 00       		.byte	0
 3343 0325 00       		.byte	0
 3344 0326 3E       		.uleb128 0x3e
 3345 0327 21       		.uleb128 0x21
 3346 0328 00       		.byte	0
 3347 0329 49       		.uleb128 0x49
 3348 032a 13       		.uleb128 0x13
 3349 032b 2F       		.uleb128 0x2f
 3350 032c 05       		.uleb128 0x5
 3351 032d 00       		.byte	0
 3352 032e 00       		.byte	0
 3353 032f 3F       		.uleb128 0x3f
 3354 0330 21       		.uleb128 0x21
 3355 0331 00       		.byte	0
 3356 0332 00       		.byte	0
 3357 0333 00       		.byte	0
 3358 0334 40       		.uleb128 0x40
 3359 0335 34       		.uleb128 0x34
 3360 0336 00       		.byte	0
 3361 0337 03       		.uleb128 0x3
 3362 0338 08       		.uleb128 0x8
 3363 0339 3A       		.uleb128 0x3a
 3364 033a 0B       		.uleb128 0xb
 3365 033b 3B       		.uleb128 0x3b
 3366 033c 0B       		.uleb128 0xb
 3367 033d 49       		.uleb128 0x49
 3368 033e 13       		.uleb128 0x13
 3369 033f 3F       		.uleb128 0x3f
 3370 0340 19       		.uleb128 0x19
 3371 0341 3C       		.uleb128 0x3c
 3372 0342 19       		.uleb128 0x19
 3373 0343 00       		.byte	0
 3374 0344 00       		.byte	0
 3375 0345 41       		.uleb128 0x41
 3376 0346 2E       		.uleb128 0x2e
 3377 0347 01       		.byte	0x1
 3378 0348 3F       		.uleb128 0x3f
 3379 0349 19       		.uleb128 0x19
 3380 034a 03       		.uleb128 0x3
 3381 034b 08       		.uleb128 0x8
 3382 034c 3A       		.uleb128 0x3a
 3383 034d 0B       		.uleb128 0xb
 3384 034e 3B       		.uleb128 0x3b
 3385 034f 05       		.uleb128 0x5
 3386 0350 49       		.uleb128 0x49
 3387 0351 13       		.uleb128 0x13
 3388 0352 3C       		.uleb128 0x3c
 3389 0353 19       		.uleb128 0x19
 3390 0354 00       		.byte	0
 3391 0355 00       		.byte	0
 3392 0356 42       		.uleb128 0x42
 3393 0357 05       		.uleb128 0x5
 3394 0358 00       		.byte	0
 3395 0359 49       		.uleb128 0x49
 3396 035a 13       		.uleb128 0x13
 3397 035b 00       		.byte	0
 3398 035c 00       		.byte	0
 3399 035d 43       		.uleb128 0x43
 3400 035e 18       		.uleb128 0x18
 3401 035f 00       		.byte	0
 3402 0360 00       		.byte	0
 3403 0361 00       		.byte	0
 3404 0362 00       		.byte	0
 3405              		.section	.debug_loc,"dr"
 3406              	Ldebug_loc0:
 3407              	LLST0:
 3408 0000 00000000 		.long	LVL0
 3409 0004 96000000 		.long	LVL4
 3410 0008 0200     		.word	0x2
 3411 000a 91       		.byte	0x91
 3412 000b 00       		.sleb128 0
 3413 000c 6B020000 		.long	LVL32
 3414 0010 75020000 		.long	LFE518
 3415 0014 0200     		.word	0x2
 3416 0016 91       		.byte	0x91
 3417 0017 00       		.sleb128 0
 3418 0018 00000000 		.long	0
 3419 001c 00000000 		.long	0
 3420              	LLST1:
 3421 0020 00000000 		.long	LVL0
 3422 0024 96000000 		.long	LVL4
 3423 0028 0200     		.word	0x2
 3424 002a 91       		.byte	0x91
 3425 002b 04       		.sleb128 4
 3426 002c 6B020000 		.long	LVL32
 3427 0030 75020000 		.long	LFE518
 3428 0034 0200     		.word	0x2
 3429 0036 91       		.byte	0x91
 3430 0037 04       		.sleb128 4
 3431 0038 00000000 		.long	0
 3432 003c 00000000 		.long	0
 3433              	LLST2:
 3434 0040 00000000 		.long	LVL0
 3435 0044 96000000 		.long	LVL4
 3436 0048 0200     		.word	0x2
 3437 004a 91       		.byte	0x91
 3438 004b 08       		.sleb128 8
 3439 004c 6B020000 		.long	LVL32
 3440 0050 75020000 		.long	LFE518
 3441 0054 0200     		.word	0x2
 3442 0056 91       		.byte	0x91
 3443 0057 08       		.sleb128 8
 3444 0058 00000000 		.long	0
 3445 005c 00000000 		.long	0
 3446              	LLST3:
 3447 0060 00000000 		.long	LVL0
 3448 0064 96000000 		.long	LVL4
 3449 0068 0A00     		.word	0xa
 3450 006a 9E       		.byte	0x9e
 3451 006b 08       		.uleb128 0x8
 3452 006c 00000000 		.quad	0
 3452      00000000 
 3453 0074 96000000 		.long	LVL4
 3454 0078 E9000000 		.long	LVL8
 3455 007c 0300     		.word	0x3
 3456 007e 91       		.byte	0x91
 3457 007f A87F     		.sleb128 -88
 3458 0081 83010000 		.long	LVL22
 3459 0085 44020000 		.long	LVL29
 3460 0089 0300     		.word	0x3
 3461 008b 91       		.byte	0x91
 3462 008c A87F     		.sleb128 -88
 3463 008e 6B020000 		.long	LVL32
 3464 0092 75020000 		.long	LFE518
 3465 0096 0A00     		.word	0xa
 3466 0098 9E       		.byte	0x9e
 3467 0099 08       		.uleb128 0x8
 3468 009a 00000000 		.quad	0
 3468      00000000 
 3469 00a2 00000000 		.long	0
 3470 00a6 00000000 		.long	0
 3471              	LLST4:
 3472 00aa 00000000 		.long	LVL0
 3473 00ae 96000000 		.long	LVL4
 3474 00b2 0200     		.word	0x2
 3475 00b4 30       		.byte	0x30
 3476 00b5 9F       		.byte	0x9f
 3477 00b6 96000000 		.long	LVL4
 3478 00ba E9000000 		.long	LVL8
 3479 00be 0300     		.word	0x3
 3480 00c0 91       		.byte	0x91
 3481 00c1 9C7F     		.sleb128 -100
 3482 00c3 86010000 		.long	LVL23
 3483 00c7 93010000 		.long	LVL24
 3484 00cb 0100     		.word	0x1
 3485 00cd 57       		.byte	0x57
 3486 00ce 93010000 		.long	LVL24
 3487 00d2 97010000 		.long	LVL25
 3488 00d6 0100     		.word	0x1
 3489 00d8 50       		.byte	0x50
 3490 00d9 97010000 		.long	LVL25
 3491 00dd 44020000 		.long	LVL29
 3492 00e1 0300     		.word	0x3
 3493 00e3 91       		.byte	0x91
 3494 00e4 9C7F     		.sleb128 -100
 3495 00e6 6B020000 		.long	LVL32
 3496 00ea 75020000 		.long	LFE518
 3497 00ee 0200     		.word	0x2
 3498 00f0 30       		.byte	0x30
 3499 00f1 9F       		.byte	0x9f
 3500 00f2 00000000 		.long	0
 3501 00f6 00000000 		.long	0
 3502              	LLST5:
 3503 00fa 07000000 		.long	LVL1
 3504 00fe E9000000 		.long	LVL8
 3505 0102 0200     		.word	0x2
 3506 0104 91       		.byte	0x91
 3507 0105 00       		.sleb128 0
 3508 0106 73010000 		.long	LVL21
 3509 010a 44020000 		.long	LVL29
 3510 010e 0200     		.word	0x2
 3511 0110 91       		.byte	0x91
 3512 0111 00       		.sleb128 0
 3513 0112 6B020000 		.long	LVL32
 3514 0116 75020000 		.long	LFE518
 3515 011a 0200     		.word	0x2
 3516 011c 91       		.byte	0x91
 3517 011d 00       		.sleb128 0
 3518 011e 00000000 		.long	0
 3519 0122 00000000 		.long	0
 3520              	LLST6:
 3521 0126 1D000000 		.long	LVL2
 3522 012a 5D000000 		.long	LVL3
 3523 012e 0100     		.word	0x1
 3524 0130 56       		.byte	0x56
 3525 0131 5D000000 		.long	LVL3
 3526 0135 96000000 		.long	LVL4
 3527 0139 0300     		.word	0x3
 3528 013b 91       		.byte	0x91
 3529 013c B47F     		.sleb128 -76
 3530 013e 6B020000 		.long	LVL32
 3531 0142 72020000 		.long	LVL33
 3532 0146 0100     		.word	0x1
 3533 0148 56       		.byte	0x56
 3534 0149 72020000 		.long	LVL33
 3535 014d 75020000 		.long	LFE518
 3536 0151 0300     		.word	0x3
 3537 0153 91       		.byte	0x91
 3538 0154 B47F     		.sleb128 -76
 3539 0156 00000000 		.long	0
 3540 015a 00000000 		.long	0
 3541              	LLST7:
 3542 015e 96000000 		.long	LVL4
 3543 0162 E9000000 		.long	LVL8
 3544 0166 0300     		.word	0x3
 3545 0168 91       		.byte	0x91
 3546 0169 A07F     		.sleb128 -96
 3547 016b AD010000 		.long	LVL27
 3548 016f 44020000 		.long	LVL29
 3549 0173 0300     		.word	0x3
 3550 0175 91       		.byte	0x91
 3551 0176 A07F     		.sleb128 -96
 3552 0178 00000000 		.long	0
 3553 017c 00000000 		.long	0
 3554              	LLST8:
 3555 0180 96000000 		.long	LVL4
 3556 0184 A9010000 		.long	LVL26
 3557 0188 0100     		.word	0x1
 3558 018a 53       		.byte	0x53
 3559 018b AD010000 		.long	LVL27
 3560 018f 6B020000 		.long	LVL32
 3561 0193 0100     		.word	0x1
 3562 0195 53       		.byte	0x53
 3563 0196 00000000 		.long	0
 3564 019a 00000000 		.long	0
 3565              	LLST10:
 3566 019e 96000000 		.long	LVL4
 3567 01a2 E9000000 		.long	LVL8
 3568 01a6 0200     		.word	0x2
 3569 01a8 91       		.byte	0x91
 3570 01a9 00       		.sleb128 0
 3571 01aa AD010000 		.long	LVL27
 3572 01ae 44020000 		.long	LVL29
 3573 01b2 0200     		.word	0x2
 3574 01b4 91       		.byte	0x91
 3575 01b5 00       		.sleb128 0
 3576 01b6 00000000 		.long	0
 3577 01ba 00000000 		.long	0
 3578              	LLST12:
 3579 01be CA000000 		.long	LVL6
 3580 01c2 CC000000 		.long	LVL7
 3581 01c6 0800     		.word	0x8
 3582 01c8 91       		.byte	0x91
 3583 01c9 A07F     		.sleb128 -96
 3584 01cb 06       		.byte	0x6
 3585 01cc 76       		.byte	0x76
 3586 01cd 00       		.sleb128 0
 3587 01ce 1C       		.byte	0x1c
 3588 01cf 9F       		.byte	0x9f
 3589 01d0 CC000000 		.long	LVL7
 3590 01d4 E9000000 		.long	LVL8
 3591 01d8 0900     		.word	0x9
 3592 01da 91       		.byte	0x91
 3593 01db A07F     		.sleb128 -96
 3594 01dd 06       		.byte	0x6
 3595 01de 91       		.byte	0x91
 3596 01df 40       		.sleb128 -64
 3597 01e0 06       		.byte	0x6
 3598 01e1 1C       		.byte	0x1c
 3599 01e2 9F       		.byte	0x9f
 3600 01e3 00000000 		.long	0
 3601 01e7 00000000 		.long	0
 3602              	LLST13:
 3603 01eb 09010000 		.long	LVL9
 3604 01ef 67010000 		.long	LVL20
 3605 01f3 0100     		.word	0x1
 3606 01f5 53       		.byte	0x53
 3607 01f6 44020000 		.long	LVL29
 3608 01fa 6B020000 		.long	LVL32
 3609 01fe 0100     		.word	0x1
 3610 0200 53       		.byte	0x53
 3611 0201 00000000 		.long	0
 3612 0205 00000000 		.long	0
 3613              	LLST14:
 3614 0209 09010000 		.long	LVL9
 3615 020d 15010000 		.long	LVL10
 3616 0211 0300     		.word	0x3
 3617 0213 91       		.byte	0x91
 3618 0214 58       		.sleb128 -40
 3619 0215 9F       		.byte	0x9f
 3620 0216 44020000 		.long	LVL29
 3621 021a 57020000 		.long	LVL30
 3622 021e 0200     		.word	0x2
 3623 0220 30       		.byte	0x30
 3624 0221 9F       		.byte	0x9f
 3625 0222 57020000 		.long	LVL30
 3626 0226 66020000 		.long	LVL31
 3627 022a 0300     		.word	0x3
 3628 022c 91       		.byte	0x91
 3629 022d 58       		.sleb128 -40
 3630 022e 9F       		.byte	0x9f
 3631 022f 66020000 		.long	LVL31
 3632 0233 6B020000 		.long	LVL32
 3633 0237 0100     		.word	0x1
 3634 0239 51       		.byte	0x51
 3635 023a 00000000 		.long	0
 3636 023e 00000000 		.long	0
 3637              	LLST15:
 3638 0242 09010000 		.long	LVL9
 3639 0246 67010000 		.long	LVL20
 3640 024a 0200     		.word	0x2
 3641 024c 91       		.byte	0x91
 3642 024d 00       		.sleb128 0
 3643 024e 44020000 		.long	LVL29
 3644 0252 6B020000 		.long	LVL32
 3645 0256 0200     		.word	0x2
 3646 0258 91       		.byte	0x91
 3647 0259 00       		.sleb128 0
 3648 025a 00000000 		.long	0
 3649 025e 00000000 		.long	0
 3650              	LLST16:
 3651 0262 09010000 		.long	LVL9
 3652 0266 21010000 		.long	LVL11
 3653 026a 0A00     		.word	0xa
 3654 026c 9E       		.byte	0x9e
 3655 026d 08       		.uleb128 0x8
 3656 026e 00000000 		.quad	0
 3656      00000000 
 3657 0276 21010000 		.long	LVL11
 3658 027a 32010000 		.long	LVL12
 3659 027e 0600     		.word	0x6
 3660 0280 56       		.byte	0x56
 3661 0281 93       		.byte	0x93
 3662 0282 04       		.uleb128 0x4
 3663 0283 57       		.byte	0x57
 3664 0284 93       		.byte	0x93
 3665 0285 04       		.uleb128 0x4
 3666 0286 34010000 		.long	LVL13
 3667 028a 52010000 		.long	LVL17
 3668 028e 0600     		.word	0x6
 3669 0290 56       		.byte	0x56
 3670 0291 93       		.byte	0x93
 3671 0292 04       		.uleb128 0x4
 3672 0293 57       		.byte	0x57
 3673 0294 93       		.byte	0x93
 3674 0295 04       		.uleb128 0x4
 3675 0296 5F010000 		.long	LVL18
 3676 029a 61010000 		.long	LVL19
 3677 029e 1700     		.word	0x17
 3678 02a0 72       		.byte	0x72
 3679 02a1 00       		.sleb128 0
 3680 02a2 F7       		.byte	0xf7
 3681 02a3 A601     		.uleb128 0xa6
 3682 02a5 F7       		.byte	0xf7
 3683 02a6 8201     		.uleb128 0x82
 3684 02a8 70       		.byte	0x70
 3685 02a9 00       		.sleb128 0
 3686 02aa F7       		.byte	0xf7
 3687 02ab A601     		.uleb128 0xa6
 3688 02ad F7       		.byte	0xf7
 3689 02ae 8201     		.uleb128 0x82
 3690 02b0 1E       		.byte	0x1e
 3691 02b1 F5       		.byte	0xf5
 3692 02b2 06       		.uleb128 0x6
 3693 02b3 8201     		.uleb128 0x82
 3694 02b5 22       		.byte	0x22
 3695 02b6 9F       		.byte	0x9f
 3696 02b7 44020000 		.long	LVL29
 3697 02bb 6B020000 		.long	LVL32
 3698 02bf 0A00     		.word	0xa
 3699 02c1 9E       		.byte	0x9e
 3700 02c2 08       		.uleb128 0x8
 3701 02c3 00000000 		.quad	0
 3701      00000000 
 3702 02cb 00000000 		.long	0
 3703 02cf 00000000 		.long	0
 3704              	LLST17:
 3705 02d3 09010000 		.long	LVL9
 3706 02d7 21010000 		.long	LVL11
 3707 02db 0200     		.word	0x2
 3708 02dd 30       		.byte	0x30
 3709 02de 9F       		.byte	0x9f
 3710 02df 21010000 		.long	LVL11
 3711 02e3 46010000 		.long	LVL15
 3712 02e7 0100     		.word	0x1
 3713 02e9 51       		.byte	0x51
 3714 02ea 46010000 		.long	LVL15
 3715 02ee 4B010000 		.long	LVL16
 3716 02f2 0100     		.word	0x1
 3717 02f4 50       		.byte	0x50
 3718 02f5 44020000 		.long	LVL29
 3719 02f9 6B020000 		.long	LVL32
 3720 02fd 0200     		.word	0x2
 3721 02ff 30       		.byte	0x30
 3722 0300 9F       		.byte	0x9f
 3723 0301 00000000 		.long	0
 3724 0305 00000000 		.long	0
 3725              	LLST18:
 3726 0309 80020000 		.long	LVL34
 3727 030d 9D020000 		.long	LVL35
 3728 0311 0200     		.word	0x2
 3729 0313 30       		.byte	0x30
 3730 0314 9F       		.byte	0x9f
 3731 0315 9D020000 		.long	LVL35
 3732 0319 C3020000 		.long	LVL38
 3733 031d 0100     		.word	0x1
 3734 031f 53       		.byte	0x53
 3735 0320 00000000 		.long	0
 3736 0324 00000000 		.long	0
 3737              	LLST19:
 3738 0328 EA020000 		.long	LVL41
 3739 032c EE020000 		.long	LVL42
 3740 0330 0100     		.word	0x1
 3741 0332 50       		.byte	0x50
 3742 0333 EE020000 		.long	LVL42
 3743 0337 1B030000 		.long	LFE520
 3744 033b 0200     		.word	0x2
 3745 033d 91       		.byte	0x91
 3746 033e 08       		.sleb128 8
 3747 033f 00000000 		.long	0
 3748 0343 00000000 		.long	0
 3749              	LLST20:
 3750 0347 EA020000 		.long	LVL41
 3751 034b 19030000 		.long	LVL46
 3752 034f 0100     		.word	0x1
 3753 0351 57       		.byte	0x57
 3754 0352 19030000 		.long	LVL46
 3755 0356 1B030000 		.long	LFE520
 3756 035a 0200     		.word	0x2
 3757 035c 91       		.byte	0x91
 3758 035d 04       		.sleb128 4
 3759 035e 00000000 		.long	0
 3760 0362 00000000 		.long	0
 3761              	LLST21:
 3762 0366 E6020000 		.long	LVL40
 3763 036a 1A030000 		.long	LVL47
 3764 036e 0100     		.word	0x1
 3765 0370 55       		.byte	0x55
 3766 0371 1A030000 		.long	LVL47
 3767 0375 1B030000 		.long	LFE520
 3768 0379 0200     		.word	0x2
 3769 037b 91       		.byte	0x91
 3770 037c 00       		.sleb128 0
 3771 037d 00000000 		.long	0
 3772 0381 00000000 		.long	0
 3773              	LLST22:
 3774 0385 EA020000 		.long	LVL41
 3775 0389 EE020000 		.long	LVL42
 3776 038d 0200     		.word	0x2
 3777 038f 30       		.byte	0x30
 3778 0390 9F       		.byte	0x9f
 3779 0391 EE020000 		.long	LVL42
 3780 0395 13030000 		.long	LVL45
 3781 0399 0100     		.word	0x1
 3782 039b 53       		.byte	0x53
 3783 039c 00000000 		.long	0
 3784 03a0 00000000 		.long	0
 3785              	LLST23:
 3786 03a4 A8010000 		.long	LVL73
 3787 03a8 B0010000 		.long	LVL74
 3788 03ac 0100     		.word	0x1
 3789 03ae 5B       		.byte	0x5b
 3790 03af B0010000 		.long	LVL74
 3791 03b3 C6010000 		.long	LVL75-1
 3792 03b7 1C00     		.word	0x1c
 3793 03b9 F4       		.byte	0xf4
 3794 03ba 9C01     		.uleb128 0x9c
 3795 03bc 08       		.byte	0x8
 3796 03bd 00000000 		.long	0
 3797 03c1 00000442 		.long	0x42040000
 3798 03c5 F5       		.byte	0xf5
 3799 03c6 0C       		.uleb128 0xc
 3800 03c7 9C01     		.uleb128 0x9c
 3801 03c9 75       		.byte	0x75
 3802 03ca 58       		.sleb128 -40
 3803 03cb F6       		.byte	0xf6
 3804 03cc 08       		.byte	0x8
 3805 03cd B601     		.uleb128 0xb6
 3806 03cf F7       		.byte	0xf7
 3807 03d0 9C01     		.uleb128 0x9c
 3808 03d2 1B       		.byte	0x1b
 3809 03d3 1B       		.byte	0x1b
 3810 03d4 9F       		.byte	0x9f
 3811 03d5 00000000 		.long	0
 3812 03d9 00000000 		.long	0
 3813              	LLST24:
 3814 03dd 30000000 		.long	LVL51
 3815 03e1 81000000 		.long	LVL59
 3816 03e5 0100     		.word	0x1
 3817 03e7 53       		.byte	0x53
 3818 03e8 81000000 		.long	LVL59
 3819 03ec D1010000 		.long	LVL78
 3820 03f0 0300     		.word	0x3
 3821 03f2 75       		.byte	0x75
 3822 03f3 48       		.sleb128 -56
 3823 03f4 9F       		.byte	0x9f
 3824 03f5 D1010000 		.long	LVL78
 3825 03f9 D5010000 		.long	LFE522
 3826 03fd 0900     		.word	0x9
 3827 03ff 91       		.byte	0x91
 3828 0400 7C       		.sleb128 -4
 3829 0401 09       		.byte	0x9
 3830 0402 F0       		.byte	0xf0
 3831 0403 1A       		.byte	0x1a
 3832 0404 08       		.byte	0x8
 3833 0405 40       		.byte	0x40
 3834 0406 1C       		.byte	0x1c
 3835 0407 9F       		.byte	0x9f
 3836 0408 00000000 		.long	0
 3837 040c 00000000 		.long	0
 3838              	LLST25:
 3839 0410 44000000 		.long	LVL53
 3840 0414 81000000 		.long	LVL59
 3841 0418 0100     		.word	0x1
 3842 041a 53       		.byte	0x53
 3843 041b 81000000 		.long	LVL59
 3844 041f D1010000 		.long	LVL78
 3845 0423 0300     		.word	0x3
 3846 0425 75       		.byte	0x75
 3847 0426 48       		.sleb128 -56
 3848 0427 9F       		.byte	0x9f
 3849 0428 D1010000 		.long	LVL78
 3850 042c D5010000 		.long	LFE522
 3851 0430 0900     		.word	0x9
 3852 0432 91       		.byte	0x91
 3853 0433 7C       		.sleb128 -4
 3854 0434 09       		.byte	0x9
 3855 0435 F0       		.byte	0xf0
 3856 0436 1A       		.byte	0x1a
 3857 0437 08       		.byte	0x8
 3858 0438 40       		.byte	0x40
 3859 0439 1C       		.byte	0x1c
 3860 043a 9F       		.byte	0x9f
 3861 043b 00000000 		.long	0
 3862 043f 00000000 		.long	0
 3863              	LLST27:
 3864 0443 54000000 		.long	LVL55
 3865 0447 81000000 		.long	LVL59
 3866 044b 0100     		.word	0x1
 3867 044d 53       		.byte	0x53
 3868 044e 81000000 		.long	LVL59
 3869 0452 D1010000 		.long	LVL78
 3870 0456 0300     		.word	0x3
 3871 0458 75       		.byte	0x75
 3872 0459 48       		.sleb128 -56
 3873 045a 9F       		.byte	0x9f
 3874 045b D1010000 		.long	LVL78
 3875 045f D5010000 		.long	LFE522
 3876 0463 0900     		.word	0x9
 3877 0465 91       		.byte	0x91
 3878 0466 7C       		.sleb128 -4
 3879 0467 09       		.byte	0x9
 3880 0468 F0       		.byte	0xf0
 3881 0469 1A       		.byte	0x1a
 3882 046a 08       		.byte	0x8
 3883 046b 40       		.byte	0x40
 3884 046c 1C       		.byte	0x1c
 3885 046d 9F       		.byte	0x9f
 3886 046e 00000000 		.long	0
 3887 0472 00000000 		.long	0
 3888              	LLST28:
 3889 0476 75000000 		.long	LVL57
 3890 047a 81000000 		.long	LVL59
 3891 047e 0100     		.word	0x1
 3892 0480 53       		.byte	0x53
 3893 0481 81000000 		.long	LVL59
 3894 0485 D1010000 		.long	LVL78
 3895 0489 0300     		.word	0x3
 3896 048b 75       		.byte	0x75
 3897 048c 48       		.sleb128 -56
 3898 048d 9F       		.byte	0x9f
 3899 048e D1010000 		.long	LVL78
 3900 0492 D5010000 		.long	LFE522
 3901 0496 0900     		.word	0x9
 3902 0498 91       		.byte	0x91
 3903 0499 7C       		.sleb128 -4
 3904 049a 09       		.byte	0x9
 3905 049b F0       		.byte	0xf0
 3906 049c 1A       		.byte	0x1a
 3907 049d 08       		.byte	0x8
 3908 049e 40       		.byte	0x40
 3909 049f 1C       		.byte	0x1c
 3910 04a0 9F       		.byte	0x9f
 3911 04a1 00000000 		.long	0
 3912 04a5 00000000 		.long	0
 3913              	LLST29:
 3914 04a9 81000000 		.long	LVL59
 3915 04ad 57010000 		.long	LVL68
 3916 04b1 0300     		.word	0x3
 3917 04b3 75       		.byte	0x75
 3918 04b4 B47F     		.sleb128 -76
 3919 04b6 5A010000 		.long	LVL69
 3920 04ba 65010000 		.long	LVL70
 3921 04be 0100     		.word	0x1
 3922 04c0 50       		.byte	0x50
 3923 04c1 00000000 		.long	0
 3924 04c5 00000000 		.long	0
 3925              	LLST30:
 3926 04c9 95000000 		.long	LVL60
 3927 04cd 2F010000 		.long	LVL64
 3928 04d1 0600     		.word	0x6
 3929 04d3 56       		.byte	0x56
 3930 04d4 93       		.byte	0x93
 3931 04d5 04       		.uleb128 0x4
 3932 04d6 57       		.byte	0x57
 3933 04d7 93       		.byte	0x93
 3934 04d8 04       		.uleb128 0x4
 3935 04d9 36010000 		.long	LVL65
 3936 04dd CF010000 		.long	LVL77
 3937 04e1 0600     		.word	0x6
 3938 04e3 56       		.byte	0x56
 3939 04e4 93       		.byte	0x93
 3940 04e5 04       		.uleb128 0x4
 3941 04e6 57       		.byte	0x57
 3942 04e7 93       		.byte	0x93
 3943 04e8 04       		.uleb128 0x4
 3944 04e9 00000000 		.long	0
 3945 04ed 00000000 		.long	0
 3946              	LLST31:
 3947 04f1 95000000 		.long	LVL60
 3948 04f5 CE010000 		.long	LVL76
 3949 04f9 0100     		.word	0x1
 3950 04fb 53       		.byte	0x53
 3951 04fc 00000000 		.long	0
 3952 0500 00000000 		.long	0
 3953              	LLST32:
 3954 0504 95000000 		.long	LVL60
 3955 0508 15010000 		.long	LVL62
 3956 050c 0100     		.word	0x1
 3957 050e 51       		.byte	0x51
 3958 050f 15010000 		.long	LVL62
 3959 0513 1A010000 		.long	LVL63
 3960 0517 0400     		.word	0x4
 3961 0519 71       		.byte	0x71
 3962 051a 8078     		.sleb128 -1024
 3963 051c 9F       		.byte	0x9f
 3964 051d 1A010000 		.long	LVL63
 3965 0521 6D010000 		.long	LVL71-1
 3966 0525 0100     		.word	0x1
 3967 0527 51       		.byte	0x51
 3968 0528 00000000 		.long	0
 3969 052c 00000000 		.long	0
 3970              	LLST33:
 3971 0530 95000000 		.long	LVL60
 3972 0534 9B000000 		.long	LVL61
 3973 0538 0A00     		.word	0xa
 3974 053a 9E       		.byte	0x9e
 3975 053b 08       		.uleb128 0x8
 3976 053c 00000000 		.quad	0
 3976      00000000 
 3977 0544 00000000 		.long	0
 3978 0548 00000000 		.long	0
 3979              	LLST34:
 3980 054c 95000000 		.long	LVL60
 3981 0550 9B000000 		.long	LVL61
 3982 0554 0200     		.word	0x2
 3983 0556 30       		.byte	0x30
 3984 0557 9F       		.byte	0x9f
 3985 0558 00000000 		.long	0
 3986 055c 00000000 		.long	0
 3987              	LLST35:
 3988 0560 65010000 		.long	LVL70
 3989 0564 D1010000 		.long	LVL78
 3990 0568 0300     		.word	0x3
 3991 056a 75       		.byte	0x75
 3992 056b 48       		.sleb128 -56
 3993 056c 9F       		.byte	0x9f
 3994 056d D1010000 		.long	LVL78
 3995 0571 D5010000 		.long	LFE522
 3996 0575 0900     		.word	0x9
 3997 0577 91       		.byte	0x91
 3998 0578 7C       		.sleb128 -4
 3999 0579 09       		.byte	0x9
 4000 057a F0       		.byte	0xf0
 4001 057b 1A       		.byte	0x1a
 4002 057c 08       		.byte	0x8
 4003 057d 40       		.byte	0x40
 4004 057e 1C       		.byte	0x1c
 4005 057f 9F       		.byte	0x9f
 4006 0580 00000000 		.long	0
 4007 0584 00000000 		.long	0
 4008              	LLST36:
 4009 0588 74010000 		.long	LVL72
 4010 058c D1010000 		.long	LVL78
 4011 0590 0300     		.word	0x3
 4012 0592 75       		.byte	0x75
 4013 0593 48       		.sleb128 -56
 4014 0594 9F       		.byte	0x9f
 4015 0595 D1010000 		.long	LVL78
 4016 0599 D5010000 		.long	LFE522
 4017 059d 0900     		.word	0x9
 4018 059f 91       		.byte	0x91
 4019 05a0 7C       		.sleb128 -4
 4020 05a1 09       		.byte	0x9
 4021 05a2 F0       		.byte	0xf0
 4022 05a3 1A       		.byte	0x1a
 4023 05a4 08       		.byte	0x8
 4024 05a5 40       		.byte	0x40
 4025 05a6 1C       		.byte	0x1c
 4026 05a7 9F       		.byte	0x9f
 4027 05a8 00000000 		.long	0
 4028 05ac 00000000 		.long	0
 4029              		.section	.debug_aranges,"dr"
 4030 0000 24000000 		.long	0x24
 4031 0004 0200     		.word	0x2
 4032 0006 00000000 		.secrel32	Ldebug_info0
 4033 000a 04       		.byte	0x4
 4034 000b 00       		.byte	0
 4035 000c 0000     		.word	0
 4036 000e 0000     		.word	0
 4037 0010 00000000 		.long	Ltext0
 4038 0014 43030000 		.long	Letext0-Ltext0
 4039 0018 00000000 		.long	LFB522
 4040 001c D5010000 		.long	LFE522-LFB522
 4041 0020 00000000 		.long	0
 4042 0024 00000000 		.long	0
 4043              		.section	.debug_ranges,"dr"
 4044              	Ldebug_ranges0:
 4045 0000 0B000000 		.long	LBB40
 4046 0004 0F000000 		.long	LBE40
 4047 0008 13000000 		.long	LBB55
 4048 000c A5010000 		.long	LBE55
 4049 0010 B0010000 		.long	LBB56
 4050 0014 6B020000 		.long	LBE56
 4051 0018 6E020000 		.long	LBB57
 4052 001c 70020000 		.long	LBE57
 4053 0020 00000000 		.long	0
 4054 0024 00000000 		.long	0
 4055 0028 2D000000 		.long	LBB41
 4056 002c 93010000 		.long	LBE41
 4057 0030 B0010000 		.long	LBB54
 4058 0034 6B020000 		.long	LBE54
 4059 0038 00000000 		.long	0
 4060 003c 00000000 		.long	0
 4061 0040 2D000000 		.long	LBB42
 4062 0044 67010000 		.long	LBE42
 4063 0048 B0010000 		.long	LBB53
 4064 004c 6B020000 		.long	LBE53
 4065 0050 00000000 		.long	0
 4066 0054 00000000 		.long	0
 4067 0058 09010000 		.long	LBB44
 4068 005c 19010000 		.long	LBE44
 4069 0060 21010000 		.long	LBB48
 4070 0064 67010000 		.long	LBE48
 4071 0068 44020000 		.long	LBB51
 4072 006c 62020000 		.long	LBE51
 4073 0070 00000000 		.long	0
 4074 0074 00000000 		.long	0
 4075 0078 84020000 		.long	LBB59
 4076 007c 86020000 		.long	LBE59
 4077 0080 89020000 		.long	LBB60
 4078 0084 8D020000 		.long	LBE60
 4079 0088 99020000 		.long	LBB61
 4080 008c C3020000 		.long	LBE61
 4081 0090 00000000 		.long	0
 4082 0094 00000000 		.long	0
 4083 0098 D4020000 		.long	LBB65
 4084 009c DB020000 		.long	LBE65
 4085 00a0 DE020000 		.long	LBB69
 4086 00a4 E2020000 		.long	LBE69
 4087 00a8 EA020000 		.long	LBB70
 4088 00ac 13030000 		.long	LBE70
 4089 00b0 00000000 		.long	0
 4090 00b4 00000000 		.long	0
 4091 00b8 11000000 		.long	LBB101
 4092 00bc 14000000 		.long	LBE101
 4093 00c0 1C000000 		.long	LBB163
 4094 00c4 C7010000 		.long	LBE163
 4095 00c8 00000000 		.long	0
 4096 00cc 00000000 		.long	0
 4097 00d0 11000000 		.long	LBB102
 4098 00d4 14000000 		.long	LBE102
 4099 00d8 30000000 		.long	LBB123
 4100 00dc 6A000000 		.long	LBE123
 4101 00e0 6D000000 		.long	LBB129
 4102 00e4 70000000 		.long	LBE129
 4103 00e8 72000000 		.long	LBB131
 4104 00ec 75000000 		.long	LBE131
 4105 00f0 00000000 		.long	0
 4106 00f4 00000000 		.long	0
 4107 00f8 3C000000 		.long	LBB104
 4108 00fc 41000000 		.long	LBE104
 4109 0100 44000000 		.long	LBB119
 4110 0104 6A000000 		.long	LBE119
 4111 0108 00000000 		.long	0
 4112 010c 00000000 		.long	0
 4113 0110 3C000000 		.long	LBB106
 4114 0114 41000000 		.long	LBE106
 4115 0118 44000000 		.long	LBB110
 4116 011c 4E000000 		.long	LBE110
 4117 0120 51000000 		.long	LBB115
 4118 0124 54000000 		.long	LBE115
 4119 0128 00000000 		.long	0
 4120 012c 00000000 		.long	0
 4121 0130 4E000000 		.long	LBB111
 4122 0134 51000000 		.long	LBE111
 4123 0138 54000000 		.long	LBB116
 4124 013c 5B000000 		.long	LBE116
 4125 0140 5E000000 		.long	LBB117
 4126 0144 61000000 		.long	LBE117
 4127 0148 00000000 		.long	0
 4128 014c 00000000 		.long	0
 4129 0150 6A000000 		.long	LBB124
 4130 0154 6D000000 		.long	LBE124
 4131 0158 70000000 		.long	LBB130
 4132 015c 72000000 		.long	LBE130
 4133 0160 75000000 		.long	LBB132
 4134 0164 81000000 		.long	LBE132
 4135 0168 95000000 		.long	LBB151
 4136 016c A0000000 		.long	LBE151
 4137 0170 00000000 		.long	0
 4138 0174 00000000 		.long	0
 4139 0178 81000000 		.long	LBB133
 4140 017c 95000000 		.long	LBE133
 4141 0180 A0000000 		.long	LBB152
 4142 0184 65010000 		.long	LBE152
 4143 0188 00000000 		.long	0
 4144 018c 00000000 		.long	0
 4145 0190 81000000 		.long	LBB134
 4146 0194 95000000 		.long	LBE134
 4147 0198 A0000000 		.long	LBB150
 4148 019c 53010000 		.long	LBE150
 4149 01a0 00000000 		.long	0
 4150 01a4 00000000 		.long	0
 4151 01a8 85000000 		.long	LBB135
 4152 01ac 90000000 		.long	LBE135
 4153 01b0 A0000000 		.long	LBB149
 4154 01b4 4E010000 		.long	LBE149
 4155 01b8 00000000 		.long	0
 4156 01bc 00000000 		.long	0
 4157 01c0 A0000000 		.long	LBB139
 4158 01c4 0F010000 		.long	LBE139
 4159 01c8 23010000 		.long	LBB146
 4160 01cc 26010000 		.long	LBE146
 4161 01d0 00000000 		.long	0
 4162 01d4 00000000 		.long	0
 4163 01d8 65010000 		.long	LBB153
 4164 01dc 6E010000 		.long	LBE153
 4165 01e0 71010000 		.long	LBB160
 4166 01e4 74010000 		.long	LBE160
 4167 01e8 00000000 		.long	0
 4168 01ec 00000000 		.long	0
 4169 01f0 6E010000 		.long	LBB156
 4170 01f4 71010000 		.long	LBE156
 4171 01f8 74010000 		.long	LBB161
 4172 01fc 80010000 		.long	LBE161
 4173 0200 87010000 		.long	LBB162
 4174 0204 A0010000 		.long	LBE162
 4175 0208 00000000 		.long	0
 4176 020c 00000000 		.long	0
 4177 0210 00000000 		.long	Ltext0
 4178 0214 43030000 		.long	Letext0
 4179 0218 00000000 		.long	LFB522
 4180 021c D5010000 		.long	LFE522
 4181 0220 00000000 		.long	0
 4182 0224 00000000 		.long	0
 4183              		.section	.debug_line,"dr"
 4184              	Ldebug_line0:
 4185 0000 D9010000 		.section	.debug_str,"dr"
 4185      0200B100 
 4185      00000101 
 4185      FB0E0D00 
 4185      01010101 
 4186              	LASF0:
 4187 0000 48696768 		.ascii "HighPart\0"
 4187      50617274 
 4187      00
 4188              	LASF3:
 4189 0009 656C656D 		.ascii "elements\0"
 4189      656E7473 
 4189      00
 4190              	LASF2:
 4191 0012 62797465 		.ascii "bytes\0"
 4191      7300
 4192              	LASF1:
 4193 0018 64617461 		.ascii "data_ptr\0"
 4193      5F707472 
 4193      00
 4194              		.ident	"GCC: (i686-posix-sjlj-rev2, Built by MinGW-W64 project) 4.9.2"
DEFINED SYMBOLS
                            *ABS*:0000000000000000 main.cpp
  M:\Temp\ccBy6jvT.s:8      .text:0000000000000000 __Z11farsh_keyedPKvjPKj
  M:\Temp\ccBy6jvT.s:356    .text:0000000000000280 __Z13farsh_keyed_nPKvjPKjiPj
  M:\Temp\ccBy6jvT.s:433    .text:00000000000002d0 __Z7farsh_nPKvjiPj
  M:\Temp\ccBy6jvT.s:911    .rdata:0000000000000080 __ZL9farsh_key
  M:\Temp\ccBy6jvT.s:520    .text:0000000000000320 __Z5farshPKvj
  M:\Temp\ccBy6jvT.s:552    .text.startup:0000000000000000 _main
  M:\Temp\ccBy6jvT.s:908    .bss:0000000000000000 __ZZ4mainE4data

UNDEFINED SYMBOLS
___main
__imp__QueryPerformanceFrequency@4
__imp__QueryPerformanceCounter@4
_printf
