   1              		.file	"main.cpp"
   2              		.text
   3              		.p2align 4,,15
   4              		.globl	__Z11farsh_keyedPKvjPKj
   6              	__Z11farsh_keyedPKvjPKj:
   7 0000 55       		pushl	%ebp
   8 0001 57       		pushl	%edi
   9 0002 56       		pushl	%esi
  10 0003 53       		pushl	%ebx
  11 0004 83EC54   		subl	$84, %esp
  12 0007 8B44246C 		movl	108(%esp), %eax
  13 000b 8B7C2468 		movl	104(%esp), %edi
  14 000f 01C7     		addl	%eax, %edi
  15 0011 397C2468 		cmpl	%edi, 104(%esp)
  16 0015 897C2424 		movl	%edi, 36(%esp)
  17 0019 0F834004 		jae	L18
  17      0000
  18 001f 3D000400 		cmpl	$1024, %eax
  18      00
  19 0024 BA000400 		movl	$1024, %edx
  19      00
  20 0029 8D7C2448 		leal	72(%esp), %edi
  21 002d 0F46D0   		cmovbe	%eax, %edx
  22 0030 B8000000 		movl	$0, %eax
  22      00
  23 0035 C7442434 		movl	$0, 52(%esp)
  23      00000000 
  24 003d 89D1     		movl	%edx, %ecx
  25 003f 89D6     		movl	%edx, %esi
  26 0041 89542414 		movl	%edx, 20(%esp)
  27 0045 C1E902   		shrl	$2, %ecx
  28 0048 C7442410 		movl	$0, 16(%esp)
  28      00000000 
  29 0050 C7442418 		movl	$0, 24(%esp)
  29      00000000 
  30 0058 83E1FE   		andl	$-2, %ecx
  31 005b C744241C 		movl	$0, 28(%esp)
  31      00000000 
  32 0063 894C240C 		movl	%ecx, 12(%esp)
  33 0067 C1E102   		sall	$2, %ecx
  34 006a 29CE     		subl	%ecx, %esi
  35 006c 894C2428 		movl	%ecx, 40(%esp)
  36 0070 89F2     		movl	%esi, %edx
  37 0072 89F1     		movl	%esi, %ecx
  38 0074 89F3     		movl	%esi, %ebx
  39 0076 0F45C7   		cmovne	%edi, %eax
  40 0079 83E202   		andl	$2, %edx
  41 007c 83E101   		andl	$1, %ecx
  42 007f C1EB02   		shrl	$2, %ebx
  43 0082 89742420 		movl	%esi, 32(%esp)
  44 0086 89442438 		movl	%eax, 56(%esp)
  45 008a 8954242C 		movl	%edx, 44(%esp)
  46 008e 894C2430 		movl	%ecx, 48(%esp)
  47 0092 895C243C 		movl	%ebx, 60(%esp)
  48 0096 8D76008D 		.p2align 4,,10
  48      BC270000 
  48      0000
  49              	L15:
  50 00a0 817C2414 		cmpl	$1024, 20(%esp)
  50      00040000 
  51 00a8 0F844202 		je	L61
  51      0000
  52 00ae 837C2420 		cmpl	$4, 32(%esp)
  52      04
  53 00b3 8B742468 		movl	104(%esp), %esi
  54 00b7 8D7C2448 		leal	72(%esp), %edi
  55 00bb 8B6C2428 		movl	40(%esp), %ebp
  56 00bf C7442448 		movl	$0, 72(%esp)
  56      00000000 
  57 00c7 C744244C 		movl	$0, 76(%esp)
  57      00000000 
  58 00cf 8D342E   		leal	(%esi,%ebp), %esi
  59 00d2 7206     		jb	L6
  60 00d4 8B4C243C 		movl	60(%esp), %ecx
  61 00d8 F3A5     		rep movsl
  62              	L6:
  63 00da 8B54242C 		movl	44(%esp), %edx
  64 00de 31ED     		xorl	%ebp, %ebp
  65 00e0 85D2     		testl	%edx, %edx
  66 00e2 740B     		je	L7
  67 00e4 0FB706   		movzwl	(%esi), %eax
  68 00e7 BD020000 		movl	$2, %ebp
  68      00
  69 00ec 668907   		movw	%ax, (%edi)
  70              	L7:
  71 00ef 8B5C2430 		movl	48(%esp), %ebx
  72 00f3 85DB     		testl	%ebx, %ebx
  73 00f5 7407     		je	L8
  74 00f7 0FB60C2E 		movzbl	(%esi,%ebp), %ecx
  75 00fb 880C2F   		movb	%cl, (%edi,%ebp)
  76              	L8:
  77 00fe 8B7C2420 		movl	32(%esp), %edi
  78 0102 85FF     		testl	%edi, %edi
  79 0104 0F84C602 		je	L62
  79      0000
  80 010a 8B54240C 		movl	12(%esp), %edx
  81 010e 85D2     		testl	%edx, %edx
  82 0110 0F842A03 		je	L63
  82      0000
  83              	L16:
  84 0116 8B442468 		movl	104(%esp), %eax
  85 011a 8B7C240C 		movl	12(%esp), %edi
  86 011e BD020000 		movl	$2, %ebp
  86      00
  87 0123 8B18     		movl	(%eax), %ebx
  88 0125 8B442470 		movl	112(%esp), %eax
  89 0129 8D4FFF   		leal	-1(%edi), %ecx
  90 012c D1E9     		shrl	%ecx
  91 012e 0318     		addl	(%eax), %ebx
  92 0130 8B442468 		movl	104(%esp), %eax
  93 0134 83E103   		andl	$3, %ecx
  94 0137 8B5004   		movl	4(%eax), %edx
  95 013a 8B442470 		movl	112(%esp), %eax
  96 013e 8B7004   		movl	4(%eax), %esi
  97 0141 01D6     		addl	%edx, %esi
  98 0143 89F0     		movl	%esi, %eax
  99 0145 F7E3     		mull	%ebx
 100 0147 83FF02   		cmpl	$2, %edi
 101 014a 890424   		movl	%eax, (%esp)
 102 014d 8B442468 		movl	104(%esp), %eax
 103 0151 89542404 		movl	%edx, 4(%esp)
 104 0155 8D5808   		leal	8(%eax), %ebx
 105 0158 0F86C402 		jbe	L58
 105      0000
 106 015e 85C9     		testl	%ecx, %ecx
 107 0160 0F84CA02 		je	L55
 107      0000
 108 0166 83F901   		cmpl	$1, %ecx
 109 0169 744A     		je	L45
 110 016b 83F902   		cmpl	$2, %ecx
 111 016e 7426     		je	L46
 112 0170 8B6C2470 		movl	112(%esp), %ebp
 113 0174 8B03     		movl	(%ebx), %eax
 114 0176 034508   		addl	8(%ebp), %eax
 115 0179 89C2     		movl	%eax, %edx
 116 017b 8B4304   		movl	4(%ebx), %eax
 117 017e 03450C   		addl	12(%ebp), %eax
 118 0181 8B5C2468 		movl	104(%esp), %ebx
 119 0185 BD040000 		movl	$4, %ebp
 119      00
 120 018a F7E2     		mull	%edx
 121 018c 010424   		addl	%eax, (%esp)
 122 018f 8D5B10   		leal	16(%ebx), %ebx
 123 0192 11542404 		adcl	%edx, 4(%esp)
 124              	L46:
 125 0196 8B4C2470 		movl	112(%esp), %ecx
 126 019a 8B03     		movl	(%ebx), %eax
 127 019c 8B5304   		movl	4(%ebx), %edx
 128 019f 0304A9   		addl	(%ecx,%ebp,4), %eax
 129 01a2 0354A904 		addl	4(%ecx,%ebp,4), %edx
 130 01a6 F7E2     		mull	%edx
 131 01a8 010424   		addl	%eax, (%esp)
 132 01ab 11542404 		adcl	%edx, 4(%esp)
 133 01af 83C502   		addl	$2, %ebp
 134 01b2 83C308   		addl	$8, %ebx
 135              	L45:
 136 01b5 8B7C2470 		movl	112(%esp), %edi
 137 01b9 8B03     		movl	(%ebx), %eax
 138 01bb 8B5304   		movl	4(%ebx), %edx
 139 01be 0304AF   		addl	(%edi,%ebp,4), %eax
 140 01c1 0354AF04 		addl	4(%edi,%ebp,4), %edx
 141 01c5 F7E2     		mull	%edx
 142 01c7 010424   		addl	%eax, (%esp)
 143 01ca 11542404 		adcl	%edx, 4(%esp)
 144 01ce 83C502   		addl	$2, %ebp
 145 01d1 83C308   		addl	$8, %ebx
 146 01d4 396C240C 		cmpl	%ebp, 12(%esp)
 147 01d8 0F864402 		jbe	L58
 147      0000
 148 01de 89F9     		movl	%edi, %ecx
 149 01e0 8B3424   		movl	(%esp), %esi
 150 01e3 8B7C2404 		movl	4(%esp), %edi
 151              	L11:
 152 01e7 8B03     		movl	(%ebx), %eax
 153 01e9 0304A9   		addl	(%ecx,%ebp,4), %eax
 154 01ec 89C2     		movl	%eax, %edx
 155 01ee 8B4304   		movl	4(%ebx), %eax
 156 01f1 0344A904 		addl	4(%ecx,%ebp,4), %eax
 157 01f5 F7E2     		mull	%edx
 158 01f7 01C6     		addl	%eax, %esi
 159 01f9 8B4308   		movl	8(%ebx), %eax
 160 01fc 11D7     		adcl	%edx, %edi
 161 01fe 8D5502   		leal	2(%ebp), %edx
 162 0201 030491   		addl	(%ecx,%edx,4), %eax
 163 0204 8B549104 		movl	4(%ecx,%edx,4), %edx
 164 0208 03530C   		addl	12(%ebx), %edx
 165 020b F7E2     		mull	%edx
 166 020d 01C6     		addl	%eax, %esi
 167 020f 8B4310   		movl	16(%ebx), %eax
 168 0212 11D7     		adcl	%edx, %edi
 169 0214 8D5504   		leal	4(%ebp), %edx
 170 0217 030491   		addl	(%ecx,%edx,4), %eax
 171 021a 8B549104 		movl	4(%ecx,%edx,4), %edx
 172 021e 035314   		addl	20(%ebx), %edx
 173 0221 F7E2     		mull	%edx
 174 0223 01C6     		addl	%eax, %esi
 175 0225 8B4318   		movl	24(%ebx), %eax
 176 0228 11D7     		adcl	%edx, %edi
 177 022a 8D5506   		leal	6(%ebp), %edx
 178 022d 030491   		addl	(%ecx,%edx,4), %eax
 179 0230 8B549104 		movl	4(%ecx,%edx,4), %edx
 180 0234 03531C   		addl	28(%ebx), %edx
 181 0237 F7E2     		mull	%edx
 182 0239 01C6     		addl	%eax, %esi
 183 023b 11D7     		adcl	%edx, %edi
 184 023d 83C508   		addl	$8, %ebp
 185 0240 83C320   		addl	$32, %ebx
 186 0243 396C240C 		cmpl	%ebp, 12(%esp)
 187 0247 779E     		ja	L11
 188 0249 893424   		movl	%esi, (%esp)
 189 024c 897C2404 		movl	%edi, 4(%esp)
 190 0250 89FA     		movl	%edi, %edx
 191              	L53:
 192 0252 8B7C2438 		movl	56(%esp), %edi
 193 0256 89F0     		movl	%esi, %eax
 194 0258 C1E502   		sall	$2, %ebp
 195 025b 01D0     		addl	%edx, %eax
 196 025d 31D2     		xorl	%edx, %edx
 197 025f 8D5D04   		leal	4(%ebp), %ebx
 198 0262 85FF     		testl	%edi, %edi
 199 0264 89F9     		movl	%edi, %ecx
 200 0266 7428     		je	L5
 201              	L17:
 202 0268 8B442470 		movl	112(%esp), %eax
 203 026c 8B11     		movl	(%ecx), %edx
 204 026e 8B3C28   		movl	(%eax,%ebp), %edi
 205 0271 01D7     		addl	%edx, %edi
 206 0273 8B5104   		movl	4(%ecx), %edx
 207 0276 8B0C18   		movl	(%eax,%ebx), %ecx
 208 0279 8B5C2404 		movl	4(%esp), %ebx
 209 027d 01D1     		addl	%edx, %ecx
 210 027f 89C8     		movl	%ecx, %eax
 211 0281 8B0C24   		movl	(%esp), %ecx
 212 0284 F7E7     		mull	%edi
 213 0286 01C1     		addl	%eax, %ecx
 214 0288 11D3     		adcl	%edx, %ebx
 215 028a 31D2     		xorl	%edx, %edx
 216 028c 89D8     		movl	%ebx, %eax
 217 028e 01C8     		addl	%ecx, %eax
 218              	L5:
 219 0290 8B7C2410 		movl	16(%esp), %edi
 220 0294 8B742470 		movl	112(%esp), %esi
 221 0298 89D3     		movl	%edx, %ebx
 222 029a 8B4C2414 		movl	20(%esp), %ecx
 223 029e 014C2468 		addl	%ecx, 104(%esp)
 224 02a2 030CBE   		addl	(%esi,%edi,4), %ecx
 225 02a5 0FAFD9   		imull	%ecx, %ebx
 226 02a8 F7E1     		mull	%ecx
 227 02aa 01DA     		addl	%ebx, %edx
 228 02ac 01442418 		addl	%eax, 24(%esp)
 229 02b0 1154241C 		adcl	%edx, 28(%esp)
 230 02b4 83C701   		addl	$1, %edi
 231 02b7 81FF0001 		cmpl	$256, %edi
 231      0000
 232 02bd 897C2410 		movl	%edi, 16(%esp)
 233 02c1 0F841E01 		je	L64
 233      0000
 234              	L14:
 235 02c7 8B6C2424 		movl	36(%esp), %ebp
 236 02cb 3B6C2468 		cmpl	104(%esp), %ebp
 237 02cf 0F87CBFD 		ja	L15
 237      FFFF
 238 02d5 8B5C2418 		movl	24(%esp), %ebx
 239 02d9 8B44241C 		movl	28(%esp), %eax
 240 02dd 83C454   		addl	$84, %esp
 241 02e0 01D8     		addl	%ebx, %eax
 242 02e2 5B       		popl	%ebx
 243 02e3 5E       		popl	%esi
 244 02e4 5F       		popl	%edi
 245 02e5 5D       		popl	%ebp
 246 02e6 C3       		ret
 247 02e7 89F68DBC 		.p2align 4,,10
 247      27000000 
 247      00
 248              	L61:
 249 02f0 8B5C2468 		movl	104(%esp), %ebx
 250 02f4 8B6C2470 		movl	112(%esp), %ebp
 251 02f8 31F6     		xorl	%esi, %esi
 252 02fa 31FF     		xorl	%edi, %edi
 253 02fc 89D9     		movl	%ebx, %ecx
 254 02fe 81C10004 		addl	$1024, %ecx
 254      0000
 255 0304 894C2408 		movl	%ecx, 8(%esp)
 256 0308 908DB426 		.p2align 4,,10
 256      00000000 
 257              	L4:
 258 0310 8B03     		movl	(%ebx), %eax
 259 0312 034500   		addl	0(%ebp), %eax
 260 0315 8B4D08   		movl	8(%ebp), %ecx
 261 0318 89C2     		movl	%eax, %edx
 262 031a 8B4304   		movl	4(%ebx), %eax
 263 031d 034504   		addl	4(%ebp), %eax
 264 0320 F7E2     		mull	%edx
 265 0322 01C6     		addl	%eax, %esi
 266 0324 11D7     		adcl	%edx, %edi
 267 0326 8B5308   		movl	8(%ebx), %edx
 268 0329 01D1     		addl	%edx, %ecx
 269 032b 8B530C   		movl	12(%ebx), %edx
 270 032e 03550C   		addl	12(%ebp), %edx
 271 0331 89D0     		movl	%edx, %eax
 272 0333 891424   		movl	%edx, (%esp)
 273 0336 F7E1     		mull	%ecx
 274 0338 01C6     		addl	%eax, %esi
 275 033a 8B4310   		movl	16(%ebx), %eax
 276 033d 11D7     		adcl	%edx, %edi
 277 033f 034510   		addl	16(%ebp), %eax
 278 0342 89C2     		movl	%eax, %edx
 279 0344 8B4314   		movl	20(%ebx), %eax
 280 0347 034514   		addl	20(%ebp), %eax
 281 034a F7E2     		mull	%edx
 282 034c 01C6     		addl	%eax, %esi
 283 034e 8B4318   		movl	24(%ebx), %eax
 284 0351 11D7     		adcl	%edx, %edi
 285 0353 034518   		addl	24(%ebp), %eax
 286 0356 89C2     		movl	%eax, %edx
 287 0358 8B431C   		movl	28(%ebx), %eax
 288 035b 03451C   		addl	28(%ebp), %eax
 289 035e F7E2     		mull	%edx
 290 0360 01C6     		addl	%eax, %esi
 291 0362 8B4320   		movl	32(%ebx), %eax
 292 0365 11D7     		adcl	%edx, %edi
 293 0367 034520   		addl	32(%ebp), %eax
 294 036a 89C2     		movl	%eax, %edx
 295 036c 8B4324   		movl	36(%ebx), %eax
 296 036f 034524   		addl	36(%ebp), %eax
 297 0372 F7E2     		mull	%edx
 298 0374 01C6     		addl	%eax, %esi
 299 0376 8B4328   		movl	40(%ebx), %eax
 300 0379 11D7     		adcl	%edx, %edi
 301 037b 034528   		addl	40(%ebp), %eax
 302 037e 89C2     		movl	%eax, %edx
 303 0380 8B432C   		movl	44(%ebx), %eax
 304 0383 03452C   		addl	44(%ebp), %eax
 305 0386 F7E2     		mull	%edx
 306 0388 01C6     		addl	%eax, %esi
 307 038a 8B4330   		movl	48(%ebx), %eax
 308 038d 11D7     		adcl	%edx, %edi
 309 038f 034530   		addl	48(%ebp), %eax
 310 0392 89C2     		movl	%eax, %edx
 311 0394 8B4334   		movl	52(%ebx), %eax
 312 0397 034534   		addl	52(%ebp), %eax
 313 039a F7E2     		mull	%edx
 314 039c 01C6     		addl	%eax, %esi
 315 039e 8B4338   		movl	56(%ebx), %eax
 316 03a1 11D7     		adcl	%edx, %edi
 317 03a3 034538   		addl	56(%ebp), %eax
 318 03a6 89C2     		movl	%eax, %edx
 319 03a8 8B433C   		movl	60(%ebx), %eax
 320 03ab 03453C   		addl	60(%ebp), %eax
 321 03ae F7E2     		mull	%edx
 322 03b0 01C6     		addl	%eax, %esi
 323 03b2 11D7     		adcl	%edx, %edi
 324 03b4 83C340   		addl	$64, %ebx
 325 03b7 83C540   		addl	$64, %ebp
 326 03ba 3B5C2408 		cmpl	8(%esp), %ebx
 327 03be 0F854CFF 		jne	L4
 327      FFFF
 328 03c4 89F8     		movl	%edi, %eax
 329 03c6 31D2     		xorl	%edx, %edx
 330 03c8 01F0     		addl	%esi, %eax
 331 03ca E9C1FEFF 		jmp	L5
 331      FF
 332 03cf 90       		.p2align 4,,10
 333              	L62:
 334 03d0 8B74240C 		movl	12(%esp), %esi
 335 03d4 85F6     		testl	%esi, %esi
 336 03d6 0F853AFD 		jne	L16
 336      FFFF
 337 03dc 31C0     		xorl	%eax, %eax
 338 03de 31D2     		xorl	%edx, %edx
 339 03e0 E9ABFEFF 		jmp	L5
 339      FF
 340              		.p2align 4,,10
 341              	L64:
 342 03e5 8B6C241C 		movl	28(%esp), %ebp
 343 03e9 8B7C2418 		movl	24(%esp), %edi
 344 03ed C7442410 		movl	$0, 16(%esp)
 344      00000000 
 345 03f5 89E8     		movl	%ebp, %eax
 346 03f7 01F8     		addl	%edi, %eax
 347 03f9 8B7C2434 		movl	52(%esp), %edi
 348 03fd F724BE   		mull	(%esi,%edi,4)
 349 0400 01442418 		addl	%eax, 24(%esp)
 350 0404 B8000000 		movl	$0, %eax
 350      00
 351 0409 1154241C 		adcl	%edx, 28(%esp)
 352 040d 83C701   		addl	$1, %edi
 353 0410 81FF0001 		cmpl	$256, %edi
 353      0000
 354 0416 0F45C7   		cmovne	%edi, %eax
 355 0419 89442434 		movl	%eax, 52(%esp)
 356 041d E9A5FEFF 		jmp	L14
 356      FF
 357              		.p2align 4,,10
 358              	L58:
 359 0422 8B3424   		movl	(%esp), %esi
 360 0425 8B542404 		movl	4(%esp), %edx
 361 0429 E924FEFF 		jmp	L53
 361      FF
 362 042e 6690     		.p2align 4,,10
 363              	L55:
 364 0430 8B4C2470 		movl	112(%esp), %ecx
 365 0434 8B3424   		movl	(%esp), %esi
 366 0437 8B7C2404 		movl	4(%esp), %edi
 367 043b E9A7FDFF 		jmp	L11
 367      FF
 368              	L63:
 369 0440 BB040000 		movl	$4, %ebx
 369      00
 370 0445 31ED     		xorl	%ebp, %ebp
 371 0447 C7042400 		movl	$0, (%esp)
 371      000000
 372 044e C7442404 		movl	$0, 4(%esp)
 372      00000000 
 373 0456 8D4C2448 		leal	72(%esp), %ecx
 374 045a E909FEFF 		jmp	L17
 374      FF
 375              	L18:
 376 045f 83C454   		addl	$84, %esp
 377 0462 31C0     		xorl	%eax, %eax
 378 0464 5B       		popl	%ebx
 379 0465 5E       		popl	%esi
 380 0466 5F       		popl	%edi
 381 0467 5D       		popl	%ebp
 382 0468 C3       		ret
 383 0469 8DB42600 		.p2align 4,,15
 383      000000
 384              		.globl	__Z13farsh_keyed_nPKvjPKjiPj
 386              	__Z13farsh_keyed_nPKvjPKjiPj:
 387 0470 55       		pushl	%ebp
 388 0471 57       		pushl	%edi
 389 0472 56       		pushl	%esi
 390 0473 53       		pushl	%ebx
 391 0474 83EC1C   		subl	$28, %esp
 392 0477 8B44243C 		movl	60(%esp), %eax
 393 047b 8B7C2430 		movl	48(%esp), %edi
 394 047f 8B6C2434 		movl	52(%esp), %ebp
 395 0483 85C0     		testl	%eax, %eax
 396 0485 0F8E7902 		jle	L65
 396      0000
 397 048b 8B54243C 		movl	60(%esp), %edx
 398 048f 8B5C2438 		movl	56(%esp), %ebx
 399 0493 896C2404 		movl	%ebp, 4(%esp)
 400 0497 893C24   		movl	%edi, (%esp)
 401 049a 8D4AFF   		leal	-1(%edx), %ecx
 402 049d 895C2408 		movl	%ebx, 8(%esp)
 403 04a1 BB010000 		movl	$1, %ebx
 403      00
 404 04a6 83E107   		andl	$7, %ecx
 405 04a9 894C2414 		movl	%ecx, 20(%esp)
 406 04ad E84EFBFF 		call	__Z11farsh_keyedPKvjPKj
 406      FF
 407 04b2 8B742440 		movl	64(%esp), %esi
 408 04b6 3B5C243C 		cmpl	60(%esp), %ebx
 409 04ba 8B542414 		movl	20(%esp), %edx
 410 04be 8906     		movl	%eax, (%esi)
 411 04c0 8B442438 		movl	56(%esp), %eax
 412 04c4 8D7004   		leal	4(%eax), %esi
 413 04c7 0F843702 		je	L65
 413      0000
 414 04cd 85D2     		testl	%edx, %edx
 415 04cf 0F840501 		je	L69
 415      0000
 416 04d5 83FA01   		cmpl	$1, %edx
 417 04d8 0F84D500 		je	L95
 417      0000
 418 04de 83FA02   		cmpl	$2, %edx
 419 04e1 0F84AF00 		je	L96
 419      0000
 420 04e7 83FA03   		cmpl	$3, %edx
 421 04ea 0F848900 		je	L97
 421      0000
 422 04f0 83FA04   		cmpl	$4, %edx
 423 04f3 7467     		je	L98
 424 04f5 83FA05   		cmpl	$5, %edx
 425 04f8 7445     		je	L99
 426 04fa 83FA06   		cmpl	$6, %edx
 427 04fd 7423     		je	L100
 428 04ff 89742408 		movl	%esi, 8(%esp)
 429 0503 896C2404 		movl	%ebp, 4(%esp)
 430 0507 893C24   		movl	%edi, (%esp)
 431 050a E8F1FAFF 		call	__Z11farsh_keyedPKvjPKj
 431      FF
 432 050f 8B742438 		movl	56(%esp), %esi
 433 0513 8B4C2440 		movl	64(%esp), %ecx
 434 0517 8D7608   		leal	8(%esi), %esi
 435 051a 890499   		movl	%eax, (%ecx,%ebx,4)
 436 051d BB020000 		movl	$2, %ebx
 436      00
 437              	L100:
 438 0522 89742408 		movl	%esi, 8(%esp)
 439 0526 896C2404 		movl	%ebp, 4(%esp)
 440 052a 83C604   		addl	$4, %esi
 441 052d 893C24   		movl	%edi, (%esp)
 442 0530 E8CBFAFF 		call	__Z11farsh_keyedPKvjPKj
 442      FF
 443 0535 8B542440 		movl	64(%esp), %edx
 444 0539 89049A   		movl	%eax, (%edx,%ebx,4)
 445 053c 83C301   		addl	$1, %ebx
 446              	L99:
 447 053f 89742408 		movl	%esi, 8(%esp)
 448 0543 896C2404 		movl	%ebp, 4(%esp)
 449 0547 83C604   		addl	$4, %esi
 450 054a 893C24   		movl	%edi, (%esp)
 451 054d E8AEFAFF 		call	__Z11farsh_keyedPKvjPKj
 451      FF
 452 0552 8B4C2440 		movl	64(%esp), %ecx
 453 0556 890499   		movl	%eax, (%ecx,%ebx,4)
 454 0559 83C301   		addl	$1, %ebx
 455              	L98:
 456 055c 89742408 		movl	%esi, 8(%esp)
 457 0560 896C2404 		movl	%ebp, 4(%esp)
 458 0564 83C604   		addl	$4, %esi
 459 0567 893C24   		movl	%edi, (%esp)
 460 056a E891FAFF 		call	__Z11farsh_keyedPKvjPKj
 460      FF
 461 056f 8B542440 		movl	64(%esp), %edx
 462 0573 89049A   		movl	%eax, (%edx,%ebx,4)
 463 0576 83C301   		addl	$1, %ebx
 464              	L97:
 465 0579 89742408 		movl	%esi, 8(%esp)
 466 057d 896C2404 		movl	%ebp, 4(%esp)
 467 0581 83C604   		addl	$4, %esi
 468 0584 893C24   		movl	%edi, (%esp)
 469 0587 E874FAFF 		call	__Z11farsh_keyedPKvjPKj
 469      FF
 470 058c 8B4C2440 		movl	64(%esp), %ecx
 471 0590 890499   		movl	%eax, (%ecx,%ebx,4)
 472 0593 83C301   		addl	$1, %ebx
 473              	L96:
 474 0596 89742408 		movl	%esi, 8(%esp)
 475 059a 896C2404 		movl	%ebp, 4(%esp)
 476 059e 83C604   		addl	$4, %esi
 477 05a1 893C24   		movl	%edi, (%esp)
 478 05a4 E857FAFF 		call	__Z11farsh_keyedPKvjPKj
 478      FF
 479 05a9 8B542440 		movl	64(%esp), %edx
 480 05ad 89049A   		movl	%eax, (%edx,%ebx,4)
 481 05b0 83C301   		addl	$1, %ebx
 482              	L95:
 483 05b3 89742408 		movl	%esi, 8(%esp)
 484 05b7 896C2404 		movl	%ebp, 4(%esp)
 485 05bb 83C604   		addl	$4, %esi
 486 05be 893C24   		movl	%edi, (%esp)
 487 05c1 E83AFAFF 		call	__Z11farsh_keyedPKvjPKj
 487      FF
 488 05c6 8B4C2440 		movl	64(%esp), %ecx
 489 05ca 890499   		movl	%eax, (%ecx,%ebx,4)
 490 05cd 83C301   		addl	$1, %ebx
 491 05d0 3B5C243C 		cmpl	60(%esp), %ebx
 492 05d4 0F842A01 		je	L65
 492      0000
 493              	L69:
 494 05da 89742408 		movl	%esi, 8(%esp)
 495 05de 896C2404 		movl	%ebp, 4(%esp)
 496 05e2 893C24   		movl	%edi, (%esp)
 497 05e5 E816FAFF 		call	__Z11farsh_keyedPKvjPKj
 497      FF
 498 05ea 8B542440 		movl	64(%esp), %edx
 499 05ee 8D4E04   		leal	4(%esi), %ecx
 500 05f1 89049A   		movl	%eax, (%edx,%ebx,4)
 501 05f4 8D4301   		leal	1(%ebx), %eax
 502 05f7 894C2408 		movl	%ecx, 8(%esp)
 503 05fb 896C2404 		movl	%ebp, 4(%esp)
 504 05ff 893C24   		movl	%edi, (%esp)
 505 0602 89442414 		movl	%eax, 20(%esp)
 506 0606 E8F5F9FF 		call	__Z11farsh_keyedPKvjPKj
 506      FF
 507 060b 8B542414 		movl	20(%esp), %edx
 508 060f 8B4C2440 		movl	64(%esp), %ecx
 509 0613 890491   		movl	%eax, (%ecx,%edx,4)
 510 0616 8D4E08   		leal	8(%esi), %ecx
 511 0619 8D4302   		leal	2(%ebx), %eax
 512 061c 896C2404 		movl	%ebp, 4(%esp)
 513 0620 893C24   		movl	%edi, (%esp)
 514 0623 894C2408 		movl	%ecx, 8(%esp)
 515 0627 89442414 		movl	%eax, 20(%esp)
 516 062b E8D0F9FF 		call	__Z11farsh_keyedPKvjPKj
 516      FF
 517 0630 8B542414 		movl	20(%esp), %edx
 518 0634 8B4C2440 		movl	64(%esp), %ecx
 519 0638 890491   		movl	%eax, (%ecx,%edx,4)
 520 063b 8D4E0C   		leal	12(%esi), %ecx
 521 063e 8D4303   		leal	3(%ebx), %eax
 522 0641 896C2404 		movl	%ebp, 4(%esp)
 523 0645 893C24   		movl	%edi, (%esp)
 524 0648 894C2408 		movl	%ecx, 8(%esp)
 525 064c 89442414 		movl	%eax, 20(%esp)
 526 0650 E8ABF9FF 		call	__Z11farsh_keyedPKvjPKj
 526      FF
 527 0655 8B542414 		movl	20(%esp), %edx
 528 0659 8B4C2440 		movl	64(%esp), %ecx
 529 065d 890491   		movl	%eax, (%ecx,%edx,4)
 530 0660 8D4E10   		leal	16(%esi), %ecx
 531 0663 8D4304   		leal	4(%ebx), %eax
 532 0666 896C2404 		movl	%ebp, 4(%esp)
 533 066a 893C24   		movl	%edi, (%esp)
 534 066d 894C2408 		movl	%ecx, 8(%esp)
 535 0671 89442414 		movl	%eax, 20(%esp)
 536 0675 E886F9FF 		call	__Z11farsh_keyedPKvjPKj
 536      FF
 537 067a 8B542414 		movl	20(%esp), %edx
 538 067e 8B4C2440 		movl	64(%esp), %ecx
 539 0682 890491   		movl	%eax, (%ecx,%edx,4)
 540 0685 8D4E14   		leal	20(%esi), %ecx
 541 0688 8D4305   		leal	5(%ebx), %eax
 542 068b 896C2404 		movl	%ebp, 4(%esp)
 543 068f 893C24   		movl	%edi, (%esp)
 544 0692 894C2408 		movl	%ecx, 8(%esp)
 545 0696 89442414 		movl	%eax, 20(%esp)
 546 069a E861F9FF 		call	__Z11farsh_keyedPKvjPKj
 546      FF
 547 069f 8B542414 		movl	20(%esp), %edx
 548 06a3 8B4C2440 		movl	64(%esp), %ecx
 549 06a7 890491   		movl	%eax, (%ecx,%edx,4)
 550 06aa 8D4E18   		leal	24(%esi), %ecx
 551 06ad 8D4306   		leal	6(%ebx), %eax
 552 06b0 896C2404 		movl	%ebp, 4(%esp)
 553 06b4 893C24   		movl	%edi, (%esp)
 554 06b7 894C2408 		movl	%ecx, 8(%esp)
 555 06bb 89442414 		movl	%eax, 20(%esp)
 556 06bf E83CF9FF 		call	__Z11farsh_keyedPKvjPKj
 556      FF
 557 06c4 8B542414 		movl	20(%esp), %edx
 558 06c8 8B4C2440 		movl	64(%esp), %ecx
 559 06cc 890491   		movl	%eax, (%ecx,%edx,4)
 560 06cf 8D4E1C   		leal	28(%esi), %ecx
 561 06d2 8D4307   		leal	7(%ebx), %eax
 562 06d5 896C2404 		movl	%ebp, 4(%esp)
 563 06d9 893C24   		movl	%edi, (%esp)
 564 06dc 83C308   		addl	$8, %ebx
 565 06df 894C2408 		movl	%ecx, 8(%esp)
 566 06e3 89442414 		movl	%eax, 20(%esp)
 567 06e7 83C620   		addl	$32, %esi
 568 06ea E811F9FF 		call	__Z11farsh_keyedPKvjPKj
 568      FF
 569 06ef 3B5C243C 		cmpl	60(%esp), %ebx
 570 06f3 8B4C2440 		movl	64(%esp), %ecx
 571 06f7 8B542414 		movl	20(%esp), %edx
 572 06fb 890491   		movl	%eax, (%ecx,%edx,4)
 573 06fe 0F85D6FE 		jne	L69
 573      FFFF
 574              	L65:
 575 0704 83C41C   		addl	$28, %esp
 576 0707 5B       		popl	%ebx
 577 0708 5E       		popl	%esi
 578 0709 5F       		popl	%edi
 579 070a 5D       		popl	%ebp
 580 070b C3       		ret
 581 070c 8D742600 		.p2align 4,,15
 582              		.globl	__Z7farsh_nPKvjiiPj
 584              	__Z7farsh_nPKvjiiPj:
 585 0710 55       		pushl	%ebp
 586 0711 57       		pushl	%edi
 587 0712 56       		pushl	%esi
 588 0713 53       		pushl	%ebx
 589 0714 83EC1C   		subl	$28, %esp
 590 0717 8B442438 		movl	56(%esp), %eax
 591 071b 8B54243C 		movl	60(%esp), %edx
 592 071f 8B7C2430 		movl	48(%esp), %edi
 593 0723 8B6C2434 		movl	52(%esp), %ebp
 594 0727 8D1C8580 		leal	__ZL10FARSH_KEYS(,%eax,4), %ebx
 594      000000
 595 072e 85D2     		testl	%edx, %edx
 596 0730 89DE     		movl	%ebx, %esi
 597 0732 895C2410 		movl	%ebx, 16(%esp)
 598 0736 0F8E7102 		jle	L111
 598      0000
 599 073c 8B4C243C 		movl	60(%esp), %ecx
 600 0740 895C2408 		movl	%ebx, 8(%esp)
 601 0744 8D7604   		leal	4(%esi), %esi
 602 0747 896C2404 		movl	%ebp, 4(%esp)
 603 074b 893C24   		movl	%edi, (%esp)
 604 074e 8D41FF   		leal	-1(%ecx), %eax
 605 0751 83E007   		andl	$7, %eax
 606 0754 89442414 		movl	%eax, 20(%esp)
 607 0758 E8A3F8FF 		call	__Z11farsh_keyedPKvjPKj
 607      FF
 608 075d 8B5C2440 		movl	64(%esp), %ebx
 609 0761 8B542414 		movl	20(%esp), %edx
 610 0765 8903     		movl	%eax, (%ebx)
 611 0767 BB010000 		movl	$1, %ebx
 611      00
 612 076c 3B5C243C 		cmpl	60(%esp), %ebx
 613 0770 0F843702 		je	L111
 613      0000
 614 0776 85D2     		testl	%edx, %edx
 615 0778 0F840501 		je	L115
 615      0000
 616 077e 83FA01   		cmpl	$1, %edx
 617 0781 0F84D500 		je	L141
 617      0000
 618 0787 83FA02   		cmpl	$2, %edx
 619 078a 0F84AF00 		je	L142
 619      0000
 620 0790 83FA03   		cmpl	$3, %edx
 621 0793 0F848900 		je	L143
 621      0000
 622 0799 83FA04   		cmpl	$4, %edx
 623 079c 7467     		je	L144
 624 079e 83FA05   		cmpl	$5, %edx
 625 07a1 7445     		je	L145
 626 07a3 83FA06   		cmpl	$6, %edx
 627 07a6 7423     		je	L146
 628 07a8 89742408 		movl	%esi, 8(%esp)
 629 07ac 896C2404 		movl	%ebp, 4(%esp)
 630 07b0 893C24   		movl	%edi, (%esp)
 631 07b3 E848F8FF 		call	__Z11farsh_keyedPKvjPKj
 631      FF
 632 07b8 8B4C2440 		movl	64(%esp), %ecx
 633 07bc 8B742410 		movl	16(%esp), %esi
 634 07c0 890499   		movl	%eax, (%ecx,%ebx,4)
 635 07c3 83C608   		addl	$8, %esi
 636 07c6 BB020000 		movl	$2, %ebx
 636      00
 637              	L146:
 638 07cb 89742408 		movl	%esi, 8(%esp)
 639 07cf 896C2404 		movl	%ebp, 4(%esp)
 640 07d3 83C604   		addl	$4, %esi
 641 07d6 893C24   		movl	%edi, (%esp)
 642 07d9 E822F8FF 		call	__Z11farsh_keyedPKvjPKj
 642      FF
 643 07de 8B542440 		movl	64(%esp), %edx
 644 07e2 89049A   		movl	%eax, (%edx,%ebx,4)
 645 07e5 83C301   		addl	$1, %ebx
 646              	L145:
 647 07e8 89742408 		movl	%esi, 8(%esp)
 648 07ec 896C2404 		movl	%ebp, 4(%esp)
 649 07f0 83C604   		addl	$4, %esi
 650 07f3 893C24   		movl	%edi, (%esp)
 651 07f6 E805F8FF 		call	__Z11farsh_keyedPKvjPKj
 651      FF
 652 07fb 8B4C2440 		movl	64(%esp), %ecx
 653 07ff 890499   		movl	%eax, (%ecx,%ebx,4)
 654 0802 83C301   		addl	$1, %ebx
 655              	L144:
 656 0805 89742408 		movl	%esi, 8(%esp)
 657 0809 896C2404 		movl	%ebp, 4(%esp)
 658 080d 83C604   		addl	$4, %esi
 659 0810 893C24   		movl	%edi, (%esp)
 660 0813 E8E8F7FF 		call	__Z11farsh_keyedPKvjPKj
 660      FF
 661 0818 8B542440 		movl	64(%esp), %edx
 662 081c 89049A   		movl	%eax, (%edx,%ebx,4)
 663 081f 83C301   		addl	$1, %ebx
 664              	L143:
 665 0822 89742408 		movl	%esi, 8(%esp)
 666 0826 896C2404 		movl	%ebp, 4(%esp)
 667 082a 83C604   		addl	$4, %esi
 668 082d 893C24   		movl	%edi, (%esp)
 669 0830 E8CBF7FF 		call	__Z11farsh_keyedPKvjPKj
 669      FF
 670 0835 8B4C2440 		movl	64(%esp), %ecx
 671 0839 890499   		movl	%eax, (%ecx,%ebx,4)
 672 083c 83C301   		addl	$1, %ebx
 673              	L142:
 674 083f 89742408 		movl	%esi, 8(%esp)
 675 0843 896C2404 		movl	%ebp, 4(%esp)
 676 0847 83C604   		addl	$4, %esi
 677 084a 893C24   		movl	%edi, (%esp)
 678 084d E8AEF7FF 		call	__Z11farsh_keyedPKvjPKj
 678      FF
 679 0852 8B542440 		movl	64(%esp), %edx
 680 0856 89049A   		movl	%eax, (%edx,%ebx,4)
 681 0859 83C301   		addl	$1, %ebx
 682              	L141:
 683 085c 89742408 		movl	%esi, 8(%esp)
 684 0860 896C2404 		movl	%ebp, 4(%esp)
 685 0864 83C604   		addl	$4, %esi
 686 0867 893C24   		movl	%edi, (%esp)
 687 086a E891F7FF 		call	__Z11farsh_keyedPKvjPKj
 687      FF
 688 086f 8B4C2440 		movl	64(%esp), %ecx
 689 0873 890499   		movl	%eax, (%ecx,%ebx,4)
 690 0876 83C301   		addl	$1, %ebx
 691 0879 3B5C243C 		cmpl	60(%esp), %ebx
 692 087d 0F842A01 		je	L111
 692      0000
 693              	L115:
 694 0883 89742408 		movl	%esi, 8(%esp)
 695 0887 896C2404 		movl	%ebp, 4(%esp)
 696 088b 893C24   		movl	%edi, (%esp)
 697 088e E86DF7FF 		call	__Z11farsh_keyedPKvjPKj
 697      FF
 698 0893 8B542440 		movl	64(%esp), %edx
 699 0897 8D4E04   		leal	4(%esi), %ecx
 700 089a 89049A   		movl	%eax, (%edx,%ebx,4)
 701 089d 8D4301   		leal	1(%ebx), %eax
 702 08a0 894C2408 		movl	%ecx, 8(%esp)
 703 08a4 896C2404 		movl	%ebp, 4(%esp)
 704 08a8 893C24   		movl	%edi, (%esp)
 705 08ab 89442410 		movl	%eax, 16(%esp)
 706 08af E84CF7FF 		call	__Z11farsh_keyedPKvjPKj
 706      FF
 707 08b4 8B542410 		movl	16(%esp), %edx
 708 08b8 8B4C2440 		movl	64(%esp), %ecx
 709 08bc 890491   		movl	%eax, (%ecx,%edx,4)
 710 08bf 8D4E08   		leal	8(%esi), %ecx
 711 08c2 8D4302   		leal	2(%ebx), %eax
 712 08c5 896C2404 		movl	%ebp, 4(%esp)
 713 08c9 893C24   		movl	%edi, (%esp)
 714 08cc 894C2408 		movl	%ecx, 8(%esp)
 715 08d0 89442410 		movl	%eax, 16(%esp)
 716 08d4 E827F7FF 		call	__Z11farsh_keyedPKvjPKj
 716      FF
 717 08d9 8B542410 		movl	16(%esp), %edx
 718 08dd 8B4C2440 		movl	64(%esp), %ecx
 719 08e1 890491   		movl	%eax, (%ecx,%edx,4)
 720 08e4 8D4E0C   		leal	12(%esi), %ecx
 721 08e7 8D4303   		leal	3(%ebx), %eax
 722 08ea 896C2404 		movl	%ebp, 4(%esp)
 723 08ee 893C24   		movl	%edi, (%esp)
 724 08f1 894C2408 		movl	%ecx, 8(%esp)
 725 08f5 89442410 		movl	%eax, 16(%esp)
 726 08f9 E802F7FF 		call	__Z11farsh_keyedPKvjPKj
 726      FF
 727 08fe 8B542410 		movl	16(%esp), %edx
 728 0902 8B4C2440 		movl	64(%esp), %ecx
 729 0906 890491   		movl	%eax, (%ecx,%edx,4)
 730 0909 8D4E10   		leal	16(%esi), %ecx
 731 090c 8D4304   		leal	4(%ebx), %eax
 732 090f 896C2404 		movl	%ebp, 4(%esp)
 733 0913 893C24   		movl	%edi, (%esp)
 734 0916 894C2408 		movl	%ecx, 8(%esp)
 735 091a 89442410 		movl	%eax, 16(%esp)
 736 091e E8DDF6FF 		call	__Z11farsh_keyedPKvjPKj
 736      FF
 737 0923 8B542410 		movl	16(%esp), %edx
 738 0927 8B4C2440 		movl	64(%esp), %ecx
 739 092b 890491   		movl	%eax, (%ecx,%edx,4)
 740 092e 8D4E14   		leal	20(%esi), %ecx
 741 0931 8D4305   		leal	5(%ebx), %eax
 742 0934 896C2404 		movl	%ebp, 4(%esp)
 743 0938 893C24   		movl	%edi, (%esp)
 744 093b 894C2408 		movl	%ecx, 8(%esp)
 745 093f 89442410 		movl	%eax, 16(%esp)
 746 0943 E8B8F6FF 		call	__Z11farsh_keyedPKvjPKj
 746      FF
 747 0948 8B542410 		movl	16(%esp), %edx
 748 094c 8B4C2440 		movl	64(%esp), %ecx
 749 0950 890491   		movl	%eax, (%ecx,%edx,4)
 750 0953 8D4E18   		leal	24(%esi), %ecx
 751 0956 8D4306   		leal	6(%ebx), %eax
 752 0959 896C2404 		movl	%ebp, 4(%esp)
 753 095d 893C24   		movl	%edi, (%esp)
 754 0960 894C2408 		movl	%ecx, 8(%esp)
 755 0964 89442410 		movl	%eax, 16(%esp)
 756 0968 E893F6FF 		call	__Z11farsh_keyedPKvjPKj
 756      FF
 757 096d 8B542410 		movl	16(%esp), %edx
 758 0971 8B4C2440 		movl	64(%esp), %ecx
 759 0975 890491   		movl	%eax, (%ecx,%edx,4)
 760 0978 8D4E1C   		leal	28(%esi), %ecx
 761 097b 8D4307   		leal	7(%ebx), %eax
 762 097e 896C2404 		movl	%ebp, 4(%esp)
 763 0982 893C24   		movl	%edi, (%esp)
 764 0985 83C308   		addl	$8, %ebx
 765 0988 894C2408 		movl	%ecx, 8(%esp)
 766 098c 89442410 		movl	%eax, 16(%esp)
 767 0990 83C620   		addl	$32, %esi
 768 0993 E868F6FF 		call	__Z11farsh_keyedPKvjPKj
 768      FF
 769 0998 3B5C243C 		cmpl	60(%esp), %ebx
 770 099c 8B4C2440 		movl	64(%esp), %ecx
 771 09a0 8B542410 		movl	16(%esp), %edx
 772 09a4 890491   		movl	%eax, (%ecx,%edx,4)
 773 09a7 0F85D6FE 		jne	L115
 773      FFFF
 774              	L111:
 775 09ad 83C41C   		addl	$28, %esp
 776 09b0 5B       		popl	%ebx
 777 09b1 5E       		popl	%esi
 778 09b2 5F       		popl	%edi
 779 09b3 5D       		popl	%ebp
 780 09b4 C3       		ret
 781 09b5 8D742600 		.p2align 4,,15
 781      8DBC2700 
 781      000000
 782              		.globl	__Z5farshPKvj
 784              	__Z5farshPKvj:
 785 09c0 83EC14   		subl	$20, %esp
 786 09c3 8B44241C 		movl	28(%esp), %eax
 787 09c7 8B542418 		movl	24(%esp), %edx
 788 09cb C7442408 		movl	$__ZL10FARSH_KEYS, 8(%esp)
 788      80000000 
 789 09d3 89442404 		movl	%eax, 4(%esp)
 790 09d7 891424   		movl	%edx, (%esp)
 791 09da E821F6FF 		call	__Z11farsh_keyedPKvjPKj
 791      FF
 792 09df 83C414   		addl	$20, %esp
 793 09e2 C3       		ret
 795 09e3 90909090 		.section .rdata,"dr"
 795      90909090 
 795      90909090 
 795      90
 796              	LC0:
 797 0000 20282578 		.ascii " (%x)\0"
 797      2900
 798 0006 0000     		.align 4
 799              	LC5:
 800 0008 3A20252E 		.ascii ": %.3lf milliseconds = %.3lf GB/s = %.3lf GiB/s\12\0"
 800      336C6620 
 800      6D696C6C 
 800      69736563 
 800      6F6E6473 
 801              	LC6:
 802 0039 48617368 		.ascii "Hashing %d GiB\0"
 802      696E6720 
 802      25642047 
 802      694200
 803              		.section	.text.startup,"x"
 804              		.p2align 4,,15
 805              		.globl	_main
 807              	_main:
 808 0000 8D4C2404 		leal	4(%esp), %ecx
 809 0004 83E4F0   		andl	$-16, %esp
 810 0007 FF71FC   		pushl	-4(%ecx)
 811 000a 55       		pushl	%ebp
 812 000b 89E5     		movl	%esp, %ebp
 813 000d 57       		pushl	%edi
 814 000e 56       		pushl	%esi
 815 000f 53       		pushl	%ebx
 816 0010 51       		pushl	%ecx
 817 0011 83EC78   		subl	$120, %esp
 818 0014 E8000000 		call	___main
 818      00
 819 0019 B8010000 		movl	$1, %eax
 819      00
 820 001e BA17CD5B 		movl	$123456791, %edx
 820      07
 821              	L160:
 822 0023 89C1     		movl	%eax, %ecx
 823 0025 89D7     		movl	%edx, %edi
 824 0027 8D7001   		leal	1(%eax), %esi
 825 002a 83E10F   		andl	$15, %ecx
 826 002d D3EF     		shrl	%cl, %edi
 827 002f 89F1     		movl	%esi, %ecx
 828 0031 8D7003   		leal	3(%eax), %esi
 829 0034 89FB     		movl	%edi, %ebx
 830 0036 83E10F   		andl	$15, %ecx
 831 0039 8D7802   		leal	2(%eax), %edi
 832 003c 88980000 		movb	%bl, __ZZ4mainE4data(%eax)
 832      0000
 833 0042 8D9A17CD 		leal	123456791(%edx), %ebx
 833      5B07
 834 0048 D3EB     		shrl	%cl, %ebx
 835 004a 89F9     		movl	%edi, %ecx
 836 004c 8D7804   		leal	4(%eax), %edi
 837 004f 88980100 		movb	%bl, __ZZ4mainE4data+1(%eax)
 837      0000
 838 0055 8D9A2E9A 		leal	246913582(%edx), %ebx
 838      B70E
 839 005b 83E10F   		andl	$15, %ecx
 840 005e D3EB     		shrl	%cl, %ebx
 841 0060 89F1     		movl	%esi, %ecx
 842 0062 8D7005   		leal	5(%eax), %esi
 843 0065 88980200 		movb	%bl, __ZZ4mainE4data+2(%eax)
 843      0000
 844 006b 8D9A4567 		leal	370370373(%edx), %ebx
 844      1316
 845 0071 83E10F   		andl	$15, %ecx
 846 0074 D3EB     		shrl	%cl, %ebx
 847 0076 89F9     		movl	%edi, %ecx
 848 0078 8D7806   		leal	6(%eax), %edi
 849 007b 88980300 		movb	%bl, __ZZ4mainE4data+3(%eax)
 849      0000
 850 0081 8D9A5C34 		leal	493827164(%edx), %ebx
 850      6F1D
 851 0087 83E10F   		andl	$15, %ecx
 852 008a D3EB     		shrl	%cl, %ebx
 853 008c 89F1     		movl	%esi, %ecx
 854 008e 8D7007   		leal	7(%eax), %esi
 855 0091 88980400 		movb	%bl, __ZZ4mainE4data+4(%eax)
 855      0000
 856 0097 8D9A7301 		leal	617283955(%edx), %ebx
 856      CB24
 857 009d 83E10F   		andl	$15, %ecx
 858 00a0 83C008   		addl	$8, %eax
 859 00a3 D3EB     		shrl	%cl, %ebx
 860 00a5 89F9     		movl	%edi, %ecx
 861 00a7 8898FDFF 		movb	%bl, __ZZ4mainE4data-3(%eax)
 861      FFFF
 862 00ad 8D9A8ACE 		leal	740740746(%edx), %ebx
 862      262C
 863 00b3 83E10F   		andl	$15, %ecx
 864 00b6 D3EB     		shrl	%cl, %ebx
 865 00b8 89F1     		movl	%esi, %ecx
 866 00ba 8898FEFF 		movb	%bl, __ZZ4mainE4data-2(%eax)
 866      FFFF
 867 00c0 8D9AA19B 		leal	864197537(%edx), %ebx
 867      8233
 868 00c6 83E10F   		andl	$15, %ecx
 869 00c9 81C2B868 		addl	$987654328, %edx
 869      DE3A
 870 00cf D3EB     		shrl	%cl, %ebx
 871 00d1 8898FFFF 		movb	%bl, __ZZ4mainE4data-1(%eax)
 871      FFFF
 872 00d7 3D017000 		cmpl	$28673, %eax
 872      00
 873 00dc 0F8541FF 		jne	L160
 873      FFFF
 874 00e2 C7442408 		movl	$__ZL10FARSH_KEYS, 8(%esp)
 874      80000000 
 875 00ea C7442404 		movl	$28673, 4(%esp)
 875      01700000 
 876 00f2 BF017000 		movl	$28673, %edi
 876      00
 877 00f7 C7042400 		movl	$__ZZ4mainE4data, (%esp)
 877      000000
 878 00fe C6050000 		movb	$0, __ZZ4mainE4data
 878      000000
 879 0105 E8000000 		call	__Z11farsh_keyedPKvjPKj
 879      00
 880 010a 83F82A   		cmpl	$42, %eax
 881 010d 0F842801 		je	L161
 881      0000
 882 0113 C7442408 		movl	$__ZL10FARSH_KEYS, 8(%esp)
 882      80000000 
 883 011b C7442404 		movl	$28672, 4(%esp)
 883      00700000 
 884 0123 C7042401 		movl	$__ZZ4mainE4data+1, (%esp)
 884      000000
 885 012a C6050100 		movb	$1, __ZZ4mainE4data+1
 885      000001
 886 0131 E8000000 		call	__Z11farsh_keyedPKvjPKj
 886      00
 887 0136 83F82A   		cmpl	$42, %eax
 888 0139 0F84FC00 		je	L161
 888      0000
 889 013f BB020000 		movl	$2, %ebx
 889      00
 890 0144 E9C50000 		jmp	L162
 890      00
 891 0149 8DB42600 		.p2align 4,,10
 891      000000
 892              	L212:
 893 0150 8D4B01   		leal	1(%ebx), %ecx
 894 0153 89FE     		movl	%edi, %esi
 895 0155 C7442408 		movl	$__ZL10FARSH_KEYS, 8(%esp)
 895      80000000 
 896 015d 29CE     		subl	%ecx, %esi
 897 015f 88890000 		movb	%cl, __ZZ4mainE4data(%ecx)
 897      0000
 898 0165 81C10000 		addl	$__ZZ4mainE4data, %ecx
 898      0000
 899 016b 89742404 		movl	%esi, 4(%esp)
 900 016f 890C24   		movl	%ecx, (%esp)
 901 0172 E8000000 		call	__Z11farsh_keyedPKvjPKj
 901      00
 902 0177 83F82A   		cmpl	$42, %eax
 903 017a 0F84BB00 		je	L161
 903      0000
 904 0180 8D4302   		leal	2(%ebx), %eax
 905 0183 89FA     		movl	%edi, %edx
 906 0185 C7442408 		movl	$__ZL10FARSH_KEYS, 8(%esp)
 906      80000000 
 907 018d 29C2     		subl	%eax, %edx
 908 018f 88800000 		movb	%al, __ZZ4mainE4data(%eax)
 908      0000
 909 0195 05000000 		addl	$__ZZ4mainE4data, %eax
 909      00
 910 019a 89542404 		movl	%edx, 4(%esp)
 911 019e 890424   		movl	%eax, (%esp)
 912 01a1 E8000000 		call	__Z11farsh_keyedPKvjPKj
 912      00
 913 01a6 83F82A   		cmpl	$42, %eax
 914 01a9 0F848C00 		je	L161
 914      0000
 915 01af 8D4B03   		leal	3(%ebx), %ecx
 916 01b2 89FE     		movl	%edi, %esi
 917 01b4 C7442408 		movl	$__ZL10FARSH_KEYS, 8(%esp)
 917      80000000 
 918 01bc 29CE     		subl	%ecx, %esi
 919 01be 88890000 		movb	%cl, __ZZ4mainE4data(%ecx)
 919      0000
 920 01c4 81C10000 		addl	$__ZZ4mainE4data, %ecx
 920      0000
 921 01ca 89742404 		movl	%esi, 4(%esp)
 922 01ce 890C24   		movl	%ecx, (%esp)
 923 01d1 E8000000 		call	__Z11farsh_keyedPKvjPKj
 923      00
 924 01d6 83F82A   		cmpl	$42, %eax
 925 01d9 7460     		je	L161
 926 01db 8D4304   		leal	4(%ebx), %eax
 927 01de 89FA     		movl	%edi, %edx
 928 01e0 C7442408 		movl	$__ZL10FARSH_KEYS, 8(%esp)
 928      80000000 
 929 01e8 29C2     		subl	%eax, %edx
 930 01ea 88800000 		movb	%al, __ZZ4mainE4data(%eax)
 930      0000
 931 01f0 05000000 		addl	$__ZZ4mainE4data, %eax
 931      00
 932 01f5 89542404 		movl	%edx, 4(%esp)
 933 01f9 890424   		movl	%eax, (%esp)
 934 01fc E8000000 		call	__Z11farsh_keyedPKvjPKj
 934      00
 935 0201 83F82A   		cmpl	$42, %eax
 936 0204 7435     		je	L161
 937 0206 83C305   		addl	$5, %ebx
 938 0209 83FB11   		cmpl	$17, %ebx
 939 020c 742D     		je	L161
 940              	L162:
 941 020e 8D930000 		leal	__ZZ4mainE4data(%ebx), %edx
 941      0000
 942 0214 89F8     		movl	%edi, %eax
 943 0216 C7442408 		movl	$__ZL10FARSH_KEYS, 8(%esp)
 943      80000000 
 944 021e 29D8     		subl	%ebx, %eax
 945 0220 889B0000 		movb	%bl, __ZZ4mainE4data(%ebx)
 945      0000
 946 0226 89442404 		movl	%eax, 4(%esp)
 947 022a 891424   		movl	%edx, (%esp)
 948 022d E8000000 		call	__Z11farsh_keyedPKvjPKj
 948      00
 949 0232 83F82A   		cmpl	$42, %eax
 950 0235 0F8515FF 		jne	L212
 950      FFFF
 951              	L161:
 952 023b 8D7DD8   		leal	-40(%ebp), %edi
 953 023e C7442404 		movl	$100, 4(%esp)
 953      64000000 
 954 0246 C7042439 		movl	$LC6, (%esp)
 954      000000
 955 024d E8000000 		call	_printf
 955      00
 956 0252 893C24   		movl	%edi, (%esp)
 957 0255 8D5DC8   		leal	-56(%ebp), %ebx
 958 0258 FF150000 		call	*__imp__QueryPerformanceFrequency@4
 958      0000
 959 025e 8B350000 		movl	__imp__QueryPerformanceCounter@4, %esi
 959      0000
 960 0264 83EC04   		subl	$4, %esp
 961 0267 891C24   		movl	%ebx, (%esp)
 962 026a 89759C   		movl	%esi, -100(%ebp)
 963 026d 89F7     		movl	%esi, %edi
 964 026f FFD6     		call	*%esi
 965 0271 8D4DD0   		leal	-48(%ebp), %ecx
 966 0274 83EC04   		subl	$4, %esp
 967 0277 89F0     		movl	%esi, %eax
 968 0279 890C24   		movl	%ecx, (%esp)
 969 027c FFD0     		call	*%eax
 970 027e 8B75D0   		movl	-48(%ebp), %esi
 971 0281 83EC04   		subl	$4, %esp
 972 0284 2B75C8   		subl	-56(%ebp), %esi
 973 0287 8B55D4   		movl	-44(%ebp), %edx
 974 028a 1B55CC   		sbbl	-52(%ebp), %edx
 975 028d 891C24   		movl	%ebx, (%esp)
 976 0290 8975E0   		movl	%esi, -32(%ebp)
 977 0293 8955E4   		movl	%edx, -28(%ebp)
 978 0296 FFD7     		call	*%edi
 979 0298 C745A001 		movl	$1, -96(%ebp)
 979      000000
 980 029f 83EC04   		subl	$4, %esp
 981              	L170:
 982 02a2 0FB64DA0 		movzbl	-96(%ebp), %ecx
 983 02a6 C745A400 		movl	$0, -92(%ebp)
 983      000000
 984 02ad C745A800 		movl	$0, -88(%ebp)
 984      000000
 985 02b4 C745AC00 		movl	$0, -84(%ebp)
 985      000000
 986 02bb C745B000 		movl	$0, -80(%ebp)
 986      000000
 987 02c2 C745B400 		movl	$__ZZ4mainE4data, -76(%ebp)
 987      000000
 988 02c9 83E901   		subl	$1, %ecx
 989 02cc 880D0000 		movb	%cl, __ZZ4mainE4data
 989      0000
 990              		.p2align 4,,10
 991              	L163:
 992 02d2 8B5DB4   		movl	-76(%ebp), %ebx
 993 02d5 31C9     		xorl	%ecx, %ecx
 994 02d7 31F6     		xorl	%esi, %esi
 995 02d9 31FF     		xorl	%edi, %edi
 996 02db 894DB8   		movl	%ecx, -72(%ebp)
 997 02de 6690     		.p2align 4,,10
 998              	L164:
 999 02e0 8B03     		movl	(%ebx), %eax
 1000 02e2 03048D80 		addl	__ZL10FARSH_KEYS(,%ecx,4), %eax
 1000      000000
 1001 02e9 89C2     		movl	%eax, %edx
 1002 02eb 8B4304   		movl	4(%ebx), %eax
 1003 02ee 03048D84 		addl	__ZL10FARSH_KEYS+4(,%ecx,4), %eax
 1003      000000
 1004 02f5 F7E2     		mull	%edx
 1005 02f7 01C6     		addl	%eax, %esi
 1006 02f9 8B4308   		movl	8(%ebx), %eax
 1007 02fc 11D7     		adcl	%edx, %edi
 1008 02fe 83C102   		addl	$2, %ecx
 1009 0301 8B530C   		movl	12(%ebx), %edx
 1010 0304 03048D80 		addl	__ZL10FARSH_KEYS(,%ecx,4), %eax
 1010      000000
 1011 030b 03148D84 		addl	__ZL10FARSH_KEYS+4(,%ecx,4), %edx
 1011      000000
 1012 0312 8B4DB8   		movl	-72(%ebp), %ecx
 1013 0315 F7E2     		mull	%edx
 1014 0317 01C6     		addl	%eax, %esi
 1015 0319 8B4310   		movl	16(%ebx), %eax
 1016 031c 11D7     		adcl	%edx, %edi
 1017 031e 8D5104   		leal	4(%ecx), %edx
 1018 0321 8B4B14   		movl	20(%ebx), %ecx
 1019 0324 03049580 		addl	__ZL10FARSH_KEYS(,%edx,4), %eax
 1019      000000
 1020 032b 030C9584 		addl	__ZL10FARSH_KEYS+4(,%edx,4), %ecx
 1020      000000
 1021 0332 F7E1     		mull	%ecx
 1022 0334 8B4DB8   		movl	-72(%ebp), %ecx
 1023 0337 01C6     		addl	%eax, %esi
 1024 0339 8B4318   		movl	24(%ebx), %eax
 1025 033c 11D7     		adcl	%edx, %edi
 1026 033e 8D5106   		leal	6(%ecx), %edx
 1027 0341 8B4B1C   		movl	28(%ebx), %ecx
 1028 0344 03049580 		addl	__ZL10FARSH_KEYS(,%edx,4), %eax
 1028      000000
 1029 034b 030C9584 		addl	__ZL10FARSH_KEYS+4(,%edx,4), %ecx
 1029      000000
 1030 0352 F7E1     		mull	%ecx
 1031 0354 8B4DB8   		movl	-72(%ebp), %ecx
 1032 0357 01C6     		addl	%eax, %esi
 1033 0359 8B4320   		movl	32(%ebx), %eax
 1034 035c 11D7     		adcl	%edx, %edi
 1035 035e 8D5108   		leal	8(%ecx), %edx
 1036 0361 8B4B24   		movl	36(%ebx), %ecx
 1037 0364 03049580 		addl	__ZL10FARSH_KEYS(,%edx,4), %eax
 1037      000000
 1038 036b 030C9584 		addl	__ZL10FARSH_KEYS+4(,%edx,4), %ecx
 1038      000000
 1039 0372 F7E1     		mull	%ecx
 1040 0374 8B4DB8   		movl	-72(%ebp), %ecx
 1041 0377 01C6     		addl	%eax, %esi
 1042 0379 8B4328   		movl	40(%ebx), %eax
 1043 037c 11D7     		adcl	%edx, %edi
 1044 037e 8D510A   		leal	10(%ecx), %edx
 1045 0381 8B4B2C   		movl	44(%ebx), %ecx
 1046 0384 03049580 		addl	__ZL10FARSH_KEYS(,%edx,4), %eax
 1046      000000
 1047 038b 030C9584 		addl	__ZL10FARSH_KEYS+4(,%edx,4), %ecx
 1047      000000
 1048 0392 F7E1     		mull	%ecx
 1049 0394 8B4DB8   		movl	-72(%ebp), %ecx
 1050 0397 01C6     		addl	%eax, %esi
 1051 0399 8B4330   		movl	48(%ebx), %eax
 1052 039c 11D7     		adcl	%edx, %edi
 1053 039e 8D510C   		leal	12(%ecx), %edx
 1054 03a1 8B4B34   		movl	52(%ebx), %ecx
 1055 03a4 03049580 		addl	__ZL10FARSH_KEYS(,%edx,4), %eax
 1055      000000
 1056 03ab 030C9584 		addl	__ZL10FARSH_KEYS+4(,%edx,4), %ecx
 1056      000000
 1057 03b2 F7E1     		mull	%ecx
 1058 03b4 8B4DB8   		movl	-72(%ebp), %ecx
 1059 03b7 01C6     		addl	%eax, %esi
 1060 03b9 8B4338   		movl	56(%ebx), %eax
 1061 03bc 11D7     		adcl	%edx, %edi
 1062 03be 8D510E   		leal	14(%ecx), %edx
 1063 03c1 8B4B3C   		movl	60(%ebx), %ecx
 1064 03c4 03049580 		addl	__ZL10FARSH_KEYS(,%edx,4), %eax
 1064      000000
 1065 03cb 030C9584 		addl	__ZL10FARSH_KEYS+4(,%edx,4), %ecx
 1065      000000
 1066 03d2 F7E1     		mull	%ecx
 1067 03d4 01C6     		addl	%eax, %esi
 1068 03d6 11D7     		adcl	%edx, %edi
 1069 03d8 8345B810 		addl	$16, -72(%ebp)
 1070 03dc 83C340   		addl	$64, %ebx
 1071 03df 8B4DB8   		movl	-72(%ebp), %ecx
 1072 03e2 81F90001 		cmpl	$256, %ecx
 1072      0000
 1073 03e8 0F85F2FE 		jne	L164
 1073      FFFF
 1074 03ee 89F8     		movl	%edi, %eax
 1075 03f0 8B7DB0   		movl	-80(%ebp), %edi
 1076 03f3 8145B400 		addl	$1024, -76(%ebp)
 1076      040000
 1077 03fa 01F0     		addl	%esi, %eax
 1078 03fc 8B34BD80 		movl	__ZL10FARSH_KEYS(,%edi,4), %esi
 1078      000000
 1079 0403 8D8E0004 		leal	1024(%esi), %ecx
 1079      0000
 1080 0409 8975B8   		movl	%esi, -72(%ebp)
 1081 040c F7E1     		mull	%ecx
 1082 040e 0145A8   		addl	%eax, -88(%ebp)
 1083 0411 1155AC   		adcl	%edx, -84(%ebp)
 1084 0414 83C701   		addl	$1, %edi
 1085 0417 81FF0001 		cmpl	$256, %edi
 1085      0000
 1086 041d 897DB0   		movl	%edi, -80(%ebp)
 1087 0420 743E     		je	L213
 1088              	L165:
 1089 0422 817DB400 		cmpl	$__ZZ4mainE4data+28672, -76(%ebp)
 1089      700000
 1090 0429 0F82A3FE 		jb	L163
 1090      FFFF
 1091 042f 8B7DAC   		movl	-84(%ebp), %edi
 1092 0432 8B75A8   		movl	-88(%ebp), %esi
 1093 0435 89F8     		movl	%edi, %eax
 1094 0437 01F0     		addl	%esi, %eax
 1095 0439 83F82A   		cmpl	$42, %eax
 1096 043c 7459     		je	L167
 1097 043e 837DA02B 		cmpl	$43, -96(%ebp)
 1098 0442 0F84BF00 		je	L214
 1098      0000
 1099 0448 817DA092 		cmpl	$3744914, -96(%ebp)
 1099      243900
 1100 044f 7446     		je	L167
 1101              	L169:
 1102 0451 8345A001 		addl	$1, -96(%ebp)
 1103 0455 E948FEFF 		jmp	L170
 1103      FF
 1104 045a 8DB60000 		.p2align 4,,10
 1104      0000
 1105              	L213:
 1106 0460 8B7DAC   		movl	-84(%ebp), %edi
 1107 0463 8B75A8   		movl	-88(%ebp), %esi
 1108 0466 C745B000 		movl	$0, -80(%ebp)
 1108      000000
 1109 046d 89F8     		movl	%edi, %eax
 1110 046f 8B7DA4   		movl	-92(%ebp), %edi
 1111 0472 01F0     		addl	%esi, %eax
 1112 0474 F724BD80 		mull	__ZL10FARSH_KEYS(,%edi,4)
 1112      000000
 1113 047b 0145A8   		addl	%eax, -88(%ebp)
 1114 047e B8000000 		movl	$0, %eax
 1114      00
 1115 0483 1155AC   		adcl	%edx, -84(%ebp)
 1116 0486 83C701   		addl	$1, %edi
 1117 0489 81FF0001 		cmpl	$256, %edi
 1117      0000
 1118 048f 0F45C7   		cmovne	%edi, %eax
 1119 0492 8945A4   		movl	%eax, -92(%ebp)
 1120 0495 EB8B     		jmp	L165
 1121              	L167:
 1122 0497 8D55D0   		leal	-48(%ebp), %edx
 1123 049a 891424   		movl	%edx, (%esp)
 1124 049d FF559C   		call	*-100(%ebp)
 1125 04a0 8B5DD0   		movl	-48(%ebp), %ebx
 1126 04a3 83EC04   		subl	$4, %esp
 1127 04a6 2B5DC8   		subl	-56(%ebp), %ebx
 1128 04a9 8B4DD4   		movl	-44(%ebp), %ecx
 1129 04ac 1B4DCC   		sbbl	-52(%ebp), %ecx
 1130 04af 2B5DE0   		subl	-32(%ebp), %ebx
 1131 04b2 C7042408 		movl	$LC5, (%esp)
 1131      000000
 1132 04b9 1B4DE4   		sbbl	-28(%ebp), %ecx
 1133 04bc 895DB8   		movl	%ebx, -72(%ebp)
 1134 04bf 894DBC   		movl	%ecx, -68(%ebp)
 1135 04c2 DF6DB8   		fildq	-72(%ebp)
 1136 04c5 D9057C08 		flds	LC1
 1136      0000
 1137 04cb DCC9     		fmul	%st, %st(1)
 1138 04cd DF6DD8   		fildq	-40(%ebp)
 1139 04d0 DEFA     		fdivrp	%st, %st(2)
 1140 04d2 D8F9     		fdivr	%st(1), %st
 1141 04d4 D83D8008 		fdivrs	LC2
 1141      0000
 1142 04da D9C0     		fld	%st(0)
 1143 04dc D80D8408 		fmuls	LC3
 1143      0000
 1144 04e2 DD5C2414 		fstpl	20(%esp)
 1145 04e6 D8358808 		fdivs	LC4
 1145      0000
 1146 04ec DD5C240C 		fstpl	12(%esp)
 1147 04f0 DD5C2404 		fstpl	4(%esp)
 1148 04f4 E8000000 		call	_printf
 1148      00
 1149 04f9 8D65F0   		leal	-16(%ebp), %esp
 1150 04fc 31C0     		xorl	%eax, %eax
 1151 04fe 5A       		popl	%edx
 1152 04ff 5B       		popl	%ebx
 1153 0500 5E       		popl	%esi
 1154 0501 5F       		popl	%edi
 1155 0502 5D       		popl	%ebp
 1156 0503 8D62FC   		leal	-4(%edx), %esp
 1157 0506 C3       		ret
 1158              	L214:
 1159 0507 89442404 		movl	%eax, 4(%esp)
 1160 050b C7042400 		movl	$LC0, (%esp)
 1160      000000
 1161 0512 E8000000 		call	_printf
 1161      00
 1162 0517 E935FFFF 		jmp	L169
 1162      FF
 1163              	.lcomm __ZZ4mainE4data,28673,64
 1164 051c 90909090 		.section .rdata,"dr"
 1165 0048 00000000 		.align 64
 1165      00000000 
 1165      00000000 
 1165      00000000 
 1165      00000000 
 1166              	__ZL10FARSH_KEYS:
 1167 0080 396CFEB8 		.long	-1191285703
 1168 0084 BE4BA423 		.long	597969854
 1169 0088 2C81017C 		.long	2080473388
 1170 008c 1CAD21F7 		.long	-148787940
 1171 0090 E96DD4DE 		.long	-556503575
 1172 0094 DB979083 		.long	-2087675941
 1173 0098 A4A44072 		.long	1916839076
 1174 009c 1F67B3B7 		.long	-1212979425
 1175 00a0 4EE679CB 		.long	-881203634
 1176 00a4 78E5C0CC 		.long	-859773576
 1177 00a8 7DD05A82 		.long	-2107977603
 1178 00ac 2172FFCC 		.long	-855674335
 1179 00b0 744608B8 		.long	-1207417228
 1180 00b4 8E2443F7 		.long	-146594674
 1181 00b8 E69035E0 		.long	-533360410
 1182 00bc 4C263A81 		.long	-2126895540
 1183 00c0 BB52283C 		.long	1009275579
 1184 00c4 CB00C391 		.long	-1849491253
 1185 00c8 8B65D088 		.long	-1999608437
 1186 00cc A32E531B 		.long	458436259
 1187 00d0 97486471 		.long	1902397591
 1188 00d4 4EF90DA2 		.long	-1576142514
 1189 00d8 46EF1938 		.long	941223750
 1190 00dc D8ACDEA9 		.long	-1445024552
 1191 00e0 3F76FAA8 		.long	-1459980737
 1192 00e4 3F349CE3 		.long	-476302273
 1193 00e8 C7BBDCF9 		.long	-102974521
 1194 00ec 1D4F0BC7 		.long	-955560163
 1195 00f0 4BE0518A 		.long	-1974345653
 1196 00f4 3159B4CD 		.long	-843818703
 1197 00f8 C97E9FC8 		.long	-929071415
 1198 00fc 647378D9 		.long	-646417564
 1199 0100 52076A4F 		.long	1332348754
 1200 0104 9C079BA7 		.long	-1483012196
 1201 0108 9994C48F 		.long	-1882942311
 1202 010c A9B7C98E 		.long	-1899382871
 1203 0110 4922C933 		.long	868819529
 1204 0114 4F40B64E 		.long	1320566863
 1205 0118 4EFB2AFB 		.long	-81069234
 1206 011c 554281A4 		.long	-1535032747
 1207 0120 981B0E2F 		.long	789453720
 1208 0124 243BE9AC 		.long	-1394001116
 1209 0128 CD508818 		.long	411586765
 1210 012c A7745C6C 		.long	1817998503
 1211 0130 0444FA66 		.long	1727677444
 1212 0134 83ACC5EA 		.long	-356143997
 1213 0138 C3EBD334 		.long	886303683
 1214 013c FFA081C5 		.long	-981360385
 1215 0140 EB6313FA 		.long	-99392533
 1216 0144 51DD0D17 		.long	386784593
 1217 0148 49DAF0B7 		.long	-1208952247
 1218 014c 265516D3 		.long	-753511130
 1219 0150 9E68D429 		.long	701786270
 1220 0154 58BE162B 		.long	722910808
 1221 0158 FCA1477D 		.long	2101846524
 1222 015c D1B8F88F 		.long	-1879525167
 1223 0160 CE31D07A 		.long	2060464590
 1224 0164 8F3ACB45 		.long	1170946703
 1225 0168 28041695 		.long	-1793719256
 1226 016c CAFBD7AF 		.long	-1344799798
 1227 0170 7E404BBB 		.long	-1152696194
 1228 0174 A4745299 		.long	-1722649436
 1229 0178 932D9AEB 		.long	-342217325
 1230 017c 0889E73B 		.long	1005029640
 1231 0180 6C5F47ED 		.long	-314089620
 1232 0184 F2D89C91 		.long	-1851991822
 1233 0188 5A1E86D3 		.long	-746185126
 1234 018c 0C39316E 		.long	1848719628
 1235 0190 493A6AFE 		.long	-26592695
 1236 0194 1409ADDC 		.long	-592639724
 1237 0198 EB8B5006 		.long	105941995
 1238 019c F39983A8 		.long	-1467770381
 1239 01a0 2F1158B0 		.long	-1336405713
 1240 01a4 79FAB0E8 		.long	-391054727
 1241 01a8 06DAB429 		.long	699718150
 1242 01ac FB53C2ED 		.long	-306031621
 1243 01b0 AD6DE9C3 		.long	-1008112211
 1244 01b4 832B376E 		.long	1849109379
 1245 01b8 53B1784F 		.long	1333309779
 1246 01bc 866EFAFF 		.long	-364922
 1247 01c0 ECEEBE21 		.long	566161132
 1248 01c4 02EACA01 		.long	30075394
 1249 01c8 0DE56712 		.long	308798733
 1250 01cc 2F09E611 		.long	300288303
 1251 01d0 98D219E8 		.long	-400960872
 1252 01d4 DD802F83 		.long	-2094038819
 1253 01d8 77244E0C 		.long	206447735
 1254 01dc EB8678BC 		.long	-1132951829
 1255 01e0 37665001 		.long	22046263
 1256 01e4 6896A88B 		.long	-1951885720
 1257 01e8 A0E7116D 		.long	1829889952
 1258 01ec 15FD12FC 		.long	-65864427
 1259 01f0 194CA586 		.long	-2035987431
 1260 01f4 DDE33C59 		.long	1497162717
 1261 01f8 E53FB1D2 		.long	-760135707
 1262 01fc 532B778E 		.long	-1904792749
 1263 0200 CC604AAE 		.long	-1370857268
 1264 0204 1B3B7A64 		.long	1685732123
 1265 0208 E0867754 		.long	1417119456
 1266 020c 8E37C43E 		.long	1053046670
 1267 0210 89CF7A8D 		.long	-1921331319
 1268 0214 47F936CA 		.long	-902366905
 1269 0218 EFD5890E 		.long	243914223
 1270 021c 3C6ADAAA 		.long	-1428526532
 1271 0220 09A1A46D 		.long	1839505673
 1272 0224 1CE1C69A 		.long	-1698242276
 1273 0228 EF916668 		.long	1751552495
 1274 022c 2BBD57A3 		.long	-1554531029
 1275 0230 9A1B6FD1 		.long	-781247590
 1276 0234 0303C738 		.long	952566531
 1277 0238 B322467D 		.long	2101748403
 1278 023c 8FFA6829 		.long	694745743
 1279 0240 B9BCA58C 		.long	-1935295303
 1280 0244 0510D6FC 		.long	-53080059
 1281 0248 965E8B22 		.long	579559062
 1282 024c 19CC9D2C 		.long	748538905
 1283 0250 3C24CF57 		.long	1473193020
 1284 0254 C1F9533C 		.long	1012136385
 1285 0258 2C95C70C 		.long	214406444
 1286 025c F0E46D68 		.long	1752032496
 1287 0260 B547A793 		.long	-1817753675
 1288 0264 10A5874E 		.long	1317512464
 1289 0268 AE915E97 		.long	-1755410002
 1290 026c 8EB9104C 		.long	1276164494
 1291 0270 8C067F8A 		.long	-1971386740
 1292 0274 AB196B34 		.long	879434155
 1293 0278 25A63C35 		.long	893167141
 1294 027c E0500AF2 		.long	-234204960
 1295 0280 F62199CE 		.long	-828825098
 1296 0284 14E066DF 		.long	-546906092
 1297 0288 4BEF110A 		.long	168947531
 1298 028c DF4DC88B 		.long	-1949807137
 1299 0290 225DD284 		.long	-2066588382
 1300 0294 6D9323C8 		.long	-937192595
 1301 0298 C31E7494 		.long	-1804329277
 1302 029c 608A2788 		.long	-2010674592
 1303 02a0 319364B8 		.long	-1201368271
 1304 02a4 107A707A 		.long	2054191632
 1305 02a8 D6CA9272 		.long	1922222806
 1306 02ac C244C6A7 		.long	-1480178494
 1307 02b0 FA6B15BD 		.long	-1122669574
 1308 02b4 78956C64 		.long	1684837752
 1309 02b8 D5DFF4B7 		.long	-1208688683
 1310 02bc A777829F 		.long	-1618839641
 1311 02c0 4E921370 		.long	1880330830
 1312 02c4 C34C67AD 		.long	-1385739069
 1313 02c8 059DAE2C 		.long	749640965
 1314 02cc 229A2A91 		.long	-1859479006
 1315 02d0 FA537CF6 		.long	-159624198
 1316 02d4 A9227E8D 		.long	-1921113431
 1317 02d8 2B37AE59 		.long	1504589611
 1318 02dc F3990185 		.long	-2063492621
 1319 02e0 2C10A263 		.long	1671565356
 1320 02e4 6112FFD6 		.long	-687926687
 1321 02e8 E18E7356 		.long	1450413793
 1322 02ec 5B1495AA 		.long	-1433070501
 1323 02f0 3228D1FD 		.long	-36624334
 1324 02f4 EB4D685B 		.long	1533562347
 1325 02f8 94DE8407 		.long	126148244
 1326 02fc 0E3962AA 		.long	-1436403442
 1327 0300 19CF7CBB 		.long	-1149448423
 1328 0304 72D5EF0F 		.long	267375986
 1329 0308 CA415B56 		.long	1448821194
 1330 030c 02D20622 		.long	570872322
 1331 0310 7984602D 		.long	761300089
 1332 0314 3DCD0F4C 		.long	1276103997
 1333 0318 E33B6DD3 		.long	-747815965
 1334 031c 659A5A15 		.long	358259301
 1335 0320 32E7F910 		.long	284813106
 1336 0324 1E0F9BAC 		.long	-1399124194
 1337 0328 3BA0721F 		.long	527605819
 1338 032c AE4094EA 		.long	-359382866
 1339 0330 4F4B675B 		.long	1533496143
 1340 0334 D127A831 		.long	833103825
 1341 0338 4F95CAEC 		.long	-322267825
 1342 033c 1ED62C3D 		.long	1026348574
 1343 0340 A43D8D76 		.long	1988967844
 1344 0344 C15A7493 		.long	-1821091135
 1345 0348 CB585D1D 		.long	492656843
 1346 034c B6F3864B 		.long	1267135414
 1347 0350 3A92BA2A 		.long	716870202
 1348 0354 4C81650E 		.long	241533260
 1349 0358 D963E08A 		.long	-1965005863
 1350 035c B06969CD 		.long	-848729680
 1351 0360 85156436 		.long	912528773
 1352 0364 9DF52A74 		.long	1948972445
 1353 0368 16133A61 		.long	1631195926
 1354 036c 71A48E33 		.long	864986225
 1355 0370 F31A8647 		.long	1199971059
 1356 0374 C39D4730 		.long	809999811
 1357 0378 81A47012 		.long	309372033
 1358 037c 69107708 		.long	142020713
 1359 0380 D2F0C4E3 		.long	-473632558
 1360 0384 4C872902 		.long	36276044
 1361 0388 C13B8A5A 		.long	1519008705
 1362 038c 33970DE3 		.long	-485648589
 1363 0390 A2E55BD0 		.long	-799283806
 1364 0394 BA31AFE2 		.long	-491834950
 1365 0398 F9492022 		.long	572541433
 1366 039c 6A3B929F 		.long	-1617806486
 1367 03a0 EC643F03 		.long	54486252
 1368 03a4 2BB628E5 		.long	-450316757
 1369 03a8 BDEF0182 		.long	-2113802307
 1370 03ac 77D80721 		.long	554162295
 1371 03b0 F12E31D8 		.long	-667865359
 1372 03b4 999F67A5 		.long	-1519935591
 1373 03b8 1BB53017 		.long	389068059
 1374 03bc D2162675 		.long	1965430482
 1375 03c0 09593005 		.long	87054601
 1376 03c4 0B44CA0D 		.long	231359499
 1377 03c8 D9CD9320 		.long	546557401
 1378 03cc 50AB0964 		.long	1678355280
 1379 03d0 CC8E5CBA 		.long	-1168339252
 1380 03d4 EA08478D 		.long	-1924724502
 1381 03d8 17099F42 		.long	1117718807
 1382 03dc B0FA62B7 		.long	-1218250064
 1383 03e0 75EA6151 		.long	1365371509
 1384 03e4 EBA0EB45 		.long	1173070059
 1385 03e8 414BF3B6 		.long	-1225569471
 1386 03ec 23710452 		.long	1376022819
 1387 03f0 231518E4 		.long	-468183773
 1388 03f4 0AE9748D 		.long	-1921718006
 1389 03f8 1C40FA54 		.long	1425686556
 1390 03fc C70CDADD 		.long	-572912441
 1391 0400 2A18DF63 		.long	1675565098
 1392 0404 F63E40C6 		.long	-968868106
 1393 0408 E8C68E34 		.long	881772264
 1394 040c F557FFB9 		.long	-1174448139
 1395 0410 BDB852F6 		.long	-162350915
 1396 0414 F3B0860F 		.long	260485363
 1397 0418 8A083AFB 		.long	-80082806
 1398 041c 3315C74D 		.long	1304892723
 1399 0420 D217367B 		.long	2067142610
 1400 0424 EB874EA3 		.long	-1555134485
 1401 0428 DD9B2ABA 		.long	-1171612707
 1402 042c 061338E3 		.long	-482864378
 1403 0430 BBD6BA14 		.long	347788987
 1404 0434 C2C76DC9 		.long	-915552318
 1405 0438 B6543B33 		.long	859526326
 1406 043c FA7CE49B 		.long	-1679524614
 1407 0440 9992CF1D 		.long	500142745
 1408 0444 995FEAE7 		.long	-404070503
 1409 0448 CDEA8FB3 		.long	-1282413875
 1410 044c F7E2CFC3 		.long	-1009786121
 1411 0450 22E8875B 		.long	1535633442
 1412 0454 56ABC539 		.long	969255766
 1413 0458 8FA1F418 		.long	418685327
 1414 045c 9C4D482D 		.long	759713180
 1415 0460 19D56341 		.long	1097061657
 1416 0464 989E7679 		.long	2037816984
 1417 0468 F0678AF5 		.long	-175478800
 1418 046c 020C5940 		.long	1079577602
 1419 0470 C0719631 		.long	831943104
 1420 0474 3A136B26 		.long	644551482
 1421 0478 87B281AF 		.long	-1350454649
 1422 047c 37F7316A 		.long	1781659447
 1423 0480 9701BCE3 		.long	-474218089
 1424 0484 13990755 		.long	1426561299
 1425 0488 96C6729F 		.long	-1619868010
 1426 048c C8003E36 		.long	910033096
 1427 0490 47391553 		.long	1393899847
 1428 0494 7F12FDEB 		.long	-335736193
 1429 0498 1905F600 		.long	16123161
 1430 049c 2AB6A646 		.long	1185330730
 1431 04a0 8033B893 		.long	-1816644736
 1432 04a4 2493E23F 		.long	1071813412
 1433 04a8 9170C6DF 		.long	-540643183
 1434 04ac 6D38620F 		.long	258095213
 1435 04b0 795E37DC 		.long	-600351111
 1436 04b4 3E3FEA8F 		.long	-1880473794
 1437 04b8 D06384DF 		.long	-544971824
 1438 04bc 7BFA0237 		.long	922942075
 1439 04c0 5E435439 		.long	961823582
 1440 04c4 48A6CA87 		.long	-2016762296
 1441 04c8 EE8B15A9 		.long	-1458205714
 1442 04cc 250CF308 		.long	150146085
 1443 04d0 3629B866 		.long	1723345206
 1444 04d4 EB3FFCE7 		.long	-402898965
 1445 04d8 50543C18 		.long	406606928
 1446 04dc 4543EFD7 		.long	-672185531
 1447 04e0 63798C79 		.long	2039249251
 1448 04e4 57F52CC0 		.long	-1070795433
 1449 04e8 D1538509 		.long	159732689
 1450 04ec AA1243FA 		.long	-96267606
 1451 04f0 83F89EE2 		.long	-492898173
 1452 04f4 8D12AF7C 		.long	2091848333
 1453 04f8 7DA0B374 		.long	1957929085
 1454 04fc 00000000 		.space 896
 1454      00000000 
 1454      00000000 
 1454      00000000 
 1454      00000000 
 1455              		.align 4
 1456              	LC1:
 1457 087c 00007A44 		.long	1148846080
 1458              		.align 4
 1459              	LC2:
 1460 0880 0000C851 		.long	1372061696
 1461              		.align 4
 1462              	LC3:
 1463 0884 00008030 		.long	813694976
 1464              		.align 4
 1465              	LC4:
 1466 0888 286B6E4E 		.long	1315859240
 1467              		.ident	"GCC: (i686-posix-sjlj-rev2, Built by MinGW-W64 project) 4.9.2"
DEFINED SYMBOLS
                            *ABS*:0000000000000000 main.cpp
  M:\Temp\ccGvqKcA.s:6      .text:0000000000000000 __Z11farsh_keyedPKvjPKj
  M:\Temp\ccGvqKcA.s:386    .text:0000000000000470 __Z13farsh_keyed_nPKvjPKjiPj
  M:\Temp\ccGvqKcA.s:584    .text:0000000000000710 __Z7farsh_nPKvjiiPj
  M:\Temp\ccGvqKcA.s:1166   .rdata:0000000000000080 __ZL10FARSH_KEYS
  M:\Temp\ccGvqKcA.s:784    .text:00000000000009c0 __Z5farshPKvj
  M:\Temp\ccGvqKcA.s:807    .text.startup:0000000000000000 _main
  M:\Temp\ccGvqKcA.s:1163   .bss:0000000000000000 __ZZ4mainE4data

UNDEFINED SYMBOLS
___main
__imp__QueryPerformanceFrequency@4
__imp__QueryPerformanceCounter@4
_printf
