   1              		.file	"main.cpp"
   2              		.text
   3              		.p2align 4,,15
   4              		.globl	__Z11farsh_keyedPKvjPKj
   6              	__Z11farsh_keyedPKvjPKj:
   7 0000 55       		pushl	%ebp
   8 0001 57       		pushl	%edi
   9 0002 56       		pushl	%esi
  10 0003 53       		pushl	%ebx
  11 0004 83EC6C   		subl	$108, %esp
  12 0007 8B842484 		movl	132(%esp), %eax
  12      000000
  13 000e 8B9C2480 		movl	128(%esp), %ebx
  13      000000
  14 0015 8BAC2488 		movl	136(%esp), %ebp
  14      000000
  15 001c 01C3     		addl	%eax, %ebx
  16 001e 399C2480 		cmpl	%ebx, 128(%esp)
  16      000000
  17 0025 895C2434 		movl	%ebx, 52(%esp)
  18 0029 0F838104 		jae	L18
  18      0000
  19 002f 3D000400 		cmpl	$1024, %eax
  19      00
  20 0034 BA000400 		movl	$1024, %edx
  20      00
  21 0039 8D5C2458 		leal	88(%esp), %ebx
  22 003d 0F46D0   		cmovbe	%eax, %edx
  23 0040 B8000000 		movl	$0, %eax
  23      00
  24 0045 C7442448 		movl	$0, 72(%esp)
  24      00000000 
  25 004d 89D1     		movl	%edx, %ecx
  26 004f 89D6     		movl	%edx, %esi
  27 0051 89542424 		movl	%edx, 36(%esp)
  28 0055 C1E902   		shrl	$2, %ecx
  29 0058 C7442420 		movl	$0, 32(%esp)
  29      00000000 
  30 0060 C7442428 		movl	$0, 40(%esp)
  30      00000000 
  31 0068 83E1FE   		andl	$-2, %ecx
  32 006b C744242C 		movl	$0, 44(%esp)
  32      00000000 
  33 0073 894C2418 		movl	%ecx, 24(%esp)
  34 0077 C1E102   		sall	$2, %ecx
  35 007a 29CE     		subl	%ecx, %esi
  36 007c 894C243C 		movl	%ecx, 60(%esp)
  37 0080 89F2     		movl	%esi, %edx
  38 0082 89F1     		movl	%esi, %ecx
  39 0084 0F45C3   		cmovne	%ebx, %eax
  40 0087 89742430 		movl	%esi, 48(%esp)
  41 008b 83E202   		andl	$2, %edx
  42 008e 83E101   		andl	$1, %ecx
  43 0091 C1EE02   		shrl	$2, %esi
  44 0094 89442444 		movl	%eax, 68(%esp)
  45 0098 89542440 		movl	%edx, 64(%esp)
  46 009c 894C2438 		movl	%ecx, 56(%esp)
  47 00a0 8974244C 		movl	%esi, 76(%esp)
  48              		.p2align 4,,10
  49              	L15:
  50 00a4 817C2424 		cmpl	$1024, 36(%esp)
  50      00040000 
  51 00ac 0F84CE02 		je	L60
  51      0000
  52 00b2 837C2430 		cmpl	$4, 48(%esp)
  52      04
  53 00b7 8B942480 		movl	128(%esp), %edx
  53      000000
  54 00be 8D7C2458 		leal	88(%esp), %edi
  55 00c2 8B44243C 		movl	60(%esp), %eax
  56 00c6 C7442458 		movl	$0, 88(%esp)
  56      00000000 
  57 00ce C744245C 		movl	$0, 92(%esp)
  57      00000000 
  58 00d6 8D3402   		leal	(%edx,%eax), %esi
  59 00d9 7206     		jb	L6
  60 00db 8B4C244C 		movl	76(%esp), %ecx
  61 00df F3A5     		rep movsl
  62              	L6:
  63 00e1 8B5C2440 		movl	64(%esp), %ebx
  64 00e5 31C0     		xorl	%eax, %eax
  65 00e7 85DB     		testl	%ebx, %ebx
  66 00e9 740B     		je	L7
  67 00eb 0FB716   		movzwl	(%esi), %edx
  68 00ee B8020000 		movl	$2, %eax
  68      00
  69 00f3 668917   		movw	%dx, (%edi)
  70              	L7:
  71 00f6 8B4C2438 		movl	56(%esp), %ecx
  72 00fa 85C9     		testl	%ecx, %ecx
  73 00fc 7407     		je	L8
  74 00fe 0FB61C06 		movzbl	(%esi,%eax), %ebx
  75 0102 881C07   		movb	%bl, (%edi,%eax)
  76              	L8:
  77 0105 8B7C2430 		movl	48(%esp), %edi
  78 0109 85FF     		testl	%edi, %edi
  79 010b 0F841F02 		je	L61
  79      0000
  80 0111 8B742418 		movl	24(%esp), %esi
  81 0115 85F6     		testl	%esi, %esi
  82 0117 0F847303 		je	L62
  82      0000
  83              	L16:
  84 011d 8B842480 		movl	128(%esp), %eax
  84      000000
  85 0124 8B7D04   		movl	4(%ebp), %edi
  86 0127 8B742418 		movl	24(%esp), %esi
  87 012b 8B5004   		movl	4(%eax), %edx
  88 012e 8B18     		movl	(%eax), %ebx
  89 0130 035D00   		addl	0(%ebp), %ebx
  90 0133 8D4EFF   		leal	-1(%esi), %ecx
  91 0136 01D7     		addl	%edx, %edi
  92 0138 D1E9     		shrl	%ecx
  93 013a 89F8     		movl	%edi, %eax
  94 013c 83E103   		andl	$3, %ecx
  95 013f BF020000 		movl	$2, %edi
  95      00
  96 0144 F7E3     		mull	%ebx
  97 0146 83FE02   		cmpl	$2, %esi
  98 0149 89442410 		movl	%eax, 16(%esp)
  99 014d 8B842480 		movl	128(%esp), %eax
  99      000000
 100 0154 89542414 		movl	%edx, 20(%esp)
 101 0158 8D5808   		leal	8(%eax), %ebx
 102 015b 0F862201 		jbe	L53
 102      0000
 103 0161 85C9     		testl	%ecx, %ecx
 104 0163 7474     		je	L56
 105 0165 83F901   		cmpl	$1, %ecx
 106 0168 7448     		je	L45
 107 016a 83F902   		cmpl	$2, %ecx
 108 016d 7426     		je	L46
 109 016f 8B03     		movl	(%ebx), %eax
 110 0171 034508   		addl	8(%ebp), %eax
 111 0174 BF040000 		movl	$4, %edi
 111      00
 112 0179 8B8C2480 		movl	128(%esp), %ecx
 112      000000
 113 0180 89C2     		movl	%eax, %edx
 114 0182 8B4304   		movl	4(%ebx), %eax
 115 0185 03450C   		addl	12(%ebp), %eax
 116 0188 8D5910   		leal	16(%ecx), %ebx
 117 018b F7E2     		mull	%edx
 118 018d 01442410 		addl	%eax, 16(%esp)
 119 0191 11542414 		adcl	%edx, 20(%esp)
 120              	L46:
 121 0195 8B03     		movl	(%ebx), %eax
 122 0197 8B5304   		movl	4(%ebx), %edx
 123 019a 0344BD00 		addl	0(%ebp,%edi,4), %eax
 124 019e 0354BD04 		addl	4(%ebp,%edi,4), %edx
 125 01a2 F7E2     		mull	%edx
 126 01a4 01442410 		addl	%eax, 16(%esp)
 127 01a8 11542414 		adcl	%edx, 20(%esp)
 128 01ac 83C702   		addl	$2, %edi
 129 01af 83C308   		addl	$8, %ebx
 130              	L45:
 131 01b2 8B03     		movl	(%ebx), %eax
 132 01b4 8B5304   		movl	4(%ebx), %edx
 133 01b7 0344BD00 		addl	0(%ebp,%edi,4), %eax
 134 01bb 0354BD04 		addl	4(%ebp,%edi,4), %edx
 135 01bf F7E2     		mull	%edx
 136 01c1 01442410 		addl	%eax, 16(%esp)
 137 01c5 11542414 		adcl	%edx, 20(%esp)
 138 01c9 83C702   		addl	$2, %edi
 139 01cc 83C308   		addl	$8, %ebx
 140 01cf 397C2418 		cmpl	%edi, 24(%esp)
 141 01d3 0F86AA00 		jbe	L53
 141      0000
 142              	L56:
 143 01d9 8B542418 		movl	24(%esp), %edx
 144 01dd 897C240C 		movl	%edi, 12(%esp)
 145 01e1 8954241C 		movl	%edx, 28(%esp)
 146              	L11:
 147 01e5 8B7C240C 		movl	12(%esp), %edi
 148 01e9 8B03     		movl	(%ebx), %eax
 149 01eb 8B4B0C   		movl	12(%ebx), %ecx
 150 01ee 0344BD00 		addl	0(%ebp,%edi,4), %eax
 151 01f2 89C2     		movl	%eax, %edx
 152 01f4 8B4304   		movl	4(%ebx), %eax
 153 01f7 0344BD04 		addl	4(%ebp,%edi,4), %eax
 154 01fb F7E2     		mull	%edx
 155 01fd 03442410 		addl	16(%esp), %eax
 156 0201 13542414 		adcl	20(%esp), %edx
 157 0205 89442410 		movl	%eax, 16(%esp)
 158 0209 8B4308   		movl	8(%ebx), %eax
 159 020c 89542414 		movl	%edx, 20(%esp)
 160 0210 8D5702   		leal	2(%edi), %edx
 161 0213 034C9504 		addl	4(%ebp,%edx,4), %ecx
 162 0217 03449500 		addl	0(%ebp,%edx,4), %eax
 163 021b F7E1     		mull	%ecx
 164 021d 8B4B14   		movl	20(%ebx), %ecx
 165 0220 89C6     		movl	%eax, %esi
 166 0222 8B44240C 		movl	12(%esp), %eax
 167 0226 89D7     		movl	%edx, %edi
 168 0228 03742410 		addl	16(%esp), %esi
 169 022c 137C2414 		adcl	20(%esp), %edi
 170 0230 8D5004   		leal	4(%eax), %edx
 171 0233 8B4310   		movl	16(%ebx), %eax
 172 0236 034C9504 		addl	4(%ebp,%edx,4), %ecx
 173 023a 03449500 		addl	0(%ebp,%edx,4), %eax
 174 023e F7E1     		mull	%ecx
 175 0240 8B4B1C   		movl	28(%ebx), %ecx
 176 0243 01F0     		addl	%esi, %eax
 177 0245 89C6     		movl	%eax, %esi
 178 0247 8B44240C 		movl	12(%esp), %eax
 179 024b 11FA     		adcl	%edi, %edx
 180 024d 89D7     		movl	%edx, %edi
 181 024f 8D5006   		leal	6(%eax), %edx
 182 0252 8B4318   		movl	24(%ebx), %eax
 183 0255 034C9504 		addl	4(%ebp,%edx,4), %ecx
 184 0259 03449500 		addl	0(%ebp,%edx,4), %eax
 185 025d F7E1     		mull	%ecx
 186 025f 01F0     		addl	%esi, %eax
 187 0261 11FA     		adcl	%edi, %edx
 188 0263 8344240C 		addl	$8, 12(%esp)
 188      08
 189 0268 89442410 		movl	%eax, 16(%esp)
 190 026c 83C320   		addl	$32, %ebx
 191 026f 8B44240C 		movl	12(%esp), %eax
 192 0273 3944241C 		cmpl	%eax, 28(%esp)
 193 0277 89542414 		movl	%edx, 20(%esp)
 194 027b 0F8764FF 		ja	L11
 194      FFFF
 195 0281 89C7     		movl	%eax, %edi
 196              	L53:
 197 0283 8B742414 		movl	20(%esp), %esi
 198 0287 8B5C2410 		movl	16(%esp), %ebx
 199 028b 89F2     		movl	%esi, %edx
 200 028d 8D34BD00 		leal	0(,%edi,4), %esi
 200      000000
 201 0294 8B7C2444 		movl	68(%esp), %edi
 202 0298 89D8     		movl	%ebx, %eax
 203 029a 8D5E04   		leal	4(%esi), %ebx
 204 029d 85FF     		testl	%edi, %edi
 205 029f 89F9     		movl	%edi, %ecx
 206 02a1 0F84DC01 		je	L63
 206      0000
 207              	L17:
 208 02a7 8B11     		movl	(%ecx), %edx
 209 02a9 8B7C3500 		movl	0(%ebp,%esi), %edi
 210 02ad 8B741D00 		movl	0(%ebp,%ebx), %esi
 211 02b1 8B5C2414 		movl	20(%esp), %ebx
 212 02b5 01D7     		addl	%edx, %edi
 213 02b7 8B5104   		movl	4(%ecx), %edx
 214 02ba 8B4C2410 		movl	16(%esp), %ecx
 215 02be 01D6     		addl	%edx, %esi
 216 02c0 89F0     		movl	%esi, %eax
 217 02c2 F7E7     		mull	%edi
 218 02c4 01C1     		addl	%eax, %ecx
 219 02c6 11D3     		adcl	%edx, %ebx
 220 02c8 31FF     		xorl	%edi, %edi
 221 02ca 8D140B   		leal	(%ebx,%ecx), %edx
 222 02cd 89D6     		movl	%edx, %esi
 223              	L5:
 224 02cf 8B5C2420 		movl	32(%esp), %ebx
 225 02d3 8B4C2424 		movl	36(%esp), %ecx
 226 02d7 018C2480 		addl	%ecx, 128(%esp)
 226      000000
 227 02de 8B449D00 		movl	0(%ebp,%ebx,4), %eax
 228 02e2 01C8     		addl	%ecx, %eax
 229 02e4 89F9     		movl	%edi, %ecx
 230 02e6 0FAFC8   		imull	%eax, %ecx
 231 02e9 F7E6     		mull	%esi
 232 02eb 01CA     		addl	%ecx, %edx
 233 02ed 01442428 		addl	%eax, 40(%esp)
 234 02f1 89D8     		movl	%ebx, %eax
 235 02f3 1154242C 		adcl	%edx, 44(%esp)
 236 02f7 83C001   		addl	$1, %eax
 237 02fa 3D000100 		cmpl	$256, %eax
 237      00
 238 02ff 89442420 		movl	%eax, 32(%esp)
 239 0303 743D     		je	L64
 240              	L14:
 241 0305 8B442434 		movl	52(%esp), %eax
 242 0309 3B842480 		cmpl	128(%esp), %eax
 242      000000
 243 0310 0F878EFD 		ja	L15
 243      FFFF
 244 0316 8B6C242C 		movl	44(%esp), %ebp
 245 031a 8B542428 		movl	40(%esp), %edx
 246 031e 83C46C   		addl	$108, %esp
 247 0321 5B       		popl	%ebx
 248 0322 5E       		popl	%esi
 249 0323 89E8     		movl	%ebp, %eax
 250 0325 01D0     		addl	%edx, %eax
 251 0327 5F       		popl	%edi
 252 0328 5D       		popl	%ebp
 253 0329 C3       		ret
 254 032a 8DB60000 		.p2align 4,,10
 254      0000
 255              	L61:
 256 0330 8B542418 		movl	24(%esp), %edx
 257 0334 31F6     		xorl	%esi, %esi
 258 0336 31FF     		xorl	%edi, %edi
 259 0338 85D2     		testl	%edx, %edx
 260 033a 0F85DDFD 		jne	L16
 260      FFFF
 261 0340 EB8D     		jmp	L5
 262              		.p2align 4,,10
 263              	L64:
 264 0342 8B7C242C 		movl	44(%esp), %edi
 265 0346 8B742428 		movl	40(%esp), %esi
 266 034a C7442420 		movl	$0, 32(%esp)
 266      00000000 
 267 0352 89F8     		movl	%edi, %eax
 268 0354 01F0     		addl	%esi, %eax
 269 0356 8B742448 		movl	72(%esp), %esi
 270 035a F764B500 		mull	0(%ebp,%esi,4)
 271 035e 01442428 		addl	%eax, 40(%esp)
 272 0362 B8000000 		movl	$0, %eax
 272      00
 273 0367 1154242C 		adcl	%edx, 44(%esp)
 274 036b 83C601   		addl	$1, %esi
 275 036e 81FE0001 		cmpl	$256, %esi
 275      0000
 276 0374 0F45C6   		cmovne	%esi, %eax
 277 0377 89442448 		movl	%eax, 72(%esp)
 278 037b EB88     		jmp	L14
 279 037d 8D7600   		.p2align 4,,10
 280              	L60:
 281 0380 660FEFC0 		pxor	%xmm0, %xmm0
 282 0384 8B9C2480 		movl	128(%esp), %ebx
 282      000000
 283 038b 31C9     		xorl	%ecx, %ecx
 284 038d 8D7600   		.p2align 4,,10
 285              	L4:
 286 0390 F30F6F1C 		movdqu	(%ebx,%ecx), %xmm3
 286      0B
 287 0395 F30F6F54 		movdqu	16(%ebx,%ecx), %xmm2
 287      0B10
 288 039b 660FFE5C 		paddd	0(%ebp,%ecx), %xmm3
 288      0D00
 289 03a1 660F70CB 		pshufd	$49, %xmm3, %xmm1
 289      31
 290 03a6 F30F6F6C 		movdqu	32(%ebx,%ecx), %xmm5
 290      0B20
 291 03ac 660FFE54 		paddd	16(%ebp,%ecx), %xmm2
 291      0D10
 292 03b2 660F70E2 		pshufd	$49, %xmm2, %xmm4
 292      31
 293 03b7 660FFE6C 		paddd	32(%ebp,%ecx), %xmm5
 293      0D20
 294 03bd 660F70F5 		pshufd	$49, %xmm5, %xmm6
 294      31
 295 03c2 660FF4D9 		pmuludq	%xmm1, %xmm3
 296 03c6 660FF4D4 		pmuludq	%xmm4, %xmm2
 297 03ca 660FD4C3 		paddq	%xmm3, %xmm0
 298 03ce F30F6F5C 		movdqu	64(%ebx,%ecx), %xmm3
 298      0B40
 299 03d4 660FD4C2 		paddq	%xmm2, %xmm0
 300 03d8 660FF4EE 		pmuludq	%xmm6, %xmm5
 301 03dc 660FD4E8 		paddq	%xmm0, %xmm5
 302 03e0 F30F6F44 		movdqu	48(%ebx,%ecx), %xmm0
 302      0B30
 303 03e6 660FFE5C 		paddd	64(%ebp,%ecx), %xmm3
 303      0D40
 304 03ec 660F70CB 		pshufd	$49, %xmm3, %xmm1
 304      31
 305 03f1 660FFE44 		paddd	48(%ebp,%ecx), %xmm0
 305      0D30
 306 03f7 660F70F8 		pshufd	$49, %xmm0, %xmm7
 306      31
 307 03fc F30F6F64 		movdqu	80(%ebx,%ecx), %xmm4
 307      0B50
 308 0402 660FF4D9 		pmuludq	%xmm1, %xmm3
 309 0406 660FFE64 		paddd	80(%ebp,%ecx), %xmm4
 309      0D50
 310 040c 660F70D4 		pshufd	$49, %xmm4, %xmm2
 310      31
 311 0411 660FF4C7 		pmuludq	%xmm7, %xmm0
 312 0415 660FD4C5 		paddq	%xmm5, %xmm0
 313 0419 F30F6F6C 		movdqu	96(%ebx,%ecx), %xmm5
 313      0B60
 314 041f 660FD4D8 		paddq	%xmm0, %xmm3
 315 0423 F30F6F44 		movdqu	112(%ebx,%ecx), %xmm0
 315      0B70
 316 0429 660FFE6C 		paddd	96(%ebp,%ecx), %xmm5
 316      0D60
 317 042f 660FF4E2 		pmuludq	%xmm2, %xmm4
 318 0433 660F70F5 		pshufd	$49, %xmm5, %xmm6
 318      31
 319 0438 660FD4E3 		paddq	%xmm3, %xmm4
 320 043c 660FFE44 		paddd	112(%ebp,%ecx), %xmm0
 320      0D70
 321 0442 660F70F8 		pshufd	$49, %xmm0, %xmm7
 321      31
 322 0447 83E980   		subl	$-128, %ecx
 323 044a 81F90004 		cmpl	$1024, %ecx
 323      0000
 324 0450 660FF4EE 		pmuludq	%xmm6, %xmm5
 325 0454 660FD4EC 		paddq	%xmm4, %xmm5
 326 0458 660FF4C7 		pmuludq	%xmm7, %xmm0
 327 045c 660FD4C5 		paddq	%xmm5, %xmm0
 328 0460 0F852AFF 		jne	L4
 328      FFFF
 329 0466 660F70D8 		pshufd	$14, %xmm0, %xmm3
 329      0E
 330 046b 31FF     		xorl	%edi, %edi
 331 046d 660FD4C3 		paddq	%xmm3, %xmm0
 332 0471 660F70C8 		pshufd	$1, %xmm0, %xmm1
 332      01
 333 0476 660FFEC1 		paddd	%xmm1, %xmm0
 334 047a 660F7EC6 		movd	%xmm0, %esi
 335 047e E94CFEFF 		jmp	L5
 335      FF
 336              		.p2align 4,,10
 337              	L63:
 338 0483 01D0     		addl	%edx, %eax
 339 0485 31FF     		xorl	%edi, %edi
 340 0487 89C6     		movl	%eax, %esi
 341 0489 E941FEFF 		jmp	L5
 341      FF
 342 048e 6690     		.p2align 4,,10
 343              	L62:
 344 0490 BB040000 		movl	$4, %ebx
 344      00
 345 0495 31F6     		xorl	%esi, %esi
 346 0497 C7442410 		movl	$0, 16(%esp)
 346      00000000 
 347 049f C7442414 		movl	$0, 20(%esp)
 347      00000000 
 348 04a7 8D4C2458 		leal	88(%esp), %ecx
 349 04ab E9F7FDFF 		jmp	L17
 349      FF
 350              	L18:
 351 04b0 83C46C   		addl	$108, %esp
 352 04b3 31C0     		xorl	%eax, %eax
 353 04b5 5B       		popl	%ebx
 354 04b6 5E       		popl	%esi
 355 04b7 5F       		popl	%edi
 356 04b8 5D       		popl	%ebp
 357 04b9 C3       		ret
 358 04ba 8DB60000 		.p2align 4,,15
 358      0000
 359              		.globl	__Z13farsh_keyed_nPKvjPKjiPj
 361              	__Z13farsh_keyed_nPKvjPKjiPj:
 362 04c0 55       		pushl	%ebp
 363 04c1 57       		pushl	%edi
 364 04c2 56       		pushl	%esi
 365 04c3 53       		pushl	%ebx
 366 04c4 83EC2C   		subl	$44, %esp
 367 04c7 8B44244C 		movl	76(%esp), %eax
 368 04cb 8B7C2440 		movl	64(%esp), %edi
 369 04cf 8B6C2444 		movl	68(%esp), %ebp
 370 04d3 85C0     		testl	%eax, %eax
 371 04d5 0F8E7902 		jle	L65
 371      0000
 372 04db 8B54244C 		movl	76(%esp), %edx
 373 04df 8B5C2448 		movl	72(%esp), %ebx
 374 04e3 896C2404 		movl	%ebp, 4(%esp)
 375 04e7 893C24   		movl	%edi, (%esp)
 376 04ea 8D4AFF   		leal	-1(%edx), %ecx
 377 04ed 895C2408 		movl	%ebx, 8(%esp)
 378 04f1 BB010000 		movl	$1, %ebx
 378      00
 379 04f6 83E107   		andl	$7, %ecx
 380 04f9 894C241C 		movl	%ecx, 28(%esp)
 381 04fd E8FEFAFF 		call	__Z11farsh_keyedPKvjPKj
 381      FF
 382 0502 8B742450 		movl	80(%esp), %esi
 383 0506 3B5C244C 		cmpl	76(%esp), %ebx
 384 050a 8B54241C 		movl	28(%esp), %edx
 385 050e 8906     		movl	%eax, (%esi)
 386 0510 8B442448 		movl	72(%esp), %eax
 387 0514 8D7004   		leal	4(%eax), %esi
 388 0517 0F843702 		je	L65
 388      0000
 389 051d 85D2     		testl	%edx, %edx
 390 051f 0F840501 		je	L69
 390      0000
 391 0525 83FA01   		cmpl	$1, %edx
 392 0528 0F84D500 		je	L95
 392      0000
 393 052e 83FA02   		cmpl	$2, %edx
 394 0531 0F84AF00 		je	L96
 394      0000
 395 0537 83FA03   		cmpl	$3, %edx
 396 053a 0F848900 		je	L97
 396      0000
 397 0540 83FA04   		cmpl	$4, %edx
 398 0543 7467     		je	L98
 399 0545 83FA05   		cmpl	$5, %edx
 400 0548 7445     		je	L99
 401 054a 83FA06   		cmpl	$6, %edx
 402 054d 7423     		je	L100
 403 054f 89742408 		movl	%esi, 8(%esp)
 404 0553 896C2404 		movl	%ebp, 4(%esp)
 405 0557 893C24   		movl	%edi, (%esp)
 406 055a E8A1FAFF 		call	__Z11farsh_keyedPKvjPKj
 406      FF
 407 055f 8B742448 		movl	72(%esp), %esi
 408 0563 8B4C2450 		movl	80(%esp), %ecx
 409 0567 8D7608   		leal	8(%esi), %esi
 410 056a 890499   		movl	%eax, (%ecx,%ebx,4)
 411 056d BB020000 		movl	$2, %ebx
 411      00
 412              	L100:
 413 0572 89742408 		movl	%esi, 8(%esp)
 414 0576 896C2404 		movl	%ebp, 4(%esp)
 415 057a 83C604   		addl	$4, %esi
 416 057d 893C24   		movl	%edi, (%esp)
 417 0580 E87BFAFF 		call	__Z11farsh_keyedPKvjPKj
 417      FF
 418 0585 8B542450 		movl	80(%esp), %edx
 419 0589 89049A   		movl	%eax, (%edx,%ebx,4)
 420 058c 83C301   		addl	$1, %ebx
 421              	L99:
 422 058f 89742408 		movl	%esi, 8(%esp)
 423 0593 896C2404 		movl	%ebp, 4(%esp)
 424 0597 83C604   		addl	$4, %esi
 425 059a 893C24   		movl	%edi, (%esp)
 426 059d E85EFAFF 		call	__Z11farsh_keyedPKvjPKj
 426      FF
 427 05a2 8B4C2450 		movl	80(%esp), %ecx
 428 05a6 890499   		movl	%eax, (%ecx,%ebx,4)
 429 05a9 83C301   		addl	$1, %ebx
 430              	L98:
 431 05ac 89742408 		movl	%esi, 8(%esp)
 432 05b0 896C2404 		movl	%ebp, 4(%esp)
 433 05b4 83C604   		addl	$4, %esi
 434 05b7 893C24   		movl	%edi, (%esp)
 435 05ba E841FAFF 		call	__Z11farsh_keyedPKvjPKj
 435      FF
 436 05bf 8B542450 		movl	80(%esp), %edx
 437 05c3 89049A   		movl	%eax, (%edx,%ebx,4)
 438 05c6 83C301   		addl	$1, %ebx
 439              	L97:
 440 05c9 89742408 		movl	%esi, 8(%esp)
 441 05cd 896C2404 		movl	%ebp, 4(%esp)
 442 05d1 83C604   		addl	$4, %esi
 443 05d4 893C24   		movl	%edi, (%esp)
 444 05d7 E824FAFF 		call	__Z11farsh_keyedPKvjPKj
 444      FF
 445 05dc 8B4C2450 		movl	80(%esp), %ecx
 446 05e0 890499   		movl	%eax, (%ecx,%ebx,4)
 447 05e3 83C301   		addl	$1, %ebx
 448              	L96:
 449 05e6 89742408 		movl	%esi, 8(%esp)
 450 05ea 896C2404 		movl	%ebp, 4(%esp)
 451 05ee 83C604   		addl	$4, %esi
 452 05f1 893C24   		movl	%edi, (%esp)
 453 05f4 E807FAFF 		call	__Z11farsh_keyedPKvjPKj
 453      FF
 454 05f9 8B542450 		movl	80(%esp), %edx
 455 05fd 89049A   		movl	%eax, (%edx,%ebx,4)
 456 0600 83C301   		addl	$1, %ebx
 457              	L95:
 458 0603 89742408 		movl	%esi, 8(%esp)
 459 0607 896C2404 		movl	%ebp, 4(%esp)
 460 060b 83C604   		addl	$4, %esi
 461 060e 893C24   		movl	%edi, (%esp)
 462 0611 E8EAF9FF 		call	__Z11farsh_keyedPKvjPKj
 462      FF
 463 0616 8B4C2450 		movl	80(%esp), %ecx
 464 061a 890499   		movl	%eax, (%ecx,%ebx,4)
 465 061d 83C301   		addl	$1, %ebx
 466 0620 3B5C244C 		cmpl	76(%esp), %ebx
 467 0624 0F842A01 		je	L65
 467      0000
 468              	L69:
 469 062a 89742408 		movl	%esi, 8(%esp)
 470 062e 896C2404 		movl	%ebp, 4(%esp)
 471 0632 893C24   		movl	%edi, (%esp)
 472 0635 E8C6F9FF 		call	__Z11farsh_keyedPKvjPKj
 472      FF
 473 063a 8B542450 		movl	80(%esp), %edx
 474 063e 8D4E04   		leal	4(%esi), %ecx
 475 0641 89049A   		movl	%eax, (%edx,%ebx,4)
 476 0644 8D4301   		leal	1(%ebx), %eax
 477 0647 894C2408 		movl	%ecx, 8(%esp)
 478 064b 896C2404 		movl	%ebp, 4(%esp)
 479 064f 893C24   		movl	%edi, (%esp)
 480 0652 8944241C 		movl	%eax, 28(%esp)
 481 0656 E8A5F9FF 		call	__Z11farsh_keyedPKvjPKj
 481      FF
 482 065b 8B54241C 		movl	28(%esp), %edx
 483 065f 8B4C2450 		movl	80(%esp), %ecx
 484 0663 890491   		movl	%eax, (%ecx,%edx,4)
 485 0666 8D4E08   		leal	8(%esi), %ecx
 486 0669 8D4302   		leal	2(%ebx), %eax
 487 066c 896C2404 		movl	%ebp, 4(%esp)
 488 0670 893C24   		movl	%edi, (%esp)
 489 0673 894C2408 		movl	%ecx, 8(%esp)
 490 0677 8944241C 		movl	%eax, 28(%esp)
 491 067b E880F9FF 		call	__Z11farsh_keyedPKvjPKj
 491      FF
 492 0680 8B54241C 		movl	28(%esp), %edx
 493 0684 8B4C2450 		movl	80(%esp), %ecx
 494 0688 890491   		movl	%eax, (%ecx,%edx,4)
 495 068b 8D4E0C   		leal	12(%esi), %ecx
 496 068e 8D4303   		leal	3(%ebx), %eax
 497 0691 896C2404 		movl	%ebp, 4(%esp)
 498 0695 893C24   		movl	%edi, (%esp)
 499 0698 894C2408 		movl	%ecx, 8(%esp)
 500 069c 8944241C 		movl	%eax, 28(%esp)
 501 06a0 E85BF9FF 		call	__Z11farsh_keyedPKvjPKj
 501      FF
 502 06a5 8B54241C 		movl	28(%esp), %edx
 503 06a9 8B4C2450 		movl	80(%esp), %ecx
 504 06ad 890491   		movl	%eax, (%ecx,%edx,4)
 505 06b0 8D4E10   		leal	16(%esi), %ecx
 506 06b3 8D4304   		leal	4(%ebx), %eax
 507 06b6 896C2404 		movl	%ebp, 4(%esp)
 508 06ba 893C24   		movl	%edi, (%esp)
 509 06bd 894C2408 		movl	%ecx, 8(%esp)
 510 06c1 8944241C 		movl	%eax, 28(%esp)
 511 06c5 E836F9FF 		call	__Z11farsh_keyedPKvjPKj
 511      FF
 512 06ca 8B54241C 		movl	28(%esp), %edx
 513 06ce 8B4C2450 		movl	80(%esp), %ecx
 514 06d2 890491   		movl	%eax, (%ecx,%edx,4)
 515 06d5 8D4E14   		leal	20(%esi), %ecx
 516 06d8 8D4305   		leal	5(%ebx), %eax
 517 06db 896C2404 		movl	%ebp, 4(%esp)
 518 06df 893C24   		movl	%edi, (%esp)
 519 06e2 894C2408 		movl	%ecx, 8(%esp)
 520 06e6 8944241C 		movl	%eax, 28(%esp)
 521 06ea E811F9FF 		call	__Z11farsh_keyedPKvjPKj
 521      FF
 522 06ef 8B54241C 		movl	28(%esp), %edx
 523 06f3 8B4C2450 		movl	80(%esp), %ecx
 524 06f7 890491   		movl	%eax, (%ecx,%edx,4)
 525 06fa 8D4E18   		leal	24(%esi), %ecx
 526 06fd 8D4306   		leal	6(%ebx), %eax
 527 0700 896C2404 		movl	%ebp, 4(%esp)
 528 0704 893C24   		movl	%edi, (%esp)
 529 0707 894C2408 		movl	%ecx, 8(%esp)
 530 070b 8944241C 		movl	%eax, 28(%esp)
 531 070f E8ECF8FF 		call	__Z11farsh_keyedPKvjPKj
 531      FF
 532 0714 8B54241C 		movl	28(%esp), %edx
 533 0718 8B4C2450 		movl	80(%esp), %ecx
 534 071c 890491   		movl	%eax, (%ecx,%edx,4)
 535 071f 8D4E1C   		leal	28(%esi), %ecx
 536 0722 8D4307   		leal	7(%ebx), %eax
 537 0725 896C2404 		movl	%ebp, 4(%esp)
 538 0729 893C24   		movl	%edi, (%esp)
 539 072c 83C308   		addl	$8, %ebx
 540 072f 894C2408 		movl	%ecx, 8(%esp)
 541 0733 8944241C 		movl	%eax, 28(%esp)
 542 0737 83C620   		addl	$32, %esi
 543 073a E8C1F8FF 		call	__Z11farsh_keyedPKvjPKj
 543      FF
 544 073f 3B5C244C 		cmpl	76(%esp), %ebx
 545 0743 8B4C2450 		movl	80(%esp), %ecx
 546 0747 8B54241C 		movl	28(%esp), %edx
 547 074b 890491   		movl	%eax, (%ecx,%edx,4)
 548 074e 0F85D6FE 		jne	L69
 548      FFFF
 549              	L65:
 550 0754 83C42C   		addl	$44, %esp
 551 0757 5B       		popl	%ebx
 552 0758 5E       		popl	%esi
 553 0759 5F       		popl	%edi
 554 075a 5D       		popl	%ebp
 555 075b C3       		ret
 556 075c 8D742600 		.p2align 4,,15
 557              		.globl	__Z7farsh_nPKvjiiPj
 559              	__Z7farsh_nPKvjiiPj:
 560 0760 55       		pushl	%ebp
 561 0761 57       		pushl	%edi
 562 0762 56       		pushl	%esi
 563 0763 53       		pushl	%ebx
 564 0764 83EC2C   		subl	$44, %esp
 565 0767 8B442448 		movl	72(%esp), %eax
 566 076b 8B54244C 		movl	76(%esp), %edx
 567 076f 8B7C2440 		movl	64(%esp), %edi
 568 0773 8B6C2444 		movl	68(%esp), %ebp
 569 0777 8D1C8580 		leal	__ZL10FARSH_KEYS(,%eax,4), %ebx
 569      000000
 570 077e 85D2     		testl	%edx, %edx
 571 0780 89DE     		movl	%ebx, %esi
 572 0782 895C2418 		movl	%ebx, 24(%esp)
 573 0786 0F8E7102 		jle	L111
 573      0000
 574 078c 8B4C244C 		movl	76(%esp), %ecx
 575 0790 895C2408 		movl	%ebx, 8(%esp)
 576 0794 8D7604   		leal	4(%esi), %esi
 577 0797 896C2404 		movl	%ebp, 4(%esp)
 578 079b 893C24   		movl	%edi, (%esp)
 579 079e 8D41FF   		leal	-1(%ecx), %eax
 580 07a1 83E007   		andl	$7, %eax
 581 07a4 8944241C 		movl	%eax, 28(%esp)
 582 07a8 E853F8FF 		call	__Z11farsh_keyedPKvjPKj
 582      FF
 583 07ad 8B5C2450 		movl	80(%esp), %ebx
 584 07b1 8B54241C 		movl	28(%esp), %edx
 585 07b5 8903     		movl	%eax, (%ebx)
 586 07b7 BB010000 		movl	$1, %ebx
 586      00
 587 07bc 3B5C244C 		cmpl	76(%esp), %ebx
 588 07c0 0F843702 		je	L111
 588      0000
 589 07c6 85D2     		testl	%edx, %edx
 590 07c8 0F840501 		je	L115
 590      0000
 591 07ce 83FA01   		cmpl	$1, %edx
 592 07d1 0F84D500 		je	L141
 592      0000
 593 07d7 83FA02   		cmpl	$2, %edx
 594 07da 0F84AF00 		je	L142
 594      0000
 595 07e0 83FA03   		cmpl	$3, %edx
 596 07e3 0F848900 		je	L143
 596      0000
 597 07e9 83FA04   		cmpl	$4, %edx
 598 07ec 7467     		je	L144
 599 07ee 83FA05   		cmpl	$5, %edx
 600 07f1 7445     		je	L145
 601 07f3 83FA06   		cmpl	$6, %edx
 602 07f6 7423     		je	L146
 603 07f8 89742408 		movl	%esi, 8(%esp)
 604 07fc 896C2404 		movl	%ebp, 4(%esp)
 605 0800 893C24   		movl	%edi, (%esp)
 606 0803 E8F8F7FF 		call	__Z11farsh_keyedPKvjPKj
 606      FF
 607 0808 8B4C2450 		movl	80(%esp), %ecx
 608 080c 8B742418 		movl	24(%esp), %esi
 609 0810 890499   		movl	%eax, (%ecx,%ebx,4)
 610 0813 83C608   		addl	$8, %esi
 611 0816 BB020000 		movl	$2, %ebx
 611      00
 612              	L146:
 613 081b 89742408 		movl	%esi, 8(%esp)
 614 081f 896C2404 		movl	%ebp, 4(%esp)
 615 0823 83C604   		addl	$4, %esi
 616 0826 893C24   		movl	%edi, (%esp)
 617 0829 E8D2F7FF 		call	__Z11farsh_keyedPKvjPKj
 617      FF
 618 082e 8B542450 		movl	80(%esp), %edx
 619 0832 89049A   		movl	%eax, (%edx,%ebx,4)
 620 0835 83C301   		addl	$1, %ebx
 621              	L145:
 622 0838 89742408 		movl	%esi, 8(%esp)
 623 083c 896C2404 		movl	%ebp, 4(%esp)
 624 0840 83C604   		addl	$4, %esi
 625 0843 893C24   		movl	%edi, (%esp)
 626 0846 E8B5F7FF 		call	__Z11farsh_keyedPKvjPKj
 626      FF
 627 084b 8B4C2450 		movl	80(%esp), %ecx
 628 084f 890499   		movl	%eax, (%ecx,%ebx,4)
 629 0852 83C301   		addl	$1, %ebx
 630              	L144:
 631 0855 89742408 		movl	%esi, 8(%esp)
 632 0859 896C2404 		movl	%ebp, 4(%esp)
 633 085d 83C604   		addl	$4, %esi
 634 0860 893C24   		movl	%edi, (%esp)
 635 0863 E898F7FF 		call	__Z11farsh_keyedPKvjPKj
 635      FF
 636 0868 8B542450 		movl	80(%esp), %edx
 637 086c 89049A   		movl	%eax, (%edx,%ebx,4)
 638 086f 83C301   		addl	$1, %ebx
 639              	L143:
 640 0872 89742408 		movl	%esi, 8(%esp)
 641 0876 896C2404 		movl	%ebp, 4(%esp)
 642 087a 83C604   		addl	$4, %esi
 643 087d 893C24   		movl	%edi, (%esp)
 644 0880 E87BF7FF 		call	__Z11farsh_keyedPKvjPKj
 644      FF
 645 0885 8B4C2450 		movl	80(%esp), %ecx
 646 0889 890499   		movl	%eax, (%ecx,%ebx,4)
 647 088c 83C301   		addl	$1, %ebx
 648              	L142:
 649 088f 89742408 		movl	%esi, 8(%esp)
 650 0893 896C2404 		movl	%ebp, 4(%esp)
 651 0897 83C604   		addl	$4, %esi
 652 089a 893C24   		movl	%edi, (%esp)
 653 089d E85EF7FF 		call	__Z11farsh_keyedPKvjPKj
 653      FF
 654 08a2 8B542450 		movl	80(%esp), %edx
 655 08a6 89049A   		movl	%eax, (%edx,%ebx,4)
 656 08a9 83C301   		addl	$1, %ebx
 657              	L141:
 658 08ac 89742408 		movl	%esi, 8(%esp)
 659 08b0 896C2404 		movl	%ebp, 4(%esp)
 660 08b4 83C604   		addl	$4, %esi
 661 08b7 893C24   		movl	%edi, (%esp)
 662 08ba E841F7FF 		call	__Z11farsh_keyedPKvjPKj
 662      FF
 663 08bf 8B4C2450 		movl	80(%esp), %ecx
 664 08c3 890499   		movl	%eax, (%ecx,%ebx,4)
 665 08c6 83C301   		addl	$1, %ebx
 666 08c9 3B5C244C 		cmpl	76(%esp), %ebx
 667 08cd 0F842A01 		je	L111
 667      0000
 668              	L115:
 669 08d3 89742408 		movl	%esi, 8(%esp)
 670 08d7 896C2404 		movl	%ebp, 4(%esp)
 671 08db 893C24   		movl	%edi, (%esp)
 672 08de E81DF7FF 		call	__Z11farsh_keyedPKvjPKj
 672      FF
 673 08e3 8B542450 		movl	80(%esp), %edx
 674 08e7 8D4E04   		leal	4(%esi), %ecx
 675 08ea 89049A   		movl	%eax, (%edx,%ebx,4)
 676 08ed 8D4301   		leal	1(%ebx), %eax
 677 08f0 894C2408 		movl	%ecx, 8(%esp)
 678 08f4 896C2404 		movl	%ebp, 4(%esp)
 679 08f8 893C24   		movl	%edi, (%esp)
 680 08fb 89442418 		movl	%eax, 24(%esp)
 681 08ff E8FCF6FF 		call	__Z11farsh_keyedPKvjPKj
 681      FF
 682 0904 8B542418 		movl	24(%esp), %edx
 683 0908 8B4C2450 		movl	80(%esp), %ecx
 684 090c 890491   		movl	%eax, (%ecx,%edx,4)
 685 090f 8D4E08   		leal	8(%esi), %ecx
 686 0912 8D4302   		leal	2(%ebx), %eax
 687 0915 896C2404 		movl	%ebp, 4(%esp)
 688 0919 893C24   		movl	%edi, (%esp)
 689 091c 894C2408 		movl	%ecx, 8(%esp)
 690 0920 89442418 		movl	%eax, 24(%esp)
 691 0924 E8D7F6FF 		call	__Z11farsh_keyedPKvjPKj
 691      FF
 692 0929 8B542418 		movl	24(%esp), %edx
 693 092d 8B4C2450 		movl	80(%esp), %ecx
 694 0931 890491   		movl	%eax, (%ecx,%edx,4)
 695 0934 8D4E0C   		leal	12(%esi), %ecx
 696 0937 8D4303   		leal	3(%ebx), %eax
 697 093a 896C2404 		movl	%ebp, 4(%esp)
 698 093e 893C24   		movl	%edi, (%esp)
 699 0941 894C2408 		movl	%ecx, 8(%esp)
 700 0945 89442418 		movl	%eax, 24(%esp)
 701 0949 E8B2F6FF 		call	__Z11farsh_keyedPKvjPKj
 701      FF
 702 094e 8B542418 		movl	24(%esp), %edx
 703 0952 8B4C2450 		movl	80(%esp), %ecx
 704 0956 890491   		movl	%eax, (%ecx,%edx,4)
 705 0959 8D4E10   		leal	16(%esi), %ecx
 706 095c 8D4304   		leal	4(%ebx), %eax
 707 095f 896C2404 		movl	%ebp, 4(%esp)
 708 0963 893C24   		movl	%edi, (%esp)
 709 0966 894C2408 		movl	%ecx, 8(%esp)
 710 096a 89442418 		movl	%eax, 24(%esp)
 711 096e E88DF6FF 		call	__Z11farsh_keyedPKvjPKj
 711      FF
 712 0973 8B542418 		movl	24(%esp), %edx
 713 0977 8B4C2450 		movl	80(%esp), %ecx
 714 097b 890491   		movl	%eax, (%ecx,%edx,4)
 715 097e 8D4E14   		leal	20(%esi), %ecx
 716 0981 8D4305   		leal	5(%ebx), %eax
 717 0984 896C2404 		movl	%ebp, 4(%esp)
 718 0988 893C24   		movl	%edi, (%esp)
 719 098b 894C2408 		movl	%ecx, 8(%esp)
 720 098f 89442418 		movl	%eax, 24(%esp)
 721 0993 E868F6FF 		call	__Z11farsh_keyedPKvjPKj
 721      FF
 722 0998 8B542418 		movl	24(%esp), %edx
 723 099c 8B4C2450 		movl	80(%esp), %ecx
 724 09a0 890491   		movl	%eax, (%ecx,%edx,4)
 725 09a3 8D4E18   		leal	24(%esi), %ecx
 726 09a6 8D4306   		leal	6(%ebx), %eax
 727 09a9 896C2404 		movl	%ebp, 4(%esp)
 728 09ad 893C24   		movl	%edi, (%esp)
 729 09b0 894C2408 		movl	%ecx, 8(%esp)
 730 09b4 89442418 		movl	%eax, 24(%esp)
 731 09b8 E843F6FF 		call	__Z11farsh_keyedPKvjPKj
 731      FF
 732 09bd 8B542418 		movl	24(%esp), %edx
 733 09c1 8B4C2450 		movl	80(%esp), %ecx
 734 09c5 890491   		movl	%eax, (%ecx,%edx,4)
 735 09c8 8D4E1C   		leal	28(%esi), %ecx
 736 09cb 8D4307   		leal	7(%ebx), %eax
 737 09ce 896C2404 		movl	%ebp, 4(%esp)
 738 09d2 893C24   		movl	%edi, (%esp)
 739 09d5 83C308   		addl	$8, %ebx
 740 09d8 894C2408 		movl	%ecx, 8(%esp)
 741 09dc 89442418 		movl	%eax, 24(%esp)
 742 09e0 83C620   		addl	$32, %esi
 743 09e3 E818F6FF 		call	__Z11farsh_keyedPKvjPKj
 743      FF
 744 09e8 3B5C244C 		cmpl	76(%esp), %ebx
 745 09ec 8B4C2450 		movl	80(%esp), %ecx
 746 09f0 8B542418 		movl	24(%esp), %edx
 747 09f4 890491   		movl	%eax, (%ecx,%edx,4)
 748 09f7 0F85D6FE 		jne	L115
 748      FFFF
 749              	L111:
 750 09fd 83C42C   		addl	$44, %esp
 751 0a00 5B       		popl	%ebx
 752 0a01 5E       		popl	%esi
 753 0a02 5F       		popl	%edi
 754 0a03 5D       		popl	%ebp
 755 0a04 C3       		ret
 756 0a05 8D742600 		.p2align 4,,15
 756      8DBC2700 
 756      000000
 757              		.globl	__Z5farshPKvj
 759              	__Z5farshPKvj:
 760 0a10 83EC1C   		subl	$28, %esp
 761 0a13 8B442424 		movl	36(%esp), %eax
 762 0a17 8B542420 		movl	32(%esp), %edx
 763 0a1b C7442408 		movl	$__ZL10FARSH_KEYS, 8(%esp)
 763      80000000 
 764 0a23 89442404 		movl	%eax, 4(%esp)
 765 0a27 891424   		movl	%edx, (%esp)
 766 0a2a E8D1F5FF 		call	__Z11farsh_keyedPKvjPKj
 766      FF
 767 0a2f 83C41C   		addl	$28, %esp
 768 0a32 C3       		ret
 770 0a33 90909090 		.section .rdata,"dr"
 770      90909090 
 770      90909090 
 770      90
 771              	LC0:
 772 0000 20282578 		.ascii " (%x)\0"
 772      2900
 773 0006 0000     		.align 4
 774              	LC5:
 775 0008 3A20252E 		.ascii ": %.3lf milliseconds = %.3lf GB/s = %.3lf GiB/s\12\0"
 775      336C6620 
 775      6D696C6C 
 775      69736563 
 775      6F6E6473 
 776              	LC6:
 777 0039 48617368 		.ascii "Hashing %d GiB\0"
 777      696E6720 
 777      25642047 
 777      694200
 778              		.section	.text.startup,"x"
 779              		.p2align 4,,15
 780              		.globl	_main
 782              	_main:
 783 0000 8D4C2404 		leal	4(%esp), %ecx
 784 0004 83E4F0   		andl	$-16, %esp
 785 0007 FF71FC   		pushl	-4(%ecx)
 786 000a 55       		pushl	%ebp
 787 000b 89E5     		movl	%esp, %ebp
 788 000d 57       		pushl	%edi
 789 000e 56       		pushl	%esi
 790 000f 53       		pushl	%ebx
 791 0010 51       		pushl	%ecx
 792 0011 83EC68   		subl	$104, %esp
 793 0014 E8000000 		call	___main
 793      00
 794 0019 B8010000 		movl	$1, %eax
 794      00
 795 001e BA17CD5B 		movl	$123456791, %edx
 795      07
 796              	L160:
 797 0023 89C1     		movl	%eax, %ecx
 798 0025 89D7     		movl	%edx, %edi
 799 0027 8D7001   		leal	1(%eax), %esi
 800 002a 83E10F   		andl	$15, %ecx
 801 002d D3EF     		shrl	%cl, %edi
 802 002f 89F1     		movl	%esi, %ecx
 803 0031 8D7003   		leal	3(%eax), %esi
 804 0034 89FB     		movl	%edi, %ebx
 805 0036 83E10F   		andl	$15, %ecx
 806 0039 8D7802   		leal	2(%eax), %edi
 807 003c 88980000 		movb	%bl, __ZZ4mainE4data(%eax)
 807      0000
 808 0042 8D9A17CD 		leal	123456791(%edx), %ebx
 808      5B07
 809 0048 D3EB     		shrl	%cl, %ebx
 810 004a 89F9     		movl	%edi, %ecx
 811 004c 8D7804   		leal	4(%eax), %edi
 812 004f 88980100 		movb	%bl, __ZZ4mainE4data+1(%eax)
 812      0000
 813 0055 8D9A2E9A 		leal	246913582(%edx), %ebx
 813      B70E
 814 005b 83E10F   		andl	$15, %ecx
 815 005e D3EB     		shrl	%cl, %ebx
 816 0060 89F1     		movl	%esi, %ecx
 817 0062 8D7005   		leal	5(%eax), %esi
 818 0065 88980200 		movb	%bl, __ZZ4mainE4data+2(%eax)
 818      0000
 819 006b 8D9A4567 		leal	370370373(%edx), %ebx
 819      1316
 820 0071 83E10F   		andl	$15, %ecx
 821 0074 D3EB     		shrl	%cl, %ebx
 822 0076 89F9     		movl	%edi, %ecx
 823 0078 8D7806   		leal	6(%eax), %edi
 824 007b 88980300 		movb	%bl, __ZZ4mainE4data+3(%eax)
 824      0000
 825 0081 8D9A5C34 		leal	493827164(%edx), %ebx
 825      6F1D
 826 0087 83E10F   		andl	$15, %ecx
 827 008a D3EB     		shrl	%cl, %ebx
 828 008c 89F1     		movl	%esi, %ecx
 829 008e 8D7007   		leal	7(%eax), %esi
 830 0091 88980400 		movb	%bl, __ZZ4mainE4data+4(%eax)
 830      0000
 831 0097 8D9A7301 		leal	617283955(%edx), %ebx
 831      CB24
 832 009d 83E10F   		andl	$15, %ecx
 833 00a0 83C008   		addl	$8, %eax
 834 00a3 D3EB     		shrl	%cl, %ebx
 835 00a5 89F9     		movl	%edi, %ecx
 836 00a7 8898FDFF 		movb	%bl, __ZZ4mainE4data-3(%eax)
 836      FFFF
 837 00ad 8D9A8ACE 		leal	740740746(%edx), %ebx
 837      262C
 838 00b3 83E10F   		andl	$15, %ecx
 839 00b6 D3EB     		shrl	%cl, %ebx
 840 00b8 89F1     		movl	%esi, %ecx
 841 00ba 8898FEFF 		movb	%bl, __ZZ4mainE4data-2(%eax)
 841      FFFF
 842 00c0 8D9AA19B 		leal	864197537(%edx), %ebx
 842      8233
 843 00c6 83E10F   		andl	$15, %ecx
 844 00c9 81C2B868 		addl	$987654328, %edx
 844      DE3A
 845 00cf D3EB     		shrl	%cl, %ebx
 846 00d1 8898FFFF 		movb	%bl, __ZZ4mainE4data-1(%eax)
 846      FFFF
 847 00d7 3D017000 		cmpl	$28673, %eax
 847      00
 848 00dc 0F8541FF 		jne	L160
 848      FFFF
 849 00e2 C7442408 		movl	$__ZL10FARSH_KEYS, 8(%esp)
 849      80000000 
 850 00ea C7442404 		movl	$28673, 4(%esp)
 850      01700000 
 851 00f2 BF017000 		movl	$28673, %edi
 851      00
 852 00f7 C7042400 		movl	$__ZZ4mainE4data, (%esp)
 852      000000
 853 00fe C6050000 		movb	$0, __ZZ4mainE4data
 853      000000
 854 0105 E8000000 		call	__Z11farsh_keyedPKvjPKj
 854      00
 855 010a 83F82A   		cmpl	$42, %eax
 856 010d 0F842101 		je	L161
 856      0000
 857 0113 C7442408 		movl	$__ZL10FARSH_KEYS, 8(%esp)
 857      80000000 
 858 011b C7442404 		movl	$28672, 4(%esp)
 858      00700000 
 859 0123 C7042401 		movl	$__ZZ4mainE4data+1, (%esp)
 859      000000
 860 012a C6050100 		movb	$1, __ZZ4mainE4data+1
 860      000001
 861 0131 E8000000 		call	__Z11farsh_keyedPKvjPKj
 861      00
 862 0136 83F82A   		cmpl	$42, %eax
 863 0139 0F84F500 		je	L161
 863      0000
 864 013f BB020000 		movl	$2, %ebx
 864      00
 865 0144 E9BE0000 		jmp	L162
 865      00
 866              	L212:
 867 0149 8D4B01   		leal	1(%ebx), %ecx
 868 014c 89FE     		movl	%edi, %esi
 869 014e C7442408 		movl	$__ZL10FARSH_KEYS, 8(%esp)
 869      80000000 
 870 0156 29CE     		subl	%ecx, %esi
 871 0158 88890000 		movb	%cl, __ZZ4mainE4data(%ecx)
 871      0000
 872 015e 81C10000 		addl	$__ZZ4mainE4data, %ecx
 872      0000
 873 0164 89742404 		movl	%esi, 4(%esp)
 874 0168 890C24   		movl	%ecx, (%esp)
 875 016b E8000000 		call	__Z11farsh_keyedPKvjPKj
 875      00
 876 0170 83F82A   		cmpl	$42, %eax
 877 0173 0F84BB00 		je	L161
 877      0000
 878 0179 8D4302   		leal	2(%ebx), %eax
 879 017c 89FA     		movl	%edi, %edx
 880 017e C7442408 		movl	$__ZL10FARSH_KEYS, 8(%esp)
 880      80000000 
 881 0186 29C2     		subl	%eax, %edx
 882 0188 88800000 		movb	%al, __ZZ4mainE4data(%eax)
 882      0000
 883 018e 05000000 		addl	$__ZZ4mainE4data, %eax
 883      00
 884 0193 89542404 		movl	%edx, 4(%esp)
 885 0197 890424   		movl	%eax, (%esp)
 886 019a E8000000 		call	__Z11farsh_keyedPKvjPKj
 886      00
 887 019f 83F82A   		cmpl	$42, %eax
 888 01a2 0F848C00 		je	L161
 888      0000
 889 01a8 8D4B03   		leal	3(%ebx), %ecx
 890 01ab 89FE     		movl	%edi, %esi
 891 01ad C7442408 		movl	$__ZL10FARSH_KEYS, 8(%esp)
 891      80000000 
 892 01b5 29CE     		subl	%ecx, %esi
 893 01b7 88890000 		movb	%cl, __ZZ4mainE4data(%ecx)
 893      0000
 894 01bd 81C10000 		addl	$__ZZ4mainE4data, %ecx
 894      0000
 895 01c3 89742404 		movl	%esi, 4(%esp)
 896 01c7 890C24   		movl	%ecx, (%esp)
 897 01ca E8000000 		call	__Z11farsh_keyedPKvjPKj
 897      00
 898 01cf 83F82A   		cmpl	$42, %eax
 899 01d2 7460     		je	L161
 900 01d4 8D4304   		leal	4(%ebx), %eax
 901 01d7 89FA     		movl	%edi, %edx
 902 01d9 C7442408 		movl	$__ZL10FARSH_KEYS, 8(%esp)
 902      80000000 
 903 01e1 29C2     		subl	%eax, %edx
 904 01e3 88800000 		movb	%al, __ZZ4mainE4data(%eax)
 904      0000
 905 01e9 05000000 		addl	$__ZZ4mainE4data, %eax
 905      00
 906 01ee 89542404 		movl	%edx, 4(%esp)
 907 01f2 890424   		movl	%eax, (%esp)
 908 01f5 E8000000 		call	__Z11farsh_keyedPKvjPKj
 908      00
 909 01fa 83F82A   		cmpl	$42, %eax
 910 01fd 7435     		je	L161
 911 01ff 83C305   		addl	$5, %ebx
 912 0202 83FB11   		cmpl	$17, %ebx
 913 0205 742D     		je	L161
 914              	L162:
 915 0207 8D930000 		leal	__ZZ4mainE4data(%ebx), %edx
 915      0000
 916 020d 89F8     		movl	%edi, %eax
 917 020f C7442408 		movl	$__ZL10FARSH_KEYS, 8(%esp)
 917      80000000 
 918 0217 29D8     		subl	%ebx, %eax
 919 0219 889B0000 		movb	%bl, __ZZ4mainE4data(%ebx)
 919      0000
 920 021f 89442404 		movl	%eax, 4(%esp)
 921 0223 891424   		movl	%edx, (%esp)
 922 0226 E8000000 		call	__Z11farsh_keyedPKvjPKj
 922      00
 923 022b 83F82A   		cmpl	$42, %eax
 924 022e 0F8515FF 		jne	L212
 924      FFFF
 925              	L161:
 926 0234 8D7DD8   		leal	-40(%ebp), %edi
 927 0237 C7442404 		movl	$100, 4(%esp)
 927      64000000 
 928 023f C7042439 		movl	$LC6, (%esp)
 928      000000
 929 0246 E8000000 		call	_printf
 929      00
 930 024b 893C24   		movl	%edi, (%esp)
 931 024e 8D5DC8   		leal	-56(%ebp), %ebx
 932 0251 FF150000 		call	*__imp__QueryPerformanceFrequency@4
 932      0000
 933 0257 8B350000 		movl	__imp__QueryPerformanceCounter@4, %esi
 933      0000
 934 025d 83EC04   		subl	$4, %esp
 935 0260 891C24   		movl	%ebx, (%esp)
 936 0263 8975B0   		movl	%esi, -80(%ebp)
 937 0266 89F7     		movl	%esi, %edi
 938 0268 FFD6     		call	*%esi
 939 026a 8D4DD0   		leal	-48(%ebp), %ecx
 940 026d 83EC04   		subl	$4, %esp
 941 0270 89F0     		movl	%esi, %eax
 942 0272 890C24   		movl	%ecx, (%esp)
 943 0275 FFD0     		call	*%eax
 944 0277 8B75D0   		movl	-48(%ebp), %esi
 945 027a 83EC04   		subl	$4, %esp
 946 027d 2B75C8   		subl	-56(%ebp), %esi
 947 0280 8B55D4   		movl	-44(%ebp), %edx
 948 0283 1B55CC   		sbbl	-52(%ebp), %edx
 949 0286 891C24   		movl	%ebx, (%esp)
 950 0289 8975E0   		movl	%esi, -32(%ebp)
 951 028c 8955E4   		movl	%edx, -28(%ebp)
 952 028f FFD7     		call	*%edi
 953 0291 C745B401 		movl	$1, -76(%ebp)
 953      000000
 954 0298 83EC04   		subl	$4, %esp
 955 029b 908D7426 		.p2align 4,,10
 955      00
 956              	L170:
 957 02a0 0FB64DB4 		movzbl	-76(%ebp), %ecx
 958 02a4 C745B800 		movl	$0, -72(%ebp)
 958      000000
 959 02ab 31F6     		xorl	%esi, %esi
 960 02ad 31FF     		xorl	%edi, %edi
 961 02af 31DB     		xorl	%ebx, %ebx
 962 02b1 83E901   		subl	$1, %ecx
 963 02b4 880D0000 		movb	%cl, __ZZ4mainE4data
 963      0000
 964 02ba B9000000 		movl	$__ZZ4mainE4data, %ecx
 964      00
 965 02bf 90       		.p2align 4,,10
 966              	L163:
 967 02c0 660FEFC0 		pxor	%xmm0, %xmm0
 968 02c4 31C0     		xorl	%eax, %eax
 969 02c6 8D76008D 		.p2align 4,,10
 969      BC270000 
 969      0000
 970              	L164:
 971 02d0 F30F6F1C 		movdqu	(%ecx,%eax), %xmm3
 971      01
 972 02d5 F30F6F54 		movdqu	16(%ecx,%eax), %xmm2
 972      0110
 973 02db 660FFE98 		paddd	__ZL10FARSH_KEYS(%eax), %xmm3
 973      80000000 
 974 02e3 660F70CB 		pshufd	$49, %xmm3, %xmm1
 974      31
 975 02e8 F30F6F6C 		movdqu	32(%ecx,%eax), %xmm5
 975      0120
 976 02ee 660FFE90 		paddd	__ZL10FARSH_KEYS+16(%eax), %xmm2
 976      90000000 
 977 02f6 660F70E2 		pshufd	$49, %xmm2, %xmm4
 977      31
 978 02fb 660FFEA8 		paddd	__ZL10FARSH_KEYS+32(%eax), %xmm5
 978      A0000000 
 979 0303 660F70F5 		pshufd	$49, %xmm5, %xmm6
 979      31
 980 0308 660FF4D9 		pmuludq	%xmm1, %xmm3
 981 030c F30F6F7C 		movdqu	48(%ecx,%eax), %xmm7
 981      0130
 982 0312 660FF4D4 		pmuludq	%xmm4, %xmm2
 983 0316 660FD4C3 		paddq	%xmm3, %xmm0
 984 031a 660FD4C2 		paddq	%xmm2, %xmm0
 985 031e 660FFEB8 		paddd	__ZL10FARSH_KEYS+48(%eax), %xmm7
 985      B0000000 
 986 0326 660FF4EE 		pmuludq	%xmm6, %xmm5
 987 032a F30F6F5C 		movdqu	64(%ecx,%eax), %xmm3
 987      0140
 988 0330 660FD4E8 		paddq	%xmm0, %xmm5
 989 0334 660F70C7 		pshufd	$49, %xmm7, %xmm0
 989      31
 990 0339 660FFE98 		paddd	__ZL10FARSH_KEYS+64(%eax), %xmm3
 990      C0000000 
 991 0341 660F70CB 		pshufd	$49, %xmm3, %xmm1
 991      31
 992 0346 F30F6F64 		movdqu	80(%ecx,%eax), %xmm4
 992      0150
 993 034c 660FF4F8 		pmuludq	%xmm0, %xmm7
 994 0350 F30F6F44 		movdqu	112(%ecx,%eax), %xmm0
 994      0170
 995 0356 660FD4FD 		paddq	%xmm5, %xmm7
 996 035a 660FFEA0 		paddd	__ZL10FARSH_KEYS+80(%eax), %xmm4
 996      D0000000 
 997 0362 660FF4D9 		pmuludq	%xmm1, %xmm3
 998 0366 660F70D4 		pshufd	$49, %xmm4, %xmm2
 998      31
 999 036b F30F6F6C 		movdqu	96(%ecx,%eax), %xmm5
 999      0160
 1000 0371 660FFE80 		paddd	__ZL10FARSH_KEYS+112(%eax), %xmm0
 1000      F0000000 
 1001 0379 660FD4DF 		paddq	%xmm7, %xmm3
 1002 037d 660F70F8 		pshufd	$49, %xmm0, %xmm7
 1002      31
 1003 0382 83E880   		subl	$-128, %eax
 1004 0385 660FFEA8 		paddd	__ZL10FARSH_KEYS-32(%eax), %xmm5
 1004      60000000 
 1005 038d 660F70F5 		pshufd	$49, %xmm5, %xmm6
 1005      31
 1006 0392 3D000400 		cmpl	$1024, %eax
 1006      00
 1007 0397 660FF4E2 		pmuludq	%xmm2, %xmm4
 1008 039b 660FD4E3 		paddq	%xmm3, %xmm4
 1009 039f 660FF4C7 		pmuludq	%xmm7, %xmm0
 1010 03a3 660FF4EE 		pmuludq	%xmm6, %xmm5
 1011 03a7 660FD4EC 		paddq	%xmm4, %xmm5
 1012 03ab 660FD4C5 		paddq	%xmm5, %xmm0
 1013 03af 0F851BFF 		jne	L164
 1013      FFFF
 1014 03b5 660F70D8 		pshufd	$14, %xmm0, %xmm3
 1014      0E
 1015 03ba 8B049D80 		movl	__ZL10FARSH_KEYS(,%ebx,4), %eax
 1015      000000
 1016 03c1 81C10004 		addl	$1024, %ecx
 1016      0000
 1017 03c7 660FD4C3 		paddq	%xmm3, %xmm0
 1018 03cb 660F70C8 		pshufd	$1, %xmm0, %xmm1
 1018      01
 1019 03d0 05000400 		addl	$1024, %eax
 1019      00
 1020 03d5 660FFEC1 		paddd	%xmm1, %xmm0
 1021 03d9 660F7EC2 		movd	%xmm0, %edx
 1022 03dd F7E2     		mull	%edx
 1023 03df 01C6     		addl	%eax, %esi
 1024 03e1 11D7     		adcl	%edx, %edi
 1025 03e3 83C301   		addl	$1, %ebx
 1026 03e6 81FB0001 		cmpl	$256, %ebx
 1026      0000
 1027 03ec 7432     		je	L213
 1028              	L165:
 1029 03ee 81F90070 		cmpl	$__ZZ4mainE4data+28672, %ecx
 1029      0000
 1030 03f4 0F82C6FE 		jb	L163
 1030      FFFF
 1031 03fa 01FE     		addl	%edi, %esi
 1032 03fc 83FE2A   		cmpl	$42, %esi
 1033 03ff 744B     		je	L167
 1034 0401 837DB42B 		cmpl	$43, -76(%ebp)
 1035 0405 0F84B100 		je	L214
 1035      0000
 1036 040b 817DB492 		cmpl	$3744914, -76(%ebp)
 1036      243900
 1037 0412 7438     		je	L167
 1038              	L169:
 1039 0414 8345B401 		addl	$1, -76(%ebp)
 1040 0418 E983FEFF 		jmp	L170
 1040      FF
 1041 041d 8D7600   		.p2align 4,,10
 1042              	L213:
 1043 0420 8B5DB8   		movl	-72(%ebp), %ebx
 1044 0423 89F8     		movl	%edi, %eax
 1045 0425 01F0     		addl	%esi, %eax
 1046 0427 F7249D80 		mull	__ZL10FARSH_KEYS(,%ebx,4)
 1046      000000
 1047 042e 01C6     		addl	%eax, %esi
 1048 0430 B8000000 		movl	$0, %eax
 1048      00
 1049 0435 11D7     		adcl	%edx, %edi
 1050 0437 83C301   		addl	$1, %ebx
 1051 043a 89DA     		movl	%ebx, %edx
 1052 043c 31DB     		xorl	%ebx, %ebx
 1053 043e 81FA0001 		cmpl	$256, %edx
 1053      0000
 1054 0444 0F45C2   		cmovne	%edx, %eax
 1055 0447 8945B8   		movl	%eax, -72(%ebp)
 1056 044a EBA2     		jmp	L165
 1057              	L167:
 1058 044c 8D75D0   		leal	-48(%ebp), %esi
 1059 044f 893424   		movl	%esi, (%esp)
 1060 0452 FF55B0   		call	*-80(%ebp)
 1061 0455 8B5DD0   		movl	-48(%ebp), %ebx
 1062 0458 83EC04   		subl	$4, %esp
 1063 045b 2B5DC8   		subl	-56(%ebp), %ebx
 1064 045e 8B55D4   		movl	-44(%ebp), %edx
 1065 0461 1B55CC   		sbbl	-52(%ebp), %edx
 1066 0464 2B5DE0   		subl	-32(%ebp), %ebx
 1067 0467 C7042408 		movl	$LC5, (%esp)
 1067      000000
 1068 046e 1B55E4   		sbbl	-28(%ebp), %edx
 1069 0471 895DB8   		movl	%ebx, -72(%ebp)
 1070 0474 8955BC   		movl	%edx, -68(%ebp)
 1071 0477 DF6DB8   		fildq	-72(%ebp)
 1072 047a D9057C08 		flds	LC1
 1072      0000
 1073 0480 DCC9     		fmul	%st, %st(1)
 1074 0482 DF6DD8   		fildq	-40(%ebp)
 1075 0485 DEFA     		fdivrp	%st, %st(2)
 1076 0487 D8F9     		fdivr	%st(1), %st
 1077 0489 D83D8008 		fdivrs	LC2
 1077      0000
 1078 048f D9C0     		fld	%st(0)
 1079 0491 D80D8408 		fmuls	LC3
 1079      0000
 1080 0497 DD5C2414 		fstpl	20(%esp)
 1081 049b D8358808 		fdivs	LC4
 1081      0000
 1082 04a1 DD5C240C 		fstpl	12(%esp)
 1083 04a5 DD5C2404 		fstpl	4(%esp)
 1084 04a9 E8000000 		call	_printf
 1084      00
 1085 04ae 8D65F0   		leal	-16(%ebp), %esp
 1086 04b1 31C0     		xorl	%eax, %eax
 1087 04b3 59       		popl	%ecx
 1088 04b4 5B       		popl	%ebx
 1089 04b5 5E       		popl	%esi
 1090 04b6 5F       		popl	%edi
 1091 04b7 5D       		popl	%ebp
 1092 04b8 8D61FC   		leal	-4(%ecx), %esp
 1093 04bb C3       		ret
 1094              	L214:
 1095 04bc 89742404 		movl	%esi, 4(%esp)
 1096 04c0 C7042400 		movl	$LC0, (%esp)
 1096      000000
 1097 04c7 E8000000 		call	_printf
 1097      00
 1098 04cc E943FFFF 		jmp	L169
 1098      FF
 1099              	.lcomm __ZZ4mainE4data,28673,64
 1100 04d1 90909090 		.section .rdata,"dr"
 1100      90909090 
 1100      90909090 
 1100      909090
 1101 0048 00000000 		.align 64
 1101      00000000 
 1101      00000000 
 1101      00000000 
 1101      00000000 
 1102              	__ZL10FARSH_KEYS:
 1103 0080 396CFEB8 		.long	-1191285703
 1104 0084 BE4BA423 		.long	597969854
 1105 0088 2C81017C 		.long	2080473388
 1106 008c 1CAD21F7 		.long	-148787940
 1107 0090 E96DD4DE 		.long	-556503575
 1108 0094 DB979083 		.long	-2087675941
 1109 0098 A4A44072 		.long	1916839076
 1110 009c 1F67B3B7 		.long	-1212979425
 1111 00a0 4EE679CB 		.long	-881203634
 1112 00a4 78E5C0CC 		.long	-859773576
 1113 00a8 7DD05A82 		.long	-2107977603
 1114 00ac 2172FFCC 		.long	-855674335
 1115 00b0 744608B8 		.long	-1207417228
 1116 00b4 8E2443F7 		.long	-146594674
 1117 00b8 E69035E0 		.long	-533360410
 1118 00bc 4C263A81 		.long	-2126895540
 1119 00c0 BB52283C 		.long	1009275579
 1120 00c4 CB00C391 		.long	-1849491253
 1121 00c8 8B65D088 		.long	-1999608437
 1122 00cc A32E531B 		.long	458436259
 1123 00d0 97486471 		.long	1902397591
 1124 00d4 4EF90DA2 		.long	-1576142514
 1125 00d8 46EF1938 		.long	941223750
 1126 00dc D8ACDEA9 		.long	-1445024552
 1127 00e0 3F76FAA8 		.long	-1459980737
 1128 00e4 3F349CE3 		.long	-476302273
 1129 00e8 C7BBDCF9 		.long	-102974521
 1130 00ec 1D4F0BC7 		.long	-955560163
 1131 00f0 4BE0518A 		.long	-1974345653
 1132 00f4 3159B4CD 		.long	-843818703
 1133 00f8 C97E9FC8 		.long	-929071415
 1134 00fc 647378D9 		.long	-646417564
 1135 0100 52076A4F 		.long	1332348754
 1136 0104 9C079BA7 		.long	-1483012196
 1137 0108 9994C48F 		.long	-1882942311
 1138 010c A9B7C98E 		.long	-1899382871
 1139 0110 4922C933 		.long	868819529
 1140 0114 4F40B64E 		.long	1320566863
 1141 0118 4EFB2AFB 		.long	-81069234
 1142 011c 554281A4 		.long	-1535032747
 1143 0120 981B0E2F 		.long	789453720
 1144 0124 243BE9AC 		.long	-1394001116
 1145 0128 CD508818 		.long	411586765
 1146 012c A7745C6C 		.long	1817998503
 1147 0130 0444FA66 		.long	1727677444
 1148 0134 83ACC5EA 		.long	-356143997
 1149 0138 C3EBD334 		.long	886303683
 1150 013c FFA081C5 		.long	-981360385
 1151 0140 EB6313FA 		.long	-99392533
 1152 0144 51DD0D17 		.long	386784593
 1153 0148 49DAF0B7 		.long	-1208952247
 1154 014c 265516D3 		.long	-753511130
 1155 0150 9E68D429 		.long	701786270
 1156 0154 58BE162B 		.long	722910808
 1157 0158 FCA1477D 		.long	2101846524
 1158 015c D1B8F88F 		.long	-1879525167
 1159 0160 CE31D07A 		.long	2060464590
 1160 0164 8F3ACB45 		.long	1170946703
 1161 0168 28041695 		.long	-1793719256
 1162 016c CAFBD7AF 		.long	-1344799798
 1163 0170 7E404BBB 		.long	-1152696194
 1164 0174 A4745299 		.long	-1722649436
 1165 0178 932D9AEB 		.long	-342217325
 1166 017c 0889E73B 		.long	1005029640
 1167 0180 6C5F47ED 		.long	-314089620
 1168 0184 F2D89C91 		.long	-1851991822
 1169 0188 5A1E86D3 		.long	-746185126
 1170 018c 0C39316E 		.long	1848719628
 1171 0190 493A6AFE 		.long	-26592695
 1172 0194 1409ADDC 		.long	-592639724
 1173 0198 EB8B5006 		.long	105941995
 1174 019c F39983A8 		.long	-1467770381
 1175 01a0 2F1158B0 		.long	-1336405713
 1176 01a4 79FAB0E8 		.long	-391054727
 1177 01a8 06DAB429 		.long	699718150
 1178 01ac FB53C2ED 		.long	-306031621
 1179 01b0 AD6DE9C3 		.long	-1008112211
 1180 01b4 832B376E 		.long	1849109379
 1181 01b8 53B1784F 		.long	1333309779
 1182 01bc 866EFAFF 		.long	-364922
 1183 01c0 ECEEBE21 		.long	566161132
 1184 01c4 02EACA01 		.long	30075394
 1185 01c8 0DE56712 		.long	308798733
 1186 01cc 2F09E611 		.long	300288303
 1187 01d0 98D219E8 		.long	-400960872
 1188 01d4 DD802F83 		.long	-2094038819
 1189 01d8 77244E0C 		.long	206447735
 1190 01dc EB8678BC 		.long	-1132951829
 1191 01e0 37665001 		.long	22046263
 1192 01e4 6896A88B 		.long	-1951885720
 1193 01e8 A0E7116D 		.long	1829889952
 1194 01ec 15FD12FC 		.long	-65864427
 1195 01f0 194CA586 		.long	-2035987431
 1196 01f4 DDE33C59 		.long	1497162717
 1197 01f8 E53FB1D2 		.long	-760135707
 1198 01fc 532B778E 		.long	-1904792749
 1199 0200 CC604AAE 		.long	-1370857268
 1200 0204 1B3B7A64 		.long	1685732123
 1201 0208 E0867754 		.long	1417119456
 1202 020c 8E37C43E 		.long	1053046670
 1203 0210 89CF7A8D 		.long	-1921331319
 1204 0214 47F936CA 		.long	-902366905
 1205 0218 EFD5890E 		.long	243914223
 1206 021c 3C6ADAAA 		.long	-1428526532
 1207 0220 09A1A46D 		.long	1839505673
 1208 0224 1CE1C69A 		.long	-1698242276
 1209 0228 EF916668 		.long	1751552495
 1210 022c 2BBD57A3 		.long	-1554531029
 1211 0230 9A1B6FD1 		.long	-781247590
 1212 0234 0303C738 		.long	952566531
 1213 0238 B322467D 		.long	2101748403
 1214 023c 8FFA6829 		.long	694745743
 1215 0240 B9BCA58C 		.long	-1935295303
 1216 0244 0510D6FC 		.long	-53080059
 1217 0248 965E8B22 		.long	579559062
 1218 024c 19CC9D2C 		.long	748538905
 1219 0250 3C24CF57 		.long	1473193020
 1220 0254 C1F9533C 		.long	1012136385
 1221 0258 2C95C70C 		.long	214406444
 1222 025c F0E46D68 		.long	1752032496
 1223 0260 B547A793 		.long	-1817753675
 1224 0264 10A5874E 		.long	1317512464
 1225 0268 AE915E97 		.long	-1755410002
 1226 026c 8EB9104C 		.long	1276164494
 1227 0270 8C067F8A 		.long	-1971386740
 1228 0274 AB196B34 		.long	879434155
 1229 0278 25A63C35 		.long	893167141
 1230 027c E0500AF2 		.long	-234204960
 1231 0280 F62199CE 		.long	-828825098
 1232 0284 14E066DF 		.long	-546906092
 1233 0288 4BEF110A 		.long	168947531
 1234 028c DF4DC88B 		.long	-1949807137
 1235 0290 225DD284 		.long	-2066588382
 1236 0294 6D9323C8 		.long	-937192595
 1237 0298 C31E7494 		.long	-1804329277
 1238 029c 608A2788 		.long	-2010674592
 1239 02a0 319364B8 		.long	-1201368271
 1240 02a4 107A707A 		.long	2054191632
 1241 02a8 D6CA9272 		.long	1922222806
 1242 02ac C244C6A7 		.long	-1480178494
 1243 02b0 FA6B15BD 		.long	-1122669574
 1244 02b4 78956C64 		.long	1684837752
 1245 02b8 D5DFF4B7 		.long	-1208688683
 1246 02bc A777829F 		.long	-1618839641
 1247 02c0 4E921370 		.long	1880330830
 1248 02c4 C34C67AD 		.long	-1385739069
 1249 02c8 059DAE2C 		.long	749640965
 1250 02cc 229A2A91 		.long	-1859479006
 1251 02d0 FA537CF6 		.long	-159624198
 1252 02d4 A9227E8D 		.long	-1921113431
 1253 02d8 2B37AE59 		.long	1504589611
 1254 02dc F3990185 		.long	-2063492621
 1255 02e0 2C10A263 		.long	1671565356
 1256 02e4 6112FFD6 		.long	-687926687
 1257 02e8 E18E7356 		.long	1450413793
 1258 02ec 5B1495AA 		.long	-1433070501
 1259 02f0 3228D1FD 		.long	-36624334
 1260 02f4 EB4D685B 		.long	1533562347
 1261 02f8 94DE8407 		.long	126148244
 1262 02fc 0E3962AA 		.long	-1436403442
 1263 0300 19CF7CBB 		.long	-1149448423
 1264 0304 72D5EF0F 		.long	267375986
 1265 0308 CA415B56 		.long	1448821194
 1266 030c 02D20622 		.long	570872322
 1267 0310 7984602D 		.long	761300089
 1268 0314 3DCD0F4C 		.long	1276103997
 1269 0318 E33B6DD3 		.long	-747815965
 1270 031c 659A5A15 		.long	358259301
 1271 0320 32E7F910 		.long	284813106
 1272 0324 1E0F9BAC 		.long	-1399124194
 1273 0328 3BA0721F 		.long	527605819
 1274 032c AE4094EA 		.long	-359382866
 1275 0330 4F4B675B 		.long	1533496143
 1276 0334 D127A831 		.long	833103825
 1277 0338 4F95CAEC 		.long	-322267825
 1278 033c 1ED62C3D 		.long	1026348574
 1279 0340 A43D8D76 		.long	1988967844
 1280 0344 C15A7493 		.long	-1821091135
 1281 0348 CB585D1D 		.long	492656843
 1282 034c B6F3864B 		.long	1267135414
 1283 0350 3A92BA2A 		.long	716870202
 1284 0354 4C81650E 		.long	241533260
 1285 0358 D963E08A 		.long	-1965005863
 1286 035c B06969CD 		.long	-848729680
 1287 0360 85156436 		.long	912528773
 1288 0364 9DF52A74 		.long	1948972445
 1289 0368 16133A61 		.long	1631195926
 1290 036c 71A48E33 		.long	864986225
 1291 0370 F31A8647 		.long	1199971059
 1292 0374 C39D4730 		.long	809999811
 1293 0378 81A47012 		.long	309372033
 1294 037c 69107708 		.long	142020713
 1295 0380 D2F0C4E3 		.long	-473632558
 1296 0384 4C872902 		.long	36276044
 1297 0388 C13B8A5A 		.long	1519008705
 1298 038c 33970DE3 		.long	-485648589
 1299 0390 A2E55BD0 		.long	-799283806
 1300 0394 BA31AFE2 		.long	-491834950
 1301 0398 F9492022 		.long	572541433
 1302 039c 6A3B929F 		.long	-1617806486
 1303 03a0 EC643F03 		.long	54486252
 1304 03a4 2BB628E5 		.long	-450316757
 1305 03a8 BDEF0182 		.long	-2113802307
 1306 03ac 77D80721 		.long	554162295
 1307 03b0 F12E31D8 		.long	-667865359
 1308 03b4 999F67A5 		.long	-1519935591
 1309 03b8 1BB53017 		.long	389068059
 1310 03bc D2162675 		.long	1965430482
 1311 03c0 09593005 		.long	87054601
 1312 03c4 0B44CA0D 		.long	231359499
 1313 03c8 D9CD9320 		.long	546557401
 1314 03cc 50AB0964 		.long	1678355280
 1315 03d0 CC8E5CBA 		.long	-1168339252
 1316 03d4 EA08478D 		.long	-1924724502
 1317 03d8 17099F42 		.long	1117718807
 1318 03dc B0FA62B7 		.long	-1218250064
 1319 03e0 75EA6151 		.long	1365371509
 1320 03e4 EBA0EB45 		.long	1173070059
 1321 03e8 414BF3B6 		.long	-1225569471
 1322 03ec 23710452 		.long	1376022819
 1323 03f0 231518E4 		.long	-468183773
 1324 03f4 0AE9748D 		.long	-1921718006
 1325 03f8 1C40FA54 		.long	1425686556
 1326 03fc C70CDADD 		.long	-572912441
 1327 0400 2A18DF63 		.long	1675565098
 1328 0404 F63E40C6 		.long	-968868106
 1329 0408 E8C68E34 		.long	881772264
 1330 040c F557FFB9 		.long	-1174448139
 1331 0410 BDB852F6 		.long	-162350915
 1332 0414 F3B0860F 		.long	260485363
 1333 0418 8A083AFB 		.long	-80082806
 1334 041c 3315C74D 		.long	1304892723
 1335 0420 D217367B 		.long	2067142610
 1336 0424 EB874EA3 		.long	-1555134485
 1337 0428 DD9B2ABA 		.long	-1171612707
 1338 042c 061338E3 		.long	-482864378
 1339 0430 BBD6BA14 		.long	347788987
 1340 0434 C2C76DC9 		.long	-915552318
 1341 0438 B6543B33 		.long	859526326
 1342 043c FA7CE49B 		.long	-1679524614
 1343 0440 9992CF1D 		.long	500142745
 1344 0444 995FEAE7 		.long	-404070503
 1345 0448 CDEA8FB3 		.long	-1282413875
 1346 044c F7E2CFC3 		.long	-1009786121
 1347 0450 22E8875B 		.long	1535633442
 1348 0454 56ABC539 		.long	969255766
 1349 0458 8FA1F418 		.long	418685327
 1350 045c 9C4D482D 		.long	759713180
 1351 0460 19D56341 		.long	1097061657
 1352 0464 989E7679 		.long	2037816984
 1353 0468 F0678AF5 		.long	-175478800
 1354 046c 020C5940 		.long	1079577602
 1355 0470 C0719631 		.long	831943104
 1356 0474 3A136B26 		.long	644551482
 1357 0478 87B281AF 		.long	-1350454649
 1358 047c 37F7316A 		.long	1781659447
 1359 0480 9701BCE3 		.long	-474218089
 1360 0484 13990755 		.long	1426561299
 1361 0488 96C6729F 		.long	-1619868010
 1362 048c C8003E36 		.long	910033096
 1363 0490 47391553 		.long	1393899847
 1364 0494 7F12FDEB 		.long	-335736193
 1365 0498 1905F600 		.long	16123161
 1366 049c 2AB6A646 		.long	1185330730
 1367 04a0 8033B893 		.long	-1816644736
 1368 04a4 2493E23F 		.long	1071813412
 1369 04a8 9170C6DF 		.long	-540643183
 1370 04ac 6D38620F 		.long	258095213
 1371 04b0 795E37DC 		.long	-600351111
 1372 04b4 3E3FEA8F 		.long	-1880473794
 1373 04b8 D06384DF 		.long	-544971824
 1374 04bc 7BFA0237 		.long	922942075
 1375 04c0 5E435439 		.long	961823582
 1376 04c4 48A6CA87 		.long	-2016762296
 1377 04c8 EE8B15A9 		.long	-1458205714
 1378 04cc 250CF308 		.long	150146085
 1379 04d0 3629B866 		.long	1723345206
 1380 04d4 EB3FFCE7 		.long	-402898965
 1381 04d8 50543C18 		.long	406606928
 1382 04dc 4543EFD7 		.long	-672185531
 1383 04e0 63798C79 		.long	2039249251
 1384 04e4 57F52CC0 		.long	-1070795433
 1385 04e8 D1538509 		.long	159732689
 1386 04ec AA1243FA 		.long	-96267606
 1387 04f0 83F89EE2 		.long	-492898173
 1388 04f4 8D12AF7C 		.long	2091848333
 1389 04f8 7DA0B374 		.long	1957929085
 1390 04fc 00000000 		.space 896
 1390      00000000 
 1390      00000000 
 1390      00000000 
 1390      00000000 
 1391              		.align 4
 1392              	LC1:
 1393 087c 00007A44 		.long	1148846080
 1394              		.align 4
 1395              	LC2:
 1396 0880 0000C851 		.long	1372061696
 1397              		.align 4
 1398              	LC3:
 1399 0884 00008030 		.long	813694976
 1400              		.align 4
 1401              	LC4:
 1402 0888 286B6E4E 		.long	1315859240
 1403              		.ident	"GCC: (i686-posix-sjlj-rev2, Built by MinGW-W64 project) 4.9.2"
DEFINED SYMBOLS
                            *ABS*:0000000000000000 main.cpp
  M:\Temp\ccEUrqUd.s:6      .text:0000000000000000 __Z11farsh_keyedPKvjPKj
  M:\Temp\ccEUrqUd.s:361    .text:00000000000004c0 __Z13farsh_keyed_nPKvjPKjiPj
  M:\Temp\ccEUrqUd.s:559    .text:0000000000000760 __Z7farsh_nPKvjiiPj
  M:\Temp\ccEUrqUd.s:1102   .rdata:0000000000000080 __ZL10FARSH_KEYS
  M:\Temp\ccEUrqUd.s:759    .text:0000000000000a10 __Z5farshPKvj
  M:\Temp\ccEUrqUd.s:782    .text.startup:0000000000000000 _main
  M:\Temp\ccEUrqUd.s:1099   .bss:0000000000000000 __ZZ4mainE4data

UNDEFINED SYMBOLS
___main
__imp__QueryPerformanceFrequency@4
__imp__QueryPerformanceCounter@4
_printf
