   1              		.file	"main.cpp"
   2              		.text
   3              		.p2align 4,,15
   4              		.globl	_Z11farsh_keyedPKvyPKj
   6              		.seh_proc	_Z11farsh_keyedPKvyPKj
   7              	_Z11farsh_keyedPKvyPKj:
   8 0000 4157     		pushq	%r15
   9              		.seh_pushreg	%r15
  10 0002 4156     		pushq	%r14
  11              		.seh_pushreg	%r14
  12 0004 4155     		pushq	%r13
  13              		.seh_pushreg	%r13
  14 0006 4154     		pushq	%r12
  15              		.seh_pushreg	%r12
  16 0008 55       		pushq	%rbp
  17              		.seh_pushreg	%rbp
  18 0009 57       		pushq	%rdi
  19              		.seh_pushreg	%rdi
  20 000a 56       		pushq	%rsi
  21              		.seh_pushreg	%rsi
  22 000b 53       		pushq	%rbx
  23              		.seh_pushreg	%rbx
  24 000c 4883EC58 		subq	$88, %rsp
  25              		.seh_stackalloc	88
  26              		.seh_endprologue
  27 0010 488D0411 		leaq	(%rcx,%rdx), %rax
  28 0014 4889CB   		movq	%rcx, %rbx
  29 0017 4C89C6   		movq	%r8, %rsi
  30 001a 4839C1   		cmpq	%rax, %rcx
  31 001d 48894424 		movq	%rax, 40(%rsp)
  31      28
  32 0022 0F838C03 		jae	.L14
  32      0000
  33 0028 4881FA00 		cmpq	$1024, %rdx
  33      040000
  34 002f 41BF0004 		movl	$1024, %r15d
  34      0000
  35 0035 41BD0000 		movl	$0, %r13d
  35      0000
  36 003b 4C0F46FA 		cmovbe	%rdx, %r15
  37 003f 4C8D5424 		leaq	64(%rsp), %r10
  37      40
  38 0044 4C89FF   		movq	%r15, %rdi
  39 0047 4D89FE   		movq	%r15, %r14
  40 004a 48C1EF02 		shrq	$2, %rdi
  41 004e 4883E7FE 		andq	$-2, %rdi
  42 0052 488D14BD 		leaq	0(,%rdi,4), %rdx
  42      00000000 
  43 005a 4929D6   		subq	%rdx, %r14
  44 005d 48895424 		movq	%rdx, 48(%rsp)
  44      30
  45 0062 4D0F45EA 		cmovne	%r10, %r13
  46 0066 4531E4   		xorl	%r12d, %r12d
  47 0069 31ED     		xorl	%ebp, %ebp
  48 006b 4C896C24 		movq	%r13, 56(%rsp)
  48      38
  49 0070 4531ED   		xorl	%r13d, %r13d
  50              		.p2align 4,,10
  51              	.L12:
  52 0073 4981FF00 		cmpq	$1024, %r15
  52      040000
  53 007a 0F841002 		je	.L53
  53      0000
  54 0080 488B4C24 		movq	48(%rsp), %rcx
  54      30
  55 0085 4D89F0   		movq	%r14, %r8
  56 0088 48C74424 		movq	$0, 64(%rsp)
  56      40000000 
  56      00
  57 0091 488D140B 		leaq	(%rbx,%rcx), %rdx
  58 0095 4C89D1   		movq	%r10, %rcx
  59 0098 E8000000 		call	memcpy
  59      00
  60 009d 4D85F6   		testq	%r14, %r14
  61 00a0 4989C2   		movq	%rax, %r10
  62 00a3 0F849C01 		je	.L54
  62      0000
  63 00a9 4885FF   		testq	%rdi, %rdi
  64 00ac 0F84F102 		je	.L55
  64      0000
  65              	.L8:
  66 00b2 448B5B04 		movl	4(%rbx), %r11d
  67 00b6 488D57FF 		leaq	-1(%rdi), %rdx
  68 00ba 448B0B   		movl	(%rbx), %r9d
  69 00bd 48D1EA   		shrq	%rdx
  70 00c0 44030E   		addl	(%rsi), %r9d
  71 00c3 83E203   		andl	$3, %edx
  72 00c6 4489D9   		movl	%r11d, %ecx
  73 00c9 034E04   		addl	4(%rsi), %ecx
  74 00cc 41BB0200 		movl	$2, %r11d
  74      0000
  75 00d2 4C0FAFC9 		imulq	%rcx, %r9
  76 00d6 4883FF02 		cmpq	$2, %rdi
  77 00da 0F86ED00 		jbe	.L46
  77      0000
  78 00e0 4885D2   		testq	%rdx, %rdx
  79 00e3 746D     		je	.L18
  80 00e5 4883FA01 		cmpq	$1, %rdx
  81 00e9 7443     		je	.L40
  82 00eb 4883FA02 		cmpq	$2, %rdx
  83 00ef 741D     		je	.L41
  84 00f1 448B430C 		movl	12(%rbx), %r8d
  85 00f5 41BB0400 		movl	$4, %r11d
  85      0000
  86 00fb 8B5308   		movl	8(%rbx), %edx
  87 00fe 035608   		addl	8(%rsi), %edx
  88 0101 4489C0   		movl	%r8d, %eax
  89 0104 03460C   		addl	12(%rsi), %eax
  90 0107 480FAFD0 		imulq	%rax, %rdx
  91 010b 4901D1   		addq	%rdx, %r9
  92              	.L41:
  93 010e 428B4C9B 		movl	4(%rbx,%r11,4), %ecx
  93      04
  94 0113 428B049B 		movl	(%rbx,%r11,4), %eax
  95 0117 4203049E 		addl	(%rsi,%r11,4), %eax
  96 011b 4189C8   		movl	%ecx, %r8d
  97 011e 4603449E 		addl	4(%rsi,%r11,4), %r8d
  97      04
  98 0123 4983C302 		addq	$2, %r11
  99 0127 490FAFC0 		imulq	%r8, %rax
 100 012b 4901C1   		addq	%rax, %r9
 101              	.L40:
 102 012e 428B549B 		movl	4(%rbx,%r11,4), %edx
 102      04
 103 0133 468B049B 		movl	(%rbx,%r11,4), %r8d
 104 0137 4603049E 		addl	(%rsi,%r11,4), %r8d
 105 013b 89D1     		movl	%edx, %ecx
 106 013d 42034C9E 		addl	4(%rsi,%r11,4), %ecx
 106      04
 107 0142 4983C302 		addq	$2, %r11
 108 0146 4C0FAFC1 		imulq	%rcx, %r8
 109 014a 4D01C1   		addq	%r8, %r9
 110 014d 4C39DF   		cmpq	%r11, %rdi
 111 0150 767B     		jbe	.L46
 112              	.L18:
 113 0152 428B449B 		movl	4(%rbx,%r11,4), %eax
 113      04
 114 0157 4D8D4302 		leaq	2(%r11), %r8
 115 015b 428B149B 		movl	(%rbx,%r11,4), %edx
 116 015f 4203149E 		addl	(%rsi,%r11,4), %edx
 117 0163 89C1     		movl	%eax, %ecx
 118 0165 42034C9E 		addl	4(%rsi,%r11,4), %ecx
 118      04
 119 016a 428B4483 		movl	4(%rbx,%r8,4), %eax
 119      04
 120 016f 42034486 		addl	4(%rsi,%r8,4), %eax
 120      04
 121 0174 480FAFD1 		imulq	%rcx, %rdx
 122 0178 428B0C83 		movl	(%rbx,%r8,4), %ecx
 123 017c 42030C86 		addl	(%rsi,%r8,4), %ecx
 124 0180 480FAFC1 		imulq	%rcx, %rax
 125 0184 4901D1   		addq	%rdx, %r9
 126 0187 498D5304 		leaq	4(%r11), %rdx
 127 018b 448B4493 		movl	4(%rbx,%rdx,4), %r8d
 127      04
 128 0190 44034496 		addl	4(%rsi,%rdx,4), %r8d
 128      04
 129 0195 4D8D0C01 		leaq	(%r9,%rax), %r9
 130 0199 8B0493   		movl	(%rbx,%rdx,4), %eax
 131 019c 030496   		addl	(%rsi,%rdx,4), %eax
 132 019f 490FAFC0 		imulq	%r8, %rax
 133 01a3 4D8D4306 		leaq	6(%r11), %r8
 134 01a7 4983C308 		addq	$8, %r11
 135 01ab 428B1483 		movl	(%rbx,%r8,4), %edx
 136 01af 42031486 		addl	(%rsi,%r8,4), %edx
 137 01b3 498D0C01 		leaq	(%r9,%rax), %rcx
 138 01b7 468B4C83 		movl	4(%rbx,%r8,4), %r9d
 138      04
 139 01bc 46034C86 		addl	4(%rsi,%r8,4), %r9d
 139      04
 140 01c1 4C0FAFCA 		imulq	%rdx, %r9
 141 01c5 4901C9   		addq	%rcx, %r9
 142 01c8 4C39DF   		cmpq	%r11, %rdi
 143 01cb 7785     		ja	.L18
 144              	.L46:
 145 01cd 488B4C24 		movq	56(%rsp), %rcx
 145      38
 146 01d2 49C1E302 		salq	$2, %r11
 147 01d6 4D8D4304 		leaq	4(%r11), %r8
 148 01da 4885C9   		testq	%rcx, %rcx
 149 01dd 4889C8   		movq	%rcx, %rax
 150 01e0 7414     		je	.L50
 151              	.L13:
 152 01e2 8B5004   		movl	4(%rax), %edx
 153 01e5 8B00     		movl	(%rax), %eax
 154 01e7 42031406 		addl	(%rsi,%r8), %edx
 155 01eb 4203041E 		addl	(%rsi,%r11), %eax
 156 01ef 480FAFD0 		imulq	%rax, %rdx
 157 01f3 4901D1   		addq	%rdx, %r9
 158              	.L50:
 159 01f6 4D89CB   		movq	%r9, %r11
 160 01f9 49C1EB20 		shrq	$32, %r11
 161 01fd 4501D9   		addl	%r11d, %r9d
 162              	.L5:
 163 0200 4C63C5   		movslq	%ebp, %r8
 164 0203 83C501   		addl	$1, %ebp
 165 0206 4C01FB   		addq	%r15, %rbx
 166 0209 428B0C86 		movl	(%rsi,%r8,4), %ecx
 167 020d 4C01F9   		addq	%r15, %rcx
 168 0210 4C0FAFC9 		imulq	%rcx, %r9
 169 0214 4D01CD   		addq	%r9, %r13
 170 0217 81FD0001 		cmpl	$256, %ebp
 170      0000
 171 021d 7434     		je	.L56
 172              	.L11:
 173 021f 48395C24 		cmpq	%rbx, 40(%rsp)
 173      28
 174 0224 0F8749FE 		ja	.L12
 174      FFFF
 175 022a 4C89E8   		movq	%r13, %rax
 176 022d 48C1E820 		shrq	$32, %rax
 177 0231 4401E8   		addl	%r13d, %eax
 178              	.L47:
 179 0234 4883C458 		addq	$88, %rsp
 180 0238 5B       		popq	%rbx
 181 0239 5E       		popq	%rsi
 182 023a 5F       		popq	%rdi
 183 023b 5D       		popq	%rbp
 184 023c 415C     		popq	%r12
 185 023e 415D     		popq	%r13
 186 0240 415E     		popq	%r14
 187 0242 415F     		popq	%r15
 188 0244 C3       		ret
 189              		.p2align 4,,10
 190              	.L54:
 191 0245 4531C9   		xorl	%r9d, %r9d
 192 0248 4885FF   		testq	%rdi, %rdi
 193 024b 0F8561FE 		jne	.L8
 193      FFFF
 194 0251 EBAD     		jmp	.L5
 195              		.p2align 4,,10
 196              	.L56:
 197 0253 4963C4   		movslq	%r12d, %rax
 198 0256 4C89EA   		movq	%r13, %rdx
 199 0259 4183C401 		addl	$1, %r12d
 200 025d 448B0C86 		movl	(%rsi,%rax,4), %r9d
 201 0261 48C1EA20 		shrq	$32, %rdx
 202 0265 6631ED   		xorw	%bp, %bp
 203 0268 41B80000 		movl	$0, %r8d
 203      0000
 204 026e 468D1C2A 		leal	(%rdx,%r13), %r11d
 205 0272 4D0FAFCB 		imulq	%r11, %r9
 206 0276 4D01CD   		addq	%r9, %r13
 207 0279 4181FC00 		cmpl	$256, %r12d
 207      010000
 208 0280 450F44E0 		cmove	%r8d, %r12d
 209 0284 EB99     		jmp	.L11
 210 0286 662E0F1F 		.p2align 4,,10
 210      84000000 
 210      0000
 211              	.L53:
 212 0290 4531C9   		xorl	%r9d, %r9d
 213 0293 660FEFC0 		pxor	%xmm0, %xmm0
 214 0297 660F1F84 		.p2align 4,,10
 214      00000000 
 214      00
 215              	.L4:
 216 02a0 F3420F6F 		movdqu	(%rbx,%r9), %xmm3
 216      1C0B
 217 02a6 66420FFE 		paddd	(%rsi,%r9), %xmm3
 217      1C0E
 218 02ac F3420F6F 		movdqu	16(%rbx,%r9), %xmm2
 218      540B10
 219 02b3 66420FFE 		paddd	16(%rsi,%r9), %xmm2
 219      540E10
 220 02ba 660F70CB 		pshufd	$49, %xmm3, %xmm1
 220      31
 221 02bf 660FF4D9 		pmuludq	%xmm1, %xmm3
 222 02c3 F3420F6F 		movdqu	32(%rbx,%r9), %xmm5
 222      6C0B20
 223 02ca 66420FFE 		paddd	32(%rsi,%r9), %xmm5
 223      6C0E20
 224 02d1 660F70E2 		pshufd	$49, %xmm2, %xmm4
 224      31
 225 02d6 660FF4D4 		pmuludq	%xmm4, %xmm2
 226 02da F3420F6F 		movdqu	64(%rbx,%r9), %xmm4
 226      640B40
 227 02e1 66420FFE 		paddd	64(%rsi,%r9), %xmm4
 227      640E40
 228 02e8 660FD4C3 		paddq	%xmm3, %xmm0
 229 02ec 660F70DD 		pshufd	$49, %xmm5, %xmm3
 229      31
 230 02f1 660FF4EB 		pmuludq	%xmm3, %xmm5
 231 02f5 660FD4C2 		paddq	%xmm2, %xmm0
 232 02f9 660F70D4 		pshufd	$49, %xmm4, %xmm2
 232      31
 233 02fe 660FF4E2 		pmuludq	%xmm2, %xmm4
 234 0302 660FD4E8 		paddq	%xmm0, %xmm5
 235 0306 F3420F6F 		movdqu	48(%rbx,%r9), %xmm0
 235      440B30
 236 030d 66420FFE 		paddd	48(%rsi,%r9), %xmm0
 236      440E30
 237 0314 660F70C8 		pshufd	$49, %xmm0, %xmm1
 237      31
 238 0319 660FF4C1 		pmuludq	%xmm1, %xmm0
 239 031d F3420F6F 		movdqu	96(%rbx,%r9), %xmm1
 239      4C0B60
 240 0324 66420FFE 		paddd	96(%rsi,%r9), %xmm1
 240      4C0E60
 241 032b 660FD4C5 		paddq	%xmm5, %xmm0
 242 032f F3420F6F 		movdqu	80(%rbx,%r9), %xmm5
 242      6C0B50
 243 0336 66420FFE 		paddd	80(%rsi,%r9), %xmm5
 243      6C0E50
 244 033d 660FD4E0 		paddq	%xmm0, %xmm4
 245 0341 660F70C1 		pshufd	$49, %xmm1, %xmm0
 245      31
 246 0346 660FF4C8 		pmuludq	%xmm0, %xmm1
 247 034a F3420F6F 		movdqu	112(%rbx,%r9), %xmm0
 247      440B70
 248 0351 660F70DD 		pshufd	$49, %xmm5, %xmm3
 248      31
 249 0356 660FF4EB 		pmuludq	%xmm3, %xmm5
 250 035a 66420FFE 		paddd	112(%rsi,%r9), %xmm0
 250      440E70
 251 0361 4983E980 		subq	$-128, %r9
 252 0365 4981F900 		cmpq	$1024, %r9
 252      040000
 253 036c 660FD4EC 		paddq	%xmm4, %xmm5
 254 0370 660F70E0 		pshufd	$49, %xmm0, %xmm4
 254      31
 255 0375 660FF4C4 		pmuludq	%xmm4, %xmm0
 256 0379 660FD4CD 		paddq	%xmm5, %xmm1
 257 037d 660FD4C1 		paddq	%xmm1, %xmm0
 258 0381 0F8519FF 		jne	.L4
 258      FFFF
 259 0387 660F70D0 		pshufd	$14, %xmm0, %xmm2
 259      0E
 260 038c 660FD4C2 		paddq	%xmm2, %xmm0
 261 0390 660F70E8 		pshufd	$1, %xmm0, %xmm5
 261      01
 262 0395 660FFEC5 		paddd	%xmm5, %xmm0
 263 0399 66410F7E 		movd	%xmm0, %r9d
 263      C1
 264 039e E95DFEFF 		jmp	.L5
 264      FF
 265              		.p2align 4,,10
 266              	.L55:
 267 03a3 41B80400 		movl	$4, %r8d
 267      0000
 268 03a9 4531DB   		xorl	%r11d, %r11d
 269 03ac 4531C9   		xorl	%r9d, %r9d
 270 03af E92EFEFF 		jmp	.L13
 270      FF
 271              	.L14:
 272 03b4 31C0     		xorl	%eax, %eax
 273 03b6 E979FEFF 		jmp	.L47
 273      FF
 274              		.seh_endproc
 275 03bb 0F1F4400 		.p2align 4,,15
 275      00
 276              		.globl	_Z13farsh_keyed_nPKvyPKjiPj
 278              		.seh_proc	_Z13farsh_keyed_nPKvyPKjiPj
 279              	_Z13farsh_keyed_nPKvyPKjiPj:
 280 03c0 4156     		pushq	%r14
 281              		.seh_pushreg	%r14
 282 03c2 4155     		pushq	%r13
 283              		.seh_pushreg	%r13
 284 03c4 4154     		pushq	%r12
 285              		.seh_pushreg	%r12
 286 03c6 55       		pushq	%rbp
 287              		.seh_pushreg	%rbp
 288 03c7 57       		pushq	%rdi
 289              		.seh_pushreg	%rdi
 290 03c8 56       		pushq	%rsi
 291              		.seh_pushreg	%rsi
 292 03c9 53       		pushq	%rbx
 293              		.seh_pushreg	%rbx
 294 03ca 4883EC20 		subq	$32, %rsp
 295              		.seh_stackalloc	32
 296              		.seh_endprologue
 297 03ce 4C8BA424 		movq	128(%rsp), %r12
 297      80000000 
 298 03d6 4585C9   		testl	%r9d, %r9d
 299 03d9 0F8ECB01 		jle	.L57
 299      0000
 300 03df 458D69FF 		leal	-1(%r9), %r13d
 301 03e3 BB040000 		movl	$4, %ebx
 301      00
 302 03e8 4C89C5   		movq	%r8, %rbp
 303 03eb 4E8D34AD 		leaq	4(,%r13,4), %r14
 303      04000000 
 304 03f3 4889D7   		movq	%rdx, %rdi
 305 03f6 4889CE   		movq	%rcx, %rsi
 306 03f9 E802FCFF 		call	_Z11farsh_keyedPKvyPKj
 306      FF
 307 03fe 4183E507 		andl	$7, %r13d
 308 0402 4C39F3   		cmpq	%r14, %rbx
 309 0405 41890424 		movl	%eax, (%r12)
 310 0409 0F849B01 		je	.L57
 310      0000
 311 040f 4D85ED   		testq	%r13, %r13
 312 0412 0F84DE00 		je	.L59
 312      0000
 313 0418 4983FD01 		cmpq	$1, %r13
 314 041c 0F84B300 		je	.L85
 314      0000
 315 0422 4983FD02 		cmpq	$2, %r13
 316 0426 0F849100 		je	.L86
 316      0000
 317 042c 4983FD03 		cmpq	$3, %r13
 318 0430 7473     		je	.L87
 319 0432 4983FD04 		cmpq	$4, %r13
 320 0436 7455     		je	.L88
 321 0438 4983FD05 		cmpq	$5, %r13
 322 043c 7437     		je	.L89
 323 043e 4983FD06 		cmpq	$6, %r13
 324 0442 7419     		je	.L90
 325 0444 4C8D4504 		leaq	4(%rbp), %r8
 326 0448 4889FA   		movq	%rdi, %rdx
 327 044b 4889F1   		movq	%rsi, %rcx
 328 044e E8ADFBFF 		call	_Z11farsh_keyedPKvyPKj
 328      FF
 329 0453 BB080000 		movl	$8, %ebx
 329      00
 330 0458 41894424 		movl	%eax, 4(%r12)
 330      04
 331              	.L90:
 332 045d 4C8D441D 		leaq	0(%rbp,%rbx), %r8
 332      00
 333 0462 4889FA   		movq	%rdi, %rdx
 334 0465 4889F1   		movq	%rsi, %rcx
 335 0468 E893FBFF 		call	_Z11farsh_keyedPKvyPKj
 335      FF
 336 046d 4189041C 		movl	%eax, (%r12,%rbx)
 337 0471 4883C304 		addq	$4, %rbx
 338              	.L89:
 339 0475 4C8D441D 		leaq	0(%rbp,%rbx), %r8
 339      00
 340 047a 4889FA   		movq	%rdi, %rdx
 341 047d 4889F1   		movq	%rsi, %rcx
 342 0480 E87BFBFF 		call	_Z11farsh_keyedPKvyPKj
 342      FF
 343 0485 4189041C 		movl	%eax, (%r12,%rbx)
 344 0489 4883C304 		addq	$4, %rbx
 345              	.L88:
 346 048d 4C8D441D 		leaq	0(%rbp,%rbx), %r8
 346      00
 347 0492 4889FA   		movq	%rdi, %rdx
 348 0495 4889F1   		movq	%rsi, %rcx
 349 0498 E863FBFF 		call	_Z11farsh_keyedPKvyPKj
 349      FF
 350 049d 4189041C 		movl	%eax, (%r12,%rbx)
 351 04a1 4883C304 		addq	$4, %rbx
 352              	.L87:
 353 04a5 4C8D441D 		leaq	0(%rbp,%rbx), %r8
 353      00
 354 04aa 4889FA   		movq	%rdi, %rdx
 355 04ad 4889F1   		movq	%rsi, %rcx
 356 04b0 E84BFBFF 		call	_Z11farsh_keyedPKvyPKj
 356      FF
 357 04b5 4189041C 		movl	%eax, (%r12,%rbx)
 358 04b9 4883C304 		addq	$4, %rbx
 359              	.L86:
 360 04bd 4C8D441D 		leaq	0(%rbp,%rbx), %r8
 360      00
 361 04c2 4889FA   		movq	%rdi, %rdx
 362 04c5 4889F1   		movq	%rsi, %rcx
 363 04c8 E833FBFF 		call	_Z11farsh_keyedPKvyPKj
 363      FF
 364 04cd 4189041C 		movl	%eax, (%r12,%rbx)
 365 04d1 4883C304 		addq	$4, %rbx
 366              	.L85:
 367 04d5 4C8D441D 		leaq	0(%rbp,%rbx), %r8
 367      00
 368 04da 4889FA   		movq	%rdi, %rdx
 369 04dd 4889F1   		movq	%rsi, %rcx
 370 04e0 E81BFBFF 		call	_Z11farsh_keyedPKvyPKj
 370      FF
 371 04e5 4189041C 		movl	%eax, (%r12,%rbx)
 372 04e9 4883C304 		addq	$4, %rbx
 373 04ed 4C39F3   		cmpq	%r14, %rbx
 374 04f0 0F84B400 		je	.L57
 374      0000
 375              	.L59:
 376 04f6 4C8D441D 		leaq	0(%rbp,%rbx), %r8
 376      00
 377 04fb 4889FA   		movq	%rdi, %rdx
 378 04fe 4889F1   		movq	%rsi, %rcx
 379 0501 E8FAFAFF 		call	_Z11farsh_keyedPKvyPKj
 379      FF
 380 0506 4C8D441D 		leaq	4(%rbp,%rbx), %r8
 380      04
 381 050b 4889FA   		movq	%rdi, %rdx
 382 050e 4889F1   		movq	%rsi, %rcx
 383 0511 4189041C 		movl	%eax, (%r12,%rbx)
 384 0515 E8E6FAFF 		call	_Z11farsh_keyedPKvyPKj
 384      FF
 385 051a 4C8D441D 		leaq	8(%rbp,%rbx), %r8
 385      08
 386 051f 4889FA   		movq	%rdi, %rdx
 387 0522 4889F1   		movq	%rsi, %rcx
 388 0525 4189441C 		movl	%eax, 4(%r12,%rbx)
 388      04
 389 052a E8D1FAFF 		call	_Z11farsh_keyedPKvyPKj
 389      FF
 390 052f 4C8D441D 		leaq	12(%rbp,%rbx), %r8
 390      0C
 391 0534 4889FA   		movq	%rdi, %rdx
 392 0537 4889F1   		movq	%rsi, %rcx
 393 053a 4189441C 		movl	%eax, 8(%r12,%rbx)
 393      08
 394 053f E8BCFAFF 		call	_Z11farsh_keyedPKvyPKj
 394      FF
 395 0544 4C8D441D 		leaq	16(%rbp,%rbx), %r8
 395      10
 396 0549 4889FA   		movq	%rdi, %rdx
 397 054c 4889F1   		movq	%rsi, %rcx
 398 054f 4189441C 		movl	%eax, 12(%r12,%rbx)
 398      0C
 399 0554 E8A7FAFF 		call	_Z11farsh_keyedPKvyPKj
 399      FF
 400 0559 4C8D441D 		leaq	20(%rbp,%rbx), %r8
 400      14
 401 055e 4889FA   		movq	%rdi, %rdx
 402 0561 4889F1   		movq	%rsi, %rcx
 403 0564 4189441C 		movl	%eax, 16(%r12,%rbx)
 403      10
 404 0569 E892FAFF 		call	_Z11farsh_keyedPKvyPKj
 404      FF
 405 056e 4C8D441D 		leaq	24(%rbp,%rbx), %r8
 405      18
 406 0573 4889FA   		movq	%rdi, %rdx
 407 0576 4889F1   		movq	%rsi, %rcx
 408 0579 4189441C 		movl	%eax, 20(%r12,%rbx)
 408      14
 409 057e E87DFAFF 		call	_Z11farsh_keyedPKvyPKj
 409      FF
 410 0583 4C8D441D 		leaq	28(%rbp,%rbx), %r8
 410      1C
 411 0588 4889FA   		movq	%rdi, %rdx
 412 058b 4889F1   		movq	%rsi, %rcx
 413 058e 4189441C 		movl	%eax, 24(%r12,%rbx)
 413      18
 414 0593 E868FAFF 		call	_Z11farsh_keyedPKvyPKj
 414      FF
 415 0598 4189441C 		movl	%eax, 28(%r12,%rbx)
 415      1C
 416 059d 4883C320 		addq	$32, %rbx
 417 05a1 4C39F3   		cmpq	%r14, %rbx
 418 05a4 0F854CFF 		jne	.L59
 418      FFFF
 419              	.L57:
 420 05aa 4883C420 		addq	$32, %rsp
 421 05ae 5B       		popq	%rbx
 422 05af 5E       		popq	%rsi
 423 05b0 5F       		popq	%rdi
 424 05b1 5D       		popq	%rbp
 425 05b2 415C     		popq	%r12
 426 05b4 415D     		popq	%r13
 427 05b6 415E     		popq	%r14
 428 05b8 C3       		ret
 429              		.seh_endproc
 430 05b9 0F1F8000 		.p2align 4,,15
 430      000000
 431              		.globl	_Z7farsh_nPKvyiiPj
 433              		.seh_proc	_Z7farsh_nPKvyiiPj
 434              	_Z7farsh_nPKvyiiPj:
 435 05c0 4157     		pushq	%r15
 436              		.seh_pushreg	%r15
 437 05c2 4156     		pushq	%r14
 438              		.seh_pushreg	%r14
 439 05c4 4155     		pushq	%r13
 440              		.seh_pushreg	%r13
 441 05c6 4154     		pushq	%r12
 442              		.seh_pushreg	%r12
 443 05c8 55       		pushq	%rbp
 444              		.seh_pushreg	%rbp
 445 05c9 57       		pushq	%rdi
 446              		.seh_pushreg	%rdi
 447 05ca 56       		pushq	%rsi
 448              		.seh_pushreg	%rsi
 449 05cb 53       		pushq	%rbx
 450              		.seh_pushreg	%rbx
 451 05cc 4883EC28 		subq	$40, %rsp
 452              		.seh_stackalloc	40
 453              		.seh_endprologue
 454 05d0 4C8BA424 		movq	144(%rsp), %r12
 454      90000000 
 455 05d8 4D63C0   		movslq	%r8d, %r8
 456 05db 4585C9   		testl	%r9d, %r9d
 457 05de 4A8D3485 		leaq	0(,%r8,4), %rsi
 457      00000000 
 458 05e6 0F8E0701 		jle	.L98
 458      0000
 459 05ec 4183E901 		subl	$1, %r9d
 460 05f0 BB040000 		movl	$4, %ebx
 460      00
 461 05f5 4889D5   		movq	%rdx, %rbp
 462 05f8 4C8D2D80 		leaq	_ZL10FARSH_KEYS(%rip), %r13
 462      000000
 463 05ff 4D89CF   		movq	%r9, %r15
 464 0602 4889CF   		movq	%rcx, %rdi
 465 0605 4E8D348D 		leaq	4(,%r9,4), %r14
 465      04000000 
 466 060d 4183E703 		andl	$3, %r15d
 467 0611 4D8D4435 		leaq	0(%r13,%rsi), %r8
 467      00
 468 0616 E8E5F9FF 		call	_Z11farsh_keyedPKvyPKj
 468      FF
 469 061b 4C39F3   		cmpq	%r14, %rbx
 470 061e 41890424 		movl	%eax, (%r12)
 471 0622 0F84CB00 		je	.L98
 471      0000
 472 0628 4D85FF   		testq	%r15, %r15
 473 062b 745F     		je	.L100
 474 062d 4983FF01 		cmpq	$1, %r15
 475 0631 743A     		je	.L114
 476 0633 4983FF02 		cmpq	$2, %r15
 477 0637 741A     		je	.L115
 478 0639 4D8D4435 		leaq	4(%r13,%rsi), %r8
 478      04
 479 063e 4889EA   		movq	%rbp, %rdx
 480 0641 4889F9   		movq	%rdi, %rcx
 481 0644 E8B7F9FF 		call	_Z11farsh_keyedPKvyPKj
 481      FF
 482 0649 BB080000 		movl	$8, %ebx
 482      00
 483 064e 41894424 		movl	%eax, 4(%r12)
 483      04
 484              	.L115:
 485 0653 4C8D0433 		leaq	(%rbx,%rsi), %r8
 486 0657 4889EA   		movq	%rbp, %rdx
 487 065a 4889F9   		movq	%rdi, %rcx
 488 065d 4D01E8   		addq	%r13, %r8
 489 0660 E89BF9FF 		call	_Z11farsh_keyedPKvyPKj
 489      FF
 490 0665 4189041C 		movl	%eax, (%r12,%rbx)
 491 0669 4883C304 		addq	$4, %rbx
 492              	.L114:
 493 066d 4C8D0433 		leaq	(%rbx,%rsi), %r8
 494 0671 4889EA   		movq	%rbp, %rdx
 495 0674 4889F9   		movq	%rdi, %rcx
 496 0677 4D01E8   		addq	%r13, %r8
 497 067a E881F9FF 		call	_Z11farsh_keyedPKvyPKj
 497      FF
 498 067f 4189041C 		movl	%eax, (%r12,%rbx)
 499 0683 4883C304 		addq	$4, %rbx
 500 0687 4C39F3   		cmpq	%r14, %rbx
 501 068a 7467     		je	.L98
 502              	.L100:
 503 068c 4C8D0433 		leaq	(%rbx,%rsi), %r8
 504 0690 4889EA   		movq	%rbp, %rdx
 505 0693 4889F9   		movq	%rdi, %rcx
 506 0696 4D01E8   		addq	%r13, %r8
 507 0699 E862F9FF 		call	_Z11farsh_keyedPKvyPKj
 507      FF
 508 069e 4C8D441E 		leaq	4(%rsi,%rbx), %r8
 508      04
 509 06a3 4889EA   		movq	%rbp, %rdx
 510 06a6 4889F9   		movq	%rdi, %rcx
 511 06a9 4D01E8   		addq	%r13, %r8
 512 06ac 4189041C 		movl	%eax, (%r12,%rbx)
 513 06b0 E84BF9FF 		call	_Z11farsh_keyedPKvyPKj
 513      FF
 514 06b5 4C8D441E 		leaq	8(%rsi,%rbx), %r8
 514      08
 515 06ba 4889EA   		movq	%rbp, %rdx
 516 06bd 4889F9   		movq	%rdi, %rcx
 517 06c0 4D01E8   		addq	%r13, %r8
 518 06c3 4189441C 		movl	%eax, 4(%r12,%rbx)
 518      04
 519 06c8 E833F9FF 		call	_Z11farsh_keyedPKvyPKj
 519      FF
 520 06cd 4C8D441E 		leaq	12(%rsi,%rbx), %r8
 520      0C
 521 06d2 4889EA   		movq	%rbp, %rdx
 522 06d5 4889F9   		movq	%rdi, %rcx
 523 06d8 4189441C 		movl	%eax, 8(%r12,%rbx)
 523      08
 524 06dd 4D01E8   		addq	%r13, %r8
 525 06e0 E81BF9FF 		call	_Z11farsh_keyedPKvyPKj
 525      FF
 526 06e5 4189441C 		movl	%eax, 12(%r12,%rbx)
 526      0C
 527 06ea 4883C310 		addq	$16, %rbx
 528 06ee 4C39F3   		cmpq	%r14, %rbx
 529 06f1 7599     		jne	.L100
 530              	.L98:
 531 06f3 4883C428 		addq	$40, %rsp
 532 06f7 5B       		popq	%rbx
 533 06f8 5E       		popq	%rsi
 534 06f9 5F       		popq	%rdi
 535 06fa 5D       		popq	%rbp
 536 06fb 415C     		popq	%r12
 537 06fd 415D     		popq	%r13
 538 06ff 415E     		popq	%r14
 539 0701 415F     		popq	%r15
 540 0703 C3       		ret
 541              		.seh_endproc
 542 0704 6666662E 		.p2align 4,,15
 542      0F1F8400 
 542      00000000 
 543              		.globl	_Z5farshPKvy
 545              		.seh_proc	_Z5farshPKvy
 546              	_Z5farshPKvy:
 547              		.seh_endprologue
 548 0710 4C8D0580 		leaq	_ZL10FARSH_KEYS(%rip), %r8
 548      000000
 549 0717 E9E4F8FF 		jmp	_Z11farsh_keyedPKvyPKj
 549      FF
 550              		.seh_endproc
 552 071c 90909090 		.section .rdata,"dr"
 553              	.LC0:
 554 0000 20282578 		.ascii " (%x)\0"
 554      2900
 555 0006 0000     		.align 8
 556              	.LC5:
 557 0008 3A20252E 		.ascii ": %.3lf milliseconds = %.3lf GB/s = %.3lf GiB/s\12\0"
 557      336C6620 
 557      6D696C6C 
 557      69736563 
 557      6F6E6473 
 558              	.LC6:
 559 0039 48617368 		.ascii "Hashing %d GiB\0"
 559      696E6720 
 559      25642047 
 559      694200
 560              		.section	.text.startup,"x"
 561              		.p2align 4,,15
 562              		.globl	main
 564              		.seh_proc	main
 565              	main:
 566 0000 4155     		pushq	%r13
 567              		.seh_pushreg	%r13
 568 0002 4154     		pushq	%r12
 569              		.seh_pushreg	%r12
 570 0004 55       		pushq	%rbp
 571              		.seh_pushreg	%rbp
 572 0005 57       		pushq	%rdi
 573              		.seh_pushreg	%rdi
 574 0006 56       		pushq	%rsi
 575              		.seh_pushreg	%rsi
 576 0007 53       		pushq	%rbx
 577              		.seh_pushreg	%rbx
 578 0008 4883EC48 		subq	$72, %rsp
 579              		.seh_stackalloc	72
 580              		.seh_endprologue
 581 000c E8000000 		call	__main
 581      00
 582 0011 B8010000 		movl	$1, %eax
 582      00
 583 0016 41B817CD 		movl	$123456791, %r8d
 583      5B07
 584 001c 488D1501 		leaq	1+_ZZ4mainE4data(%rip), %rdx
 584      000000
 585              	.L121:
 586 0023 89C1     		movl	%eax, %ecx
 587 0025 4489C7   		movl	%r8d, %edi
 588 0028 4883C208 		addq	$8, %rdx
 589 002c 458D8817 		leal	123456791(%r8), %r9d
 589      CD5B07
 590 0033 83E10F   		andl	$15, %ecx
 591 0036 418DB02E 		leal	246913582(%r8), %esi
 591      9AB70E
 592 003d D3EF     		shrl	%cl, %edi
 593 003f 8D4801   		leal	1(%rax), %ecx
 594 0042 40887AF8 		movb	%dil, -8(%rdx)
 595 0046 418DA845 		leal	370370373(%r8), %ebp
 595      671316
 596 004d 83E10F   		andl	$15, %ecx
 597 0050 458D905C 		leal	493827164(%r8), %r10d
 597      346F1D
 598 0057 41D3E9   		shrl	%cl, %r9d
 599 005a 8D4802   		leal	2(%rax), %ecx
 600 005d 44884AF9 		movb	%r9b, -7(%rdx)
 601 0061 458D9873 		leal	617283955(%r8), %r11d
 601      01CB24
 602 0068 83E10F   		andl	$15, %ecx
 603 006b 458DA08A 		leal	740740746(%r8), %r12d
 603      CE262C
 604 0072 D3EE     		shrl	%cl, %esi
 605 0074 8D4803   		leal	3(%rax), %ecx
 606 0077 408872FA 		movb	%sil, -6(%rdx)
 607 007b 458DA8A1 		leal	864197537(%r8), %r13d
 607      9B8233
 608 0082 83E10F   		andl	$15, %ecx
 609 0085 4181C0B8 		addl	$987654328, %r8d
 609      68DE3A
 610 008c D3ED     		shrl	%cl, %ebp
 611 008e 8D4804   		leal	4(%rax), %ecx
 612 0091 40886AFB 		movb	%bpl, -5(%rdx)
 613 0095 83E10F   		andl	$15, %ecx
 614 0098 41D3EA   		shrl	%cl, %r10d
 615 009b 8D4805   		leal	5(%rax), %ecx
 616 009e 448852FC 		movb	%r10b, -4(%rdx)
 617 00a2 83E10F   		andl	$15, %ecx
 618 00a5 41D3EB   		shrl	%cl, %r11d
 619 00a8 8D4806   		leal	6(%rax), %ecx
 620 00ab 44885AFD 		movb	%r11b, -3(%rdx)
 621 00af 83E10F   		andl	$15, %ecx
 622 00b2 41D3EC   		shrl	%cl, %r12d
 623 00b5 8D4807   		leal	7(%rax), %ecx
 624 00b8 83C008   		addl	$8, %eax
 625 00bb 448862FE 		movb	%r12b, -2(%rdx)
 626 00bf 83E10F   		andl	$15, %ecx
 627 00c2 41D3ED   		shrl	%cl, %r13d
 628 00c5 44886AFF 		movb	%r13b, -1(%rdx)
 629 00c9 3D017000 		cmpl	$28673, %eax
 629      00
 630 00ce 0F854FFF 		jne	.L121
 630      FFFF
 631 00d4 4C8D0580 		leaq	_ZL10FARSH_KEYS(%rip), %r8
 631      000000
 632 00db BA017000 		movl	$28673, %edx
 632      00
 633 00e0 C605FFFF 		movb	$0, _ZZ4mainE4data(%rip)
 633      FFFF00
 634 00e7 BF010000 		movl	$1, %edi
 634      00
 635 00ec 488D0D00 		leaq	_ZZ4mainE4data(%rip), %rcx
 635      000000
 636 00f3 E8000000 		call	_Z11farsh_keyedPKvyPKj
 636      00
 637 00f8 83F82A   		cmpl	$42, %eax
 638 00fb 0F84F500 		je	.L122
 638      0000
 639 0101 488D0D01 		leaq	1+_ZZ4mainE4data(%rip), %rcx
 639      000000
 640 0108 BA007000 		movl	$28672, %edx
 640      00
 641 010d C60101   		movb	$1, (%rcx)
 642 0110 4C8D0580 		leaq	_ZL10FARSH_KEYS(%rip), %r8
 642      000000
 643 0117 E8000000 		call	_Z11farsh_keyedPKvyPKj
 643      00
 644 011c 83F82A   		cmpl	$42, %eax
 645 011f 0F84D100 		je	.L122
 645      0000
 646 0125 488D1D02 		leaq	2+_ZZ4mainE4data(%rip), %rbx
 646      000000
 647 012c BEFF6F00 		movl	$28671, %esi
 647      00
 648 0131 E99F0000 		jmp	.L123
 648      00
 649              	.L172:
 650 0136 488D56FF 		leaq	-1(%rsi), %rdx
 651 013a 4189F8   		movl	%edi, %r8d
 652 013d 488D4B01 		leaq	1(%rbx), %rcx
 653 0141 4129D0   		subl	%edx, %r8d
 654 0144 44884301 		movb	%r8b, 1(%rbx)
 655 0148 4C8D0580 		leaq	_ZL10FARSH_KEYS(%rip), %r8
 655      000000
 656 014f E8000000 		call	_Z11farsh_keyedPKvyPKj
 656      00
 657 0154 83F82A   		cmpl	$42, %eax
 658 0157 0F849900 		je	.L122
 658      0000
 659 015d 488D56FE 		leaq	-2(%rsi), %rdx
 660 0161 4189F9   		movl	%edi, %r9d
 661 0164 488D4B02 		leaq	2(%rbx), %rcx
 662 0168 4129D1   		subl	%edx, %r9d
 663 016b 44884B02 		movb	%r9b, 2(%rbx)
 664 016f 4C8D0580 		leaq	_ZL10FARSH_KEYS(%rip), %r8
 664      000000
 665 0176 E8000000 		call	_Z11farsh_keyedPKvyPKj
 665      00
 666 017b 83F82A   		cmpl	$42, %eax
 667 017e 7476     		je	.L122
 668 0180 488D56FD 		leaq	-3(%rsi), %rdx
 669 0184 89FD     		movl	%edi, %ebp
 670 0186 488D4B03 		leaq	3(%rbx), %rcx
 671 018a 29D5     		subl	%edx, %ebp
 672 018c 40886B03 		movb	%bpl, 3(%rbx)
 673 0190 4C8D0580 		leaq	_ZL10FARSH_KEYS(%rip), %r8
 673      000000
 674 0197 E8000000 		call	_Z11farsh_keyedPKvyPKj
 674      00
 675 019c 83F82A   		cmpl	$42, %eax
 676 019f 7455     		je	.L122
 677 01a1 488D56FC 		leaq	-4(%rsi), %rdx
 678 01a5 4189FA   		movl	%edi, %r10d
 679 01a8 488D4B04 		leaq	4(%rbx), %rcx
 680 01ac 4129D2   		subl	%edx, %r10d
 681 01af 44885304 		movb	%r10b, 4(%rbx)
 682 01b3 4C8D0580 		leaq	_ZL10FARSH_KEYS(%rip), %r8
 682      000000
 683 01ba E8000000 		call	_Z11farsh_keyedPKvyPKj
 683      00
 684 01bf 83F82A   		cmpl	$42, %eax
 685 01c2 7432     		je	.L122
 686 01c4 4883EE05 		subq	$5, %rsi
 687 01c8 4883C305 		addq	$5, %rbx
 688 01cc 4881FEF0 		cmpq	$28656, %rsi
 688      6F0000
 689 01d3 7421     		je	.L122
 690              	.L123:
 691 01d5 89F8     		movl	%edi, %eax
 692 01d7 4889F2   		movq	%rsi, %rdx
 693 01da 4889D9   		movq	%rbx, %rcx
 694 01dd 4C8D0580 		leaq	_ZL10FARSH_KEYS(%rip), %r8
 694      000000
 695 01e4 29F0     		subl	%esi, %eax
 696 01e6 8803     		movb	%al, (%rbx)
 697 01e8 E8000000 		call	_Z11farsh_keyedPKvyPKj
 697      00
 698 01ed 83F82A   		cmpl	$42, %eax
 699 01f0 0F8540FF 		jne	.L172
 699      FFFF
 700              	.L122:
 701 01f6 BA640000 		movl	$100, %edx
 701      00
 702 01fb 41BD0100 		movl	$1, %r13d
 702      0000
 703 0201 4531E4   		xorl	%r12d, %r12d
 704 0204 488D7424 		leaq	32(%rsp), %rsi
 704      20
 705 0209 488D0D39 		leaq	.LC6(%rip), %rcx
 705      000000
 706 0210 E8000000 		call	printf
 706      00
 707 0215 488D4E10 		leaq	16(%rsi), %rcx
 708 0219 FF150000 		call	*__imp_QueryPerformanceFrequency(%rip)
 708      0000
 709 021f 488B3D00 		movq	__imp_QueryPerformanceCounter(%rip), %rdi
 709      000000
 710 0226 4889F1   		movq	%rsi, %rcx
 711 0229 FFD7     		call	*%rdi
 712 022b 488D4E08 		leaq	8(%rsi), %rcx
 713 022f FFD7     		call	*%rdi
 714 0231 488B5424 		movq	40(%rsp), %rdx
 714      28
 715 0236 4889F1   		movq	%rsi, %rcx
 716 0239 482B5424 		subq	32(%rsp), %rdx
 716      20
 717 023e 488D1D80 		leaq	_ZL10FARSH_KEYS(%rip), %rbx
 717      000000
 718 0245 488D2D00 		leaq	28672+_ZZ4mainE4data(%rip), %rbp
 718      700000
 719 024c 48895424 		movq	%rdx, 56(%rsp)
 719      38
 720 0251 FFD7     		call	*%rdi
 721              		.p2align 4,,10
 722              	.L131:
 723 0253 44882500 		movb	%r12b, _ZZ4mainE4data(%rip)
 723      000000
 724 025a 4531DB   		xorl	%r11d, %r11d
 725 025d 4531D2   		xorl	%r10d, %r10d
 726 0260 4531C9   		xorl	%r9d, %r9d
 727 0263 488D1500 		leaq	_ZZ4mainE4data(%rip), %rdx
 727      000000
 728 026a 660F1F44 		.p2align 4,,10
 728      0000
 729              	.L124:
 730 0270 31C9     		xorl	%ecx, %ecx
 731 0272 660FEFC0 		pxor	%xmm0, %xmm0
 732 0276 662E0F1F 		.p2align 4,,10
 732      84000000 
 732      0000
 733              	.L125:
 734 0280 F30F6F1C 		movdqu	(%rdx,%rcx), %xmm3
 734      0A
 735 0285 660FFE1C 		paddd	(%rbx,%rcx), %xmm3
 735      0B
 736 028a F30F6F54 		movdqu	16(%rdx,%rcx), %xmm2
 736      0A10
 737 0290 660FFE54 		paddd	16(%rbx,%rcx), %xmm2
 737      0B10
 738 0296 660F70CB 		pshufd	$49, %xmm3, %xmm1
 738      31
 739 029b F30F6F6C 		movdqu	32(%rdx,%rcx), %xmm5
 739      0A20
 740 02a1 660FF4D9 		pmuludq	%xmm1, %xmm3
 741 02a5 660FFE6C 		paddd	32(%rbx,%rcx), %xmm5
 741      0B20
 742 02ab 660F70E2 		pshufd	$49, %xmm2, %xmm4
 742      31
 743 02b0 660FF4D4 		pmuludq	%xmm4, %xmm2
 744 02b4 4C8D0580 		leaq	_ZL10FARSH_KEYS(%rip), %r8
 744      000000
 745 02bb 660F6FCD 		movdqa	%xmm5, %xmm1
 746 02bf 660FD4C3 		paddq	%xmm3, %xmm0
 747 02c3 660F70DD 		pshufd	$49, %xmm5, %xmm3
 747      31
 748 02c8 660FF4CB 		pmuludq	%xmm3, %xmm1
 749 02cc F30F6F5C 		movdqu	64(%rdx,%rcx), %xmm3
 749      0A40
 750 02d2 660FD4C2 		paddq	%xmm2, %xmm0
 751 02d6 660FFE5C 		paddd	64(%rbx,%rcx), %xmm3
 751      0B40
 752 02dc 660FD4C1 		paddq	%xmm1, %xmm0
 753 02e0 660F6FCB 		movdqa	%xmm3, %xmm1
 754 02e4 660F6FE0 		movdqa	%xmm0, %xmm4
 755 02e8 F30F6F44 		movdqu	48(%rdx,%rcx), %xmm0
 755      0A30
 756 02ee 660FFE44 		paddd	48(%rbx,%rcx), %xmm0
 756      0B30
 757 02f4 660F6FE8 		movdqa	%xmm0, %xmm5
 758 02f8 660F70D0 		pshufd	$49, %xmm0, %xmm2
 758      31
 759 02fd 660F70C3 		pshufd	$49, %xmm3, %xmm0
 759      31
 760 0302 660FF4C8 		pmuludq	%xmm0, %xmm1
 761 0306 660FF4EA 		pmuludq	%xmm2, %xmm5
 762 030a 660FD4E5 		paddq	%xmm5, %xmm4
 763 030e 660FD4E1 		paddq	%xmm1, %xmm4
 764 0312 F30F6F4C 		movdqu	96(%rdx,%rcx), %xmm1
 764      0A60
 765 0318 660FFE4C 		paddd	96(%rbx,%rcx), %xmm1
 765      0B60
 766 031e 660F6FEC 		movdqa	%xmm4, %xmm5
 767 0322 F30F6F64 		movdqu	80(%rdx,%rcx), %xmm4
 767      0A50
 768 0328 660FFE64 		paddd	80(%rbx,%rcx), %xmm4
 768      0B50
 769 032e 660F6FDC 		movdqa	%xmm4, %xmm3
 770 0332 660F70D4 		pshufd	$49, %xmm4, %xmm2
 770      31
 771 0337 660F6FE1 		movdqa	%xmm1, %xmm4
 772 033b 660FF4DA 		pmuludq	%xmm2, %xmm3
 773 033f 660FD4EB 		paddq	%xmm3, %xmm5
 774 0343 660F6FC5 		movdqa	%xmm5, %xmm0
 775 0347 660F70E9 		pshufd	$49, %xmm1, %xmm5
 775      31
 776 034c 660FF4E5 		pmuludq	%xmm5, %xmm4
 777 0350 660FD4C4 		paddq	%xmm4, %xmm0
 778 0354 660F6FD8 		movdqa	%xmm0, %xmm3
 779 0358 F30F6F44 		movdqu	112(%rdx,%rcx), %xmm0
 779      0A70
 780 035e 660FFE44 		paddd	112(%rbx,%rcx), %xmm0
 780      0B70
 781 0364 4883E980 		subq	$-128, %rcx
 782 0368 4881F900 		cmpq	$1024, %rcx
 782      040000
 783 036f 660F6FC8 		movdqa	%xmm0, %xmm1
 784 0373 660F70D0 		pshufd	$49, %xmm0, %xmm2
 784      31
 785 0378 660FF4CA 		pmuludq	%xmm2, %xmm1
 786 037c 660FD4D9 		paddq	%xmm1, %xmm3
 787 0380 660F6FC3 		movdqa	%xmm3, %xmm0
 788 0384 0F85F6FE 		jne	.L125
 788      FFFF
 789 038a 4963C9   		movslq	%r9d, %rcx
 790 038d 660F70EB 		pshufd	$14, %xmm3, %xmm5
 790      0E
 791 0392 660FD4C5 		paddq	%xmm5, %xmm0
 792 0396 4183C101 		addl	$1, %r9d
 793 039a 418B0C88 		movl	(%r8,%rcx,4), %ecx
 794 039e 660F70E0 		pshufd	$1, %xmm0, %xmm4
 794      01
 795 03a3 660FFEC4 		paddd	%xmm4, %xmm0
 796 03a7 4881C200 		addq	$1024, %rdx
 796      040000
 797 03ae 660F7EC0 		movd	%xmm0, %eax
 798 03b2 4881C100 		addq	$1024, %rcx
 798      040000
 799 03b9 480FAFC1 		imulq	%rcx, %rax
 800 03bd 4901C2   		addq	%rax, %r10
 801 03c0 4181F900 		cmpl	$256, %r9d
 801      010000
 802 03c7 7438     		je	.L173
 803              	.L126:
 804 03c9 4839EA   		cmpq	%rbp, %rdx
 805 03cc 0F829EFE 		jb	.L124
 805      FFFF
 806 03d2 4C89D2   		movq	%r10, %rdx
 807 03d5 48C1EA20 		shrq	$32, %rdx
 808 03d9 4401D2   		addl	%r10d, %edx
 809 03dc 83FA2A   		cmpl	$42, %edx
 810 03df 7453     		je	.L128
 811 03e1 4183FC2A 		cmpl	$42, %r12d
 812 03e5 0F84E000 		je	.L174
 812      0000
 813 03eb 4181FD92 		cmpl	$3744914, %r13d
 813      243900
 814 03f2 7440     		je	.L128
 815              	.L130:
 816 03f4 4183C401 		addl	$1, %r12d
 817 03f8 4183C501 		addl	$1, %r13d
 818 03fc E952FEFF 		jmp	.L131
 818      FF
 819              		.p2align 4,,10
 820              	.L173:
 821 0401 4C89D0   		movq	%r10, %rax
 822 0404 664531C9 		xorw	%r9w, %r9w
 823 0408 48C1E820 		shrq	$32, %rax
 824 040c 428D0C10 		leal	(%rax,%r10), %ecx
 825 0410 4963C3   		movslq	%r11d, %rax
 826 0413 4183C301 		addl	$1, %r11d
 827 0417 458B0480 		movl	(%r8,%rax,4), %r8d
 828 041b 4C0FAFC1 		imulq	%rcx, %r8
 829 041f B9000000 		movl	$0, %ecx
 829      00
 830 0424 4D01C2   		addq	%r8, %r10
 831 0427 4181FB00 		cmpl	$256, %r11d
 831      010000
 832 042e 440F44D9 		cmove	%ecx, %r11d
 833 0432 EB95     		jmp	.L126
 834              	.L128:
 835 0434 488D4E08 		leaq	8(%rsi), %rcx
 836 0438 FFD7     		call	*%rdi
 837 043a 488B7424 		movq	40(%rsp), %rsi
 837      28
 838 043f 660FEFC0 		pxor	%xmm0, %xmm0
 839 0443 660FEFD2 		pxor	%xmm2, %xmm2
 840 0447 482B7424 		subq	32(%rsp), %rsi
 840      20
 841 044c 488D0D08 		leaq	.LC5(%rip), %rcx
 841      000000
 842 0453 482B7424 		subq	56(%rsp), %rsi
 842      38
 843 0458 F20F101D 		movsd	.LC1(%rip), %xmm3
 843      80080000 
 844 0460 F2480F2A 		cvtsi2sdq	48(%rsp), %xmm2
 844      542430
 845 0467 F20F100D 		movsd	.LC2(%rip), %xmm1
 845      88080000 
 846 046f F20F1025 		movsd	.LC3(%rip), %xmm4
 846      90080000 
 847 0477 F2480F2A 		cvtsi2sdq	%rsi, %xmm0
 847      C6
 848 047c F20F59C3 		mulsd	%xmm3, %xmm0
 849 0480 F20F5EC2 		divsd	%xmm2, %xmm0
 850 0484 660F28E8 		movapd	%xmm0, %xmm5
 851 0488 66480F7E 		movq	%xmm0, %rdx
 851      C2
 852 048d F20F5EEB 		divsd	%xmm3, %xmm5
 853 0491 F20F5ECD 		divsd	%xmm5, %xmm1
 854 0495 F20F59E1 		mulsd	%xmm1, %xmm4
 855 0499 F20F5E0D 		divsd	.LC4(%rip), %xmm1
 855      98080000 
 856 04a1 660F28D1 		movapd	%xmm1, %xmm2
 857 04a5 66490F7E 		movq	%xmm1, %r8
 857      C8
 858 04aa 660F28C8 		movapd	%xmm0, %xmm1
 859 04ae 660F28DC 		movapd	%xmm4, %xmm3
 860 04b2 66490F7E 		movq	%xmm4, %r9
 860      E1
 861 04b7 E8000000 		call	printf
 861      00
 862 04bc 31C0     		xorl	%eax, %eax
 863 04be 4883C448 		addq	$72, %rsp
 864 04c2 5B       		popq	%rbx
 865 04c3 5E       		popq	%rsi
 866 04c4 5F       		popq	%rdi
 867 04c5 5D       		popq	%rbp
 868 04c6 415C     		popq	%r12
 869 04c8 415D     		popq	%r13
 870 04ca C3       		ret
 871              	.L174:
 872 04cb 488D0D00 		leaq	.LC0(%rip), %rcx
 872      000000
 873 04d2 E8000000 		call	printf
 873      00
 874 04d7 E918FFFF 		jmp	.L130
 874      FF
 875              		.seh_endproc
 876              	.lcomm _ZZ4mainE4data,28673,64
 877 04dc 90909090 		.section .rdata,"dr"
 878 0048 00000000 		.align 64
 878      00000000 
 878      00000000 
 878      00000000 
 878      00000000 
 879              	_ZL10FARSH_KEYS:
 880 0080 396CFEB8 		.long	-1191285703
 881 0084 BE4BA423 		.long	597969854
 882 0088 2C81017C 		.long	2080473388
 883 008c 1CAD21F7 		.long	-148787940
 884 0090 E96DD4DE 		.long	-556503575
 885 0094 DB979083 		.long	-2087675941
 886 0098 A4A44072 		.long	1916839076
 887 009c 1F67B3B7 		.long	-1212979425
 888 00a0 4EE679CB 		.long	-881203634
 889 00a4 78E5C0CC 		.long	-859773576
 890 00a8 7DD05A82 		.long	-2107977603
 891 00ac 2172FFCC 		.long	-855674335
 892 00b0 744608B8 		.long	-1207417228
 893 00b4 8E2443F7 		.long	-146594674
 894 00b8 E69035E0 		.long	-533360410
 895 00bc 4C263A81 		.long	-2126895540
 896 00c0 BB52283C 		.long	1009275579
 897 00c4 CB00C391 		.long	-1849491253
 898 00c8 8B65D088 		.long	-1999608437
 899 00cc A32E531B 		.long	458436259
 900 00d0 97486471 		.long	1902397591
 901 00d4 4EF90DA2 		.long	-1576142514
 902 00d8 46EF1938 		.long	941223750
 903 00dc D8ACDEA9 		.long	-1445024552
 904 00e0 3F76FAA8 		.long	-1459980737
 905 00e4 3F349CE3 		.long	-476302273
 906 00e8 C7BBDCF9 		.long	-102974521
 907 00ec 1D4F0BC7 		.long	-955560163
 908 00f0 4BE0518A 		.long	-1974345653
 909 00f4 3159B4CD 		.long	-843818703
 910 00f8 C97E9FC8 		.long	-929071415
 911 00fc 647378D9 		.long	-646417564
 912 0100 52076A4F 		.long	1332348754
 913 0104 9C079BA7 		.long	-1483012196
 914 0108 9994C48F 		.long	-1882942311
 915 010c A9B7C98E 		.long	-1899382871
 916 0110 4922C933 		.long	868819529
 917 0114 4F40B64E 		.long	1320566863
 918 0118 4EFB2AFB 		.long	-81069234
 919 011c 554281A4 		.long	-1535032747
 920 0120 981B0E2F 		.long	789453720
 921 0124 243BE9AC 		.long	-1394001116
 922 0128 CD508818 		.long	411586765
 923 012c A7745C6C 		.long	1817998503
 924 0130 0444FA66 		.long	1727677444
 925 0134 83ACC5EA 		.long	-356143997
 926 0138 C3EBD334 		.long	886303683
 927 013c FFA081C5 		.long	-981360385
 928 0140 EB6313FA 		.long	-99392533
 929 0144 51DD0D17 		.long	386784593
 930 0148 49DAF0B7 		.long	-1208952247
 931 014c 265516D3 		.long	-753511130
 932 0150 9E68D429 		.long	701786270
 933 0154 58BE162B 		.long	722910808
 934 0158 FCA1477D 		.long	2101846524
 935 015c D1B8F88F 		.long	-1879525167
 936 0160 CE31D07A 		.long	2060464590
 937 0164 8F3ACB45 		.long	1170946703
 938 0168 28041695 		.long	-1793719256
 939 016c CAFBD7AF 		.long	-1344799798
 940 0170 7E404BBB 		.long	-1152696194
 941 0174 A4745299 		.long	-1722649436
 942 0178 932D9AEB 		.long	-342217325
 943 017c 0889E73B 		.long	1005029640
 944 0180 6C5F47ED 		.long	-314089620
 945 0184 F2D89C91 		.long	-1851991822
 946 0188 5A1E86D3 		.long	-746185126
 947 018c 0C39316E 		.long	1848719628
 948 0190 493A6AFE 		.long	-26592695
 949 0194 1409ADDC 		.long	-592639724
 950 0198 EB8B5006 		.long	105941995
 951 019c F39983A8 		.long	-1467770381
 952 01a0 2F1158B0 		.long	-1336405713
 953 01a4 79FAB0E8 		.long	-391054727
 954 01a8 06DAB429 		.long	699718150
 955 01ac FB53C2ED 		.long	-306031621
 956 01b0 AD6DE9C3 		.long	-1008112211
 957 01b4 832B376E 		.long	1849109379
 958 01b8 53B1784F 		.long	1333309779
 959 01bc 866EFAFF 		.long	-364922
 960 01c0 ECEEBE21 		.long	566161132
 961 01c4 02EACA01 		.long	30075394
 962 01c8 0DE56712 		.long	308798733
 963 01cc 2F09E611 		.long	300288303
 964 01d0 98D219E8 		.long	-400960872
 965 01d4 DD802F83 		.long	-2094038819
 966 01d8 77244E0C 		.long	206447735
 967 01dc EB8678BC 		.long	-1132951829
 968 01e0 37665001 		.long	22046263
 969 01e4 6896A88B 		.long	-1951885720
 970 01e8 A0E7116D 		.long	1829889952
 971 01ec 15FD12FC 		.long	-65864427
 972 01f0 194CA586 		.long	-2035987431
 973 01f4 DDE33C59 		.long	1497162717
 974 01f8 E53FB1D2 		.long	-760135707
 975 01fc 532B778E 		.long	-1904792749
 976 0200 CC604AAE 		.long	-1370857268
 977 0204 1B3B7A64 		.long	1685732123
 978 0208 E0867754 		.long	1417119456
 979 020c 8E37C43E 		.long	1053046670
 980 0210 89CF7A8D 		.long	-1921331319
 981 0214 47F936CA 		.long	-902366905
 982 0218 EFD5890E 		.long	243914223
 983 021c 3C6ADAAA 		.long	-1428526532
 984 0220 09A1A46D 		.long	1839505673
 985 0224 1CE1C69A 		.long	-1698242276
 986 0228 EF916668 		.long	1751552495
 987 022c 2BBD57A3 		.long	-1554531029
 988 0230 9A1B6FD1 		.long	-781247590
 989 0234 0303C738 		.long	952566531
 990 0238 B322467D 		.long	2101748403
 991 023c 8FFA6829 		.long	694745743
 992 0240 B9BCA58C 		.long	-1935295303
 993 0244 0510D6FC 		.long	-53080059
 994 0248 965E8B22 		.long	579559062
 995 024c 19CC9D2C 		.long	748538905
 996 0250 3C24CF57 		.long	1473193020
 997 0254 C1F9533C 		.long	1012136385
 998 0258 2C95C70C 		.long	214406444
 999 025c F0E46D68 		.long	1752032496
 1000 0260 B547A793 		.long	-1817753675
 1001 0264 10A5874E 		.long	1317512464
 1002 0268 AE915E97 		.long	-1755410002
 1003 026c 8EB9104C 		.long	1276164494
 1004 0270 8C067F8A 		.long	-1971386740
 1005 0274 AB196B34 		.long	879434155
 1006 0278 25A63C35 		.long	893167141
 1007 027c E0500AF2 		.long	-234204960
 1008 0280 F62199CE 		.long	-828825098
 1009 0284 14E066DF 		.long	-546906092
 1010 0288 4BEF110A 		.long	168947531
 1011 028c DF4DC88B 		.long	-1949807137
 1012 0290 225DD284 		.long	-2066588382
 1013 0294 6D9323C8 		.long	-937192595
 1014 0298 C31E7494 		.long	-1804329277
 1015 029c 608A2788 		.long	-2010674592
 1016 02a0 319364B8 		.long	-1201368271
 1017 02a4 107A707A 		.long	2054191632
 1018 02a8 D6CA9272 		.long	1922222806
 1019 02ac C244C6A7 		.long	-1480178494
 1020 02b0 FA6B15BD 		.long	-1122669574
 1021 02b4 78956C64 		.long	1684837752
 1022 02b8 D5DFF4B7 		.long	-1208688683
 1023 02bc A777829F 		.long	-1618839641
 1024 02c0 4E921370 		.long	1880330830
 1025 02c4 C34C67AD 		.long	-1385739069
 1026 02c8 059DAE2C 		.long	749640965
 1027 02cc 229A2A91 		.long	-1859479006
 1028 02d0 FA537CF6 		.long	-159624198
 1029 02d4 A9227E8D 		.long	-1921113431
 1030 02d8 2B37AE59 		.long	1504589611
 1031 02dc F3990185 		.long	-2063492621
 1032 02e0 2C10A263 		.long	1671565356
 1033 02e4 6112FFD6 		.long	-687926687
 1034 02e8 E18E7356 		.long	1450413793
 1035 02ec 5B1495AA 		.long	-1433070501
 1036 02f0 3228D1FD 		.long	-36624334
 1037 02f4 EB4D685B 		.long	1533562347
 1038 02f8 94DE8407 		.long	126148244
 1039 02fc 0E3962AA 		.long	-1436403442
 1040 0300 19CF7CBB 		.long	-1149448423
 1041 0304 72D5EF0F 		.long	267375986
 1042 0308 CA415B56 		.long	1448821194
 1043 030c 02D20622 		.long	570872322
 1044 0310 7984602D 		.long	761300089
 1045 0314 3DCD0F4C 		.long	1276103997
 1046 0318 E33B6DD3 		.long	-747815965
 1047 031c 659A5A15 		.long	358259301
 1048 0320 32E7F910 		.long	284813106
 1049 0324 1E0F9BAC 		.long	-1399124194
 1050 0328 3BA0721F 		.long	527605819
 1051 032c AE4094EA 		.long	-359382866
 1052 0330 4F4B675B 		.long	1533496143
 1053 0334 D127A831 		.long	833103825
 1054 0338 4F95CAEC 		.long	-322267825
 1055 033c 1ED62C3D 		.long	1026348574
 1056 0340 A43D8D76 		.long	1988967844
 1057 0344 C15A7493 		.long	-1821091135
 1058 0348 CB585D1D 		.long	492656843
 1059 034c B6F3864B 		.long	1267135414
 1060 0350 3A92BA2A 		.long	716870202
 1061 0354 4C81650E 		.long	241533260
 1062 0358 D963E08A 		.long	-1965005863
 1063 035c B06969CD 		.long	-848729680
 1064 0360 85156436 		.long	912528773
 1065 0364 9DF52A74 		.long	1948972445
 1066 0368 16133A61 		.long	1631195926
 1067 036c 71A48E33 		.long	864986225
 1068 0370 F31A8647 		.long	1199971059
 1069 0374 C39D4730 		.long	809999811
 1070 0378 81A47012 		.long	309372033
 1071 037c 69107708 		.long	142020713
 1072 0380 D2F0C4E3 		.long	-473632558
 1073 0384 4C872902 		.long	36276044
 1074 0388 C13B8A5A 		.long	1519008705
 1075 038c 33970DE3 		.long	-485648589
 1076 0390 A2E55BD0 		.long	-799283806
 1077 0394 BA31AFE2 		.long	-491834950
 1078 0398 F9492022 		.long	572541433
 1079 039c 6A3B929F 		.long	-1617806486
 1080 03a0 EC643F03 		.long	54486252
 1081 03a4 2BB628E5 		.long	-450316757
 1082 03a8 BDEF0182 		.long	-2113802307
 1083 03ac 77D80721 		.long	554162295
 1084 03b0 F12E31D8 		.long	-667865359
 1085 03b4 999F67A5 		.long	-1519935591
 1086 03b8 1BB53017 		.long	389068059
 1087 03bc D2162675 		.long	1965430482
 1088 03c0 09593005 		.long	87054601
 1089 03c4 0B44CA0D 		.long	231359499
 1090 03c8 D9CD9320 		.long	546557401
 1091 03cc 50AB0964 		.long	1678355280
 1092 03d0 CC8E5CBA 		.long	-1168339252
 1093 03d4 EA08478D 		.long	-1924724502
 1094 03d8 17099F42 		.long	1117718807
 1095 03dc B0FA62B7 		.long	-1218250064
 1096 03e0 75EA6151 		.long	1365371509
 1097 03e4 EBA0EB45 		.long	1173070059
 1098 03e8 414BF3B6 		.long	-1225569471
 1099 03ec 23710452 		.long	1376022819
 1100 03f0 231518E4 		.long	-468183773
 1101 03f4 0AE9748D 		.long	-1921718006
 1102 03f8 1C40FA54 		.long	1425686556
 1103 03fc C70CDADD 		.long	-572912441
 1104 0400 2A18DF63 		.long	1675565098
 1105 0404 F63E40C6 		.long	-968868106
 1106 0408 E8C68E34 		.long	881772264
 1107 040c F557FFB9 		.long	-1174448139
 1108 0410 BDB852F6 		.long	-162350915
 1109 0414 F3B0860F 		.long	260485363
 1110 0418 8A083AFB 		.long	-80082806
 1111 041c 3315C74D 		.long	1304892723
 1112 0420 D217367B 		.long	2067142610
 1113 0424 EB874EA3 		.long	-1555134485
 1114 0428 DD9B2ABA 		.long	-1171612707
 1115 042c 061338E3 		.long	-482864378
 1116 0430 BBD6BA14 		.long	347788987
 1117 0434 C2C76DC9 		.long	-915552318
 1118 0438 B6543B33 		.long	859526326
 1119 043c FA7CE49B 		.long	-1679524614
 1120 0440 9992CF1D 		.long	500142745
 1121 0444 995FEAE7 		.long	-404070503
 1122 0448 CDEA8FB3 		.long	-1282413875
 1123 044c F7E2CFC3 		.long	-1009786121
 1124 0450 22E8875B 		.long	1535633442
 1125 0454 56ABC539 		.long	969255766
 1126 0458 8FA1F418 		.long	418685327
 1127 045c 9C4D482D 		.long	759713180
 1128 0460 19D56341 		.long	1097061657
 1129 0464 989E7679 		.long	2037816984
 1130 0468 F0678AF5 		.long	-175478800
 1131 046c 020C5940 		.long	1079577602
 1132 0470 C0719631 		.long	831943104
 1133 0474 3A136B26 		.long	644551482
 1134 0478 87B281AF 		.long	-1350454649
 1135 047c 37F7316A 		.long	1781659447
 1136 0480 9701BCE3 		.long	-474218089
 1137 0484 13990755 		.long	1426561299
 1138 0488 96C6729F 		.long	-1619868010
 1139 048c C8003E36 		.long	910033096
 1140 0490 47391553 		.long	1393899847
 1141 0494 7F12FDEB 		.long	-335736193
 1142 0498 1905F600 		.long	16123161
 1143 049c 2AB6A646 		.long	1185330730
 1144 04a0 8033B893 		.long	-1816644736
 1145 04a4 2493E23F 		.long	1071813412
 1146 04a8 9170C6DF 		.long	-540643183
 1147 04ac 6D38620F 		.long	258095213
 1148 04b0 795E37DC 		.long	-600351111
 1149 04b4 3E3FEA8F 		.long	-1880473794
 1150 04b8 D06384DF 		.long	-544971824
 1151 04bc 7BFA0237 		.long	922942075
 1152 04c0 5E435439 		.long	961823582
 1153 04c4 48A6CA87 		.long	-2016762296
 1154 04c8 EE8B15A9 		.long	-1458205714
 1155 04cc 250CF308 		.long	150146085
 1156 04d0 3629B866 		.long	1723345206
 1157 04d4 EB3FFCE7 		.long	-402898965
 1158 04d8 50543C18 		.long	406606928
 1159 04dc 4543EFD7 		.long	-672185531
 1160 04e0 63798C79 		.long	2039249251
 1161 04e4 57F52CC0 		.long	-1070795433
 1162 04e8 D1538509 		.long	159732689
 1163 04ec AA1243FA 		.long	-96267606
 1164 04f0 83F89EE2 		.long	-492898173
 1165 04f4 8D12AF7C 		.long	2091848333
 1166 04f8 7DA0B374 		.long	1957929085
 1167 04fc 00000000 		.space 896
 1167      00000000 
 1167      00000000 
 1167      00000000 
 1167      00000000 
 1168 087c 00000000 		.align 8
 1169              	.LC1:
 1170 0880 00000000 		.long	0
 1171 0884 00408F40 		.long	1083129856
 1172              		.align 8
 1173              	.LC2:
 1174 0888 00000000 		.long	0
 1175 088c 00003942 		.long	1111031808
 1176              		.align 8
 1177              	.LC3:
 1178 0890 00000000 		.long	0
 1179 0894 0000103E 		.long	1041235968
 1180              		.align 8
 1181              	.LC4:
 1182 0898 00000000 		.long	0
 1183 089c 65CDCD41 		.long	1104006501
 1184              		.ident	"GCC: (i686-posix-sjlj-rev2, Built by MinGW-W64 project) 4.9.2"