   1              		.file	"main.cpp"
   2              		.text
   3              	.Ltext0:
   4              		.cfi_sections	.debug_frame
   5              		.p2align 4,,15
   6              		.globl	_Z11farsh_keyedPKvyPKj
   8              		.seh_proc	_Z11farsh_keyedPKvyPKj
   9              	_Z11farsh_keyedPKvyPKj:
  10              	.LFB3007:
  11              		.file 1 "farsh.c"
   1:farsh.c       **** #include <stdlib.h>
   2:farsh.c       **** #include <memory.h>
   3:farsh.c       **** 
   4:farsh.c       **** #define UINT  /*uint32_t*/ unsigned
   5:farsh.c       **** #define ULONG /*uint64_t*/ unsigned long long
   6:farsh.c       **** 
   7:farsh.c       **** #define STRIPE          1024
   8:farsh.c       **** #define STRIPE_ELEMENTS (STRIPE/sizeof(UINT))
   9:farsh.c       **** static const UINT farsh_key[STRIPE_ELEMENTS+1024/32-1] = {  /* STRIPE bytes of key material plus ex
  10:farsh.c       ****     0xb8fe6c39,0x23a44bbe,0x7c01812c,0xf721ad1c,0xded46de9,0x839097db,0x7240a4a4,0xb7b3671f,0xcb79e
  11:farsh.c       ****     0xe3bc0197,0x55079913,0x9f72c696,0x363e00c8,0x53153947,0xebfd127f,0x00f60519,0x46a6b62a,0x93b83
  12:farsh.c       ****     };
  13:farsh.c       **** 
  14:farsh.c       **** /* Hash exactly STRIPE bytes */
  15:farsh.c       **** static UINT farsh_fast (const UINT *data, const UINT *key)
  16:farsh.c       **** {
  17:farsh.c       ****     ULONG sum = 0;  int i;
  18:farsh.c       ****     for (i=0; i < STRIPE_ELEMENTS; i+=2)
  19:farsh.c       ****         sum += (data[i] + key[i]) * (ULONG)(data[i+1] + key[i+1]);
  20:farsh.c       ****     return (UINT)(sum >> 32);
  21:farsh.c       **** }
  22:farsh.c       **** 
  23:farsh.c       **** /* Hash up to STRIPE bytes, consisting of whole UINT pairs, including optional
  24:farsh.c       ****    UINT pair in the extra[] */
  25:farsh.c       **** static UINT farsh_pairs (const UINT *data, size_t elements, const UINT* extra, const UINT *key)
  26:farsh.c       **** {
  27:farsh.c       ****     ULONG sum = 0;  int i;
  28:farsh.c       ****     for (i=0; i < elements; i+=2)
  29:farsh.c       ****         sum += (data[i] + key[i]) * (ULONG)(data[i+1] + key[i+1]);
  30:farsh.c       ****     if (extra)
  31:farsh.c       ****         sum += (extra[0] + key[i]) * (ULONG)(extra[1] + key[i+1]);
  32:farsh.c       ****     return (UINT)(sum >> 32);
  33:farsh.c       **** }
  34:farsh.c       **** 
  35:farsh.c       **** /* Hash up to STRIPE bytes, with special optimization for exactly STRIPE input
  36:farsh.c       ****    bytes and careful handling of partial UINT pair at the end of buffer */
  37:farsh.c       **** static UINT farsh_block (const void *data_ptr, size_t bytes, const UINT *key)
  38:farsh.c       **** {
  39:farsh.c       ****     const UINT *data = (const UINT*) data_ptr;
  40:farsh.c       ****     if (bytes == STRIPE)  return farsh_fast (data, key);
  41:farsh.c       ****     size_t elements = (bytes/sizeof(UINT)) & (~1);
  42:farsh.c       ****     UINT extra_data[2] = {0};
  43:farsh.c       ****     size_t extra_bytes = bytes - elements*sizeof(UINT);
  44:farsh.c       ****     memcpy (extra_data, data+elements, extra_bytes);
  45:farsh.c       ****     return farsh_pairs (data, elements, extra_bytes?extra_data:NULL, key);
  46:farsh.c       **** }
  47:farsh.c       **** 
  48:farsh.c       **** /* Hash the buffer of arbitrary size */
  49:farsh.c       **** UINT farsh_keyed (const void *data_ptr, size_t bytes, const UINT *key)
  50:farsh.c       **** {
  12              		.loc 1 50 0
  13              		.cfi_startproc
  14              	.LVL0:
  15 0000 4157     		pushq	%r15
  16              		.seh_pushreg	%r15
  17              		.cfi_def_cfa_offset 16
  18              		.cfi_offset 15, -16
  19 0002 4156     		pushq	%r14
  20              		.seh_pushreg	%r14
  21              		.cfi_def_cfa_offset 24
  22              		.cfi_offset 14, -24
  23 0004 4155     		pushq	%r13
  24              		.seh_pushreg	%r13
  25              		.cfi_def_cfa_offset 32
  26              		.cfi_offset 13, -32
  27 0006 4154     		pushq	%r12
  28              		.seh_pushreg	%r12
  29              		.cfi_def_cfa_offset 40
  30              		.cfi_offset 12, -40
  31 0008 55       		pushq	%rbp
  32              		.seh_pushreg	%rbp
  33              		.cfi_def_cfa_offset 48
  34              		.cfi_offset 6, -48
  35 0009 57       		pushq	%rdi
  36              		.seh_pushreg	%rdi
  37              		.cfi_def_cfa_offset 56
  38              		.cfi_offset 5, -56
  39 000a 56       		pushq	%rsi
  40              		.seh_pushreg	%rsi
  41              		.cfi_def_cfa_offset 64
  42              		.cfi_offset 4, -64
  43 000b 53       		pushq	%rbx
  44              		.seh_pushreg	%rbx
  45              		.cfi_def_cfa_offset 72
  46              		.cfi_offset 3, -72
  47 000c 4883EC58 		subq	$88, %rsp
  48              		.seh_stackalloc	88
  49              		.cfi_def_cfa_offset 160
  50 0010 0F297424 		movaps	%xmm6, 64(%rsp)
  50      40
  51              		.seh_savexmm	%xmm6, 64
  52              		.cfi_offset 23, -96
  53              		.seh_endprologue
  54              	.LVL1:
  55              	.LBB40:
  51:farsh.c       ****     ULONG sum = 0;  int i = 0;
  52:farsh.c       ****     const char *data = (const char*) data_ptr,  *end = data+bytes;
  56              		.loc 1 52 0
  57 0015 488D0411 		leaq	(%rcx,%rdx), %rax
  58              	.LBE40:
  50:farsh.c       ****     ULONG sum = 0;  int i = 0;
  59              		.loc 1 50 0
  60 0019 4889CB   		movq	%rcx, %rbx
  61 001c 4C89C6   		movq	%r8, %rsi
  62              	.LBB53:
  53:farsh.c       ****     while (data < end)
  63              		.loc 1 53 0
  64 001f 4839C1   		cmpq	%rax, %rcx
  52:farsh.c       ****     while (data < end)
  65              		.loc 1 52 0
  66 0022 48894424 		movq	%rax, 32(%rsp)
  66      20
  67              	.LVL2:
  68              		.loc 1 53 0
  69 0027 0F83DB01 		jae	.L14
  69      0000
  70 002d 4881FA00 		cmpq	$1024, %rdx
  70      040000
  71 0034 41BF0004 		movl	$1024, %r15d
  71      0000
  72 003a 41BC0000 		movl	$0, %r12d
  72      0000
  73 0040 4C0F46FA 		cmovbe	%rdx, %r15
  74 0044 4C8D5424 		leaq	48(%rsp), %r10
  74      30
  75              	.LBB41:
  76              	.LBB42:
  77              	.LBB43:
  41:farsh.c       ****     UINT extra_data[2] = {0};
  78              		.loc 1 41 0
  79 0049 4C89FF   		movq	%r15, %rdi
  80 004c 4D89FD   		movq	%r15, %r13
  81 004f 48C1EF02 		shrq	$2, %rdi
  82 0053 4883E7FE 		andq	$-2, %rdi
  43:farsh.c       ****     memcpy (extra_data, data+elements, extra_bytes);
  83              		.loc 1 43 0
  84 0057 488D04BD 		leaq	0(,%rdi,4), %rax
  84      00000000 
  85              	.LVL3:
  86 005f 4929C5   		subq	%rax, %r13
  87 0062 48894424 		movq	%rax, 40(%rsp)
  87      28
  88 0067 4D0F45E2 		cmovne	%r10, %r12
  89 006b 31ED     		xorl	%ebp, %ebp
  90 006d 4531F6   		xorl	%r14d, %r14d
  91              	.LVL4:
  92              		.p2align 4,,10
  93              	.L12:
  40:farsh.c       ****     size_t elements = (bytes/sizeof(UINT)) & (~1);
  94              		.loc 1 40 0
  95 0070 4981FF00 		cmpq	$1024, %r15
  95      040000
  96 0077 0F84D300 		je	.L28
  96      0000
  97              	.LVL5:
  98 007d 488B4424 		movq	40(%rsp), %rax
  98      28
  44:farsh.c       ****     return farsh_pairs (data, elements, extra_bytes?extra_data:NULL, key);
  99              		.loc 1 44 0
 100 0082 4C89D1   		movq	%r10, %rcx
 101 0085 4D89E8   		movq	%r13, %r8
  42:farsh.c       ****     size_t extra_bytes = bytes - elements*sizeof(UINT);
 102              		.loc 1 42 0
 103 0088 48C74424 		movq	$0, 48(%rsp)
 103      30000000 
 103      00
 104              	.LVL6:
 105 0091 488D1403 		leaq	(%rbx,%rax), %rdx
  44:farsh.c       ****     return farsh_pairs (data, elements, extra_bytes?extra_data:NULL, key);
 106              		.loc 1 44 0
 107 0095 E8000000 		call	memcpy
 107      00
 108              	.LVL7:
  45:farsh.c       **** }
 109              		.loc 1 45 0
 110 009a 4D85ED   		testq	%r13, %r13
  44:farsh.c       ****     return farsh_pairs (data, elements, extra_bytes?extra_data:NULL, key);
 111              		.loc 1 44 0
 112 009d 4989C2   		movq	%rax, %r10
  45:farsh.c       **** }
 113              		.loc 1 45 0
 114 00a0 0F843F01 		je	.L29
 114      0000
 115              	.LVL8:
 116              	.LBB44:
 117              	.LBB45:
  28:farsh.c       ****         sum += (data[i] + key[i]) * (ULONG)(data[i+1] + key[i+1]);
 118              		.loc 1 28 0
 119 00a6 31D2     		xorl	%edx, %edx
 120 00a8 31C0     		xorl	%eax, %eax
 121 00aa 4885FF   		testq	%rdi, %rdi
 122 00ad 0F844401 		je	.L30
 122      0000
 123              	.LVL9:
 124              		.p2align 4,,10
 125              	.L17:
  29:farsh.c       ****     if (extra)
 126              		.loc 1 29 0
 127 00b3 8B4C8304 		movl	4(%rbx,%rax,4), %ecx
 128 00b7 4189C8   		movl	%ecx, %r8d
 129 00ba 8B0C83   		movl	(%rbx,%rax,4), %ecx
 130 00bd 44034486 		addl	4(%rsi,%rax,4), %r8d
 130      04
 131 00c2 030C86   		addl	(%rsi,%rax,4), %ecx
 132 00c5 4883C002 		addq	$2, %rax
 133              	.LVL10:
 134 00c9 490FAFC8 		imulq	%r8, %rcx
 135 00cd 4801CA   		addq	%rcx, %rdx
 136              	.LVL11:
  28:farsh.c       ****         sum += (data[i] + key[i]) * (ULONG)(data[i+1] + key[i+1]);
 137              		.loc 1 28 0
 138 00d0 4839C7   		cmpq	%rax, %rdi
 139 00d3 77DE     		ja	.L17
 140 00d5 48C1E002 		salq	$2, %rax
  30:farsh.c       ****         sum += (extra[0] + key[i]) * (ULONG)(extra[1] + key[i+1]);
 141              		.loc 1 30 0
 142 00d9 4D85E4   		testq	%r12, %r12
 143 00dc 4D89E0   		movq	%r12, %r8
 144 00df 4C8D5804 		leaq	4(%rax), %r11
 145 00e3 741C     		je	.L25
 146              	.LVL12:
 147              	.L13:
  31:farsh.c       ****     return (UINT)(sum >> 32);
 148              		.loc 1 31 0
 149 00e5 418B4804 		movl	4(%r8), %ecx
 150 00e9 458B00   		movl	(%r8), %r8d
 151              	.LVL13:
 152 00ec 42030C1E 		addl	(%rsi,%r11), %ecx
 153              	.LVL14:
 154 00f0 4589C1   		movl	%r8d, %r9d
 155 00f3 44030C06 		addl	(%rsi,%rax), %r9d
 156 00f7 4C89C8   		movq	%r9, %rax
 157 00fa 480FAFC1 		imulq	%rcx, %rax
 158 00fe 4801C2   		addq	%rax, %rdx
 159              	.L25:
 160 0101 48C1EA20 		shrq	$32, %rdx
 161              	.LVL15:
 162              	.L5:
 163              	.LBE45:
 164              	.LBE44:
 165              	.LBE43:
 166              	.LBE42:
  54:farsh.c       ****     {
  55:farsh.c       ****         size_t minbytes = (bytes<STRIPE? bytes : STRIPE);
  56:farsh.c       ****         UINT h = farsh_block (data, minbytes, key);
  57:farsh.c       ****         data += minbytes;
  58:farsh.c       ****         sum += h*(ULONG)key[i];
 167              		.loc 1 58 0
 168 0105 4863C5   		movslq	%ebp, %rax
  59:farsh.c       ****         if (++i == STRIPE_ELEMENTS)
 169              		.loc 1 59 0
 170 0108 83C501   		addl	$1, %ebp
 171              	.LVL16:
  57:farsh.c       ****         sum += h*(ULONG)key[i];
 172              		.loc 1 57 0
 173 010b 4C01FB   		addq	%r15, %rbx
 174              	.LVL17:
  58:farsh.c       ****         if (++i == STRIPE_ELEMENTS)
 175              		.loc 1 58 0
 176 010e 8B0486   		movl	(%rsi,%rax,4), %eax
 177 0111 480FAFD0 		imulq	%rax, %rdx
  60:farsh.c       ****             i = 0;/*to do*/
 178              		.loc 1 60 0
 179 0115 B8000000 		movl	$0, %eax
 179      00
  58:farsh.c       ****         if (++i == STRIPE_ELEMENTS)
 180              		.loc 1 58 0
 181 011a 4901D6   		addq	%rdx, %r14
 182              	.LVL18:
 183              		.loc 1 60 0
 184 011d 81FD0001 		cmpl	$256, %ebp
 184      0000
 185 0123 0F44E8   		cmove	%eax, %ebp
 186              	.LVL19:
 187              	.LBE41:
  53:farsh.c       ****     {
 188              		.loc 1 53 0
 189 0126 48395C24 		cmpq	%rbx, 32(%rsp)
 189      20
 190 012b 0F873FFF 		ja	.L12
 190      FFFF
 191 0131 49C1EE20 		shrq	$32, %r14
 192              	.LVL20:
 193 0135 4C89F0   		movq	%r14, %rax
 194              	.LVL21:
 195              	.L22:
 196              	.LBE53:
  61:farsh.c       ****     }
  62:farsh.c       ****     return (UINT)(sum >> 32);
  63:farsh.c       **** }
 197              		.loc 1 63 0
 198 0138 0F287424 		movaps	64(%rsp), %xmm6
 198      40
 199 013d 4883C458 		addq	$88, %rsp
 200              		.cfi_remember_state
 201              		.cfi_restore 23
 202              		.cfi_def_cfa_offset 72
 203 0141 5B       		popq	%rbx
 204              		.cfi_restore 3
 205              		.cfi_def_cfa_offset 64
 206              	.LVL22:
 207 0142 5E       		popq	%rsi
 208              		.cfi_restore 4
 209              		.cfi_def_cfa_offset 56
 210              	.LVL23:
 211 0143 5F       		popq	%rdi
 212              		.cfi_restore 5
 213              		.cfi_def_cfa_offset 48
 214 0144 5D       		popq	%rbp
 215              		.cfi_restore 6
 216              		.cfi_def_cfa_offset 40
 217 0145 415C     		popq	%r12
 218              		.cfi_restore 12
 219              		.cfi_def_cfa_offset 32
 220 0147 415D     		popq	%r13
 221              		.cfi_restore 13
 222              		.cfi_def_cfa_offset 24
 223 0149 415E     		popq	%r14
 224              		.cfi_restore 14
 225              		.cfi_def_cfa_offset 16
 226 014b 415F     		popq	%r15
 227              		.cfi_restore 15
 228              		.cfi_def_cfa_offset 8
 229 014d C3       		ret
 230              	.LVL24:
 231 014e 6690     		.p2align 4,,10
 232              	.L28:
 233              		.cfi_restore_state
 234              	.LBB54:
 235              	.LBB52:
 236              	.LBB51:
 237              	.LBB50:
  40:farsh.c       ****     size_t elements = (bytes/sizeof(UINT)) & (~1);
 238              		.loc 1 40 0
 239 0150 31C0     		xorl	%eax, %eax
 240 0152 660FEFDB 		pxor	%xmm3, %xmm3
 241 0156 662E0F1F 		.p2align 4,,10
 241      84000000 
 241      0000
 242              	.L4:
 243              	.LBB47:
 244              	.LBB48:
  19:farsh.c       ****     return (UINT)(sum >> 32);
 245              		.loc 1 19 0
 246 0160 F30F6F14 		movdqu	(%rbx,%rax), %xmm2
 246      03
 247 0165 F30F6F0C 		movdqu	(%rsi,%rax), %xmm1
 247      06
 248 016a F30F6F6C 		movdqu	16(%rbx,%rax), %xmm5
 248      0310
 249 0170 660F6FC2 		movdqa	%xmm2, %xmm0
 250 0174 F30F6F74 		movdqu	16(%rsi,%rax), %xmm6
 250      0610
 251 017a 660F6FE1 		movdqa	%xmm1, %xmm4
 252 017e 4883C020 		addq	$32, %rax
 253 0182 0FC6D5DD 		shufps	$221, %xmm5, %xmm2
 254 0186 0FC6C588 		shufps	$136, %xmm5, %xmm0
 255 018a 483D0004 		cmpq	$1024, %rax
 255      0000
 256 0190 0FC6E688 		shufps	$136, %xmm6, %xmm4
 257 0194 0FC6CEDD 		shufps	$221, %xmm6, %xmm1
 258 0198 660FFEC4 		paddd	%xmm4, %xmm0
 259 019c 660FFECA 		paddd	%xmm2, %xmm1
 260 01a0 660F6FE1 		movdqa	%xmm1, %xmm4
 261 01a4 660F6FD0 		movdqa	%xmm0, %xmm2
 262 01a8 660F62E1 		punpckldq	%xmm1, %xmm4
 263 01ac 660F62D0 		punpckldq	%xmm0, %xmm2
 264 01b0 660FF4D4 		pmuludq	%xmm4, %xmm2
 265 01b4 660F6AC9 		punpckhdq	%xmm1, %xmm1
 266 01b8 660F6AC0 		punpckhdq	%xmm0, %xmm0
 267 01bc 660FF4C1 		pmuludq	%xmm1, %xmm0
 268 01c0 660FD4DA 		paddq	%xmm2, %xmm3
 269 01c4 660FD4D8 		paddq	%xmm0, %xmm3
 270              	.LVL25:
 271 01c8 7596     		jne	.L4
 272 01ca 660F6FC3 		movdqa	%xmm3, %xmm0
 273 01ce 660F73D8 		psrldq	$8, %xmm0
 273      08
 274 01d3 660FD4D8 		paddq	%xmm0, %xmm3
 275 01d7 66480F7E 		movq	%xmm3, %rdx
 275      DA
  20:farsh.c       **** }
 276              		.loc 1 20 0
 277 01dc 48C1EA20 		shrq	$32, %rdx
 278 01e0 E920FFFF 		jmp	.L5
 278      FF
 279              	.LVL26:
 280              		.p2align 4,,10
 281              	.L29:
 282              	.LBE48:
 283              	.LBE47:
 284              	.LBB49:
 285              	.LBB46:
  28:farsh.c       ****         sum += (data[i] + key[i]) * (ULONG)(data[i+1] + key[i+1]);
 286              		.loc 1 28 0
 287 01e5 31D2     		xorl	%edx, %edx
 288 01e7 31C0     		xorl	%eax, %eax
 289 01e9 4885FF   		testq	%rdi, %rdi
 290 01ec 0F85C1FE 		jne	.L17
 290      FFFF
 291 01f2 E90EFFFF 		jmp	.L5
 291      FF
 292              	.LVL27:
 293              	.L30:
 294 01f7 41BB0400 		movl	$4, %r11d
 294      0000
  27:farsh.c       ****     for (i=0; i < elements; i+=2)
 295              		.loc 1 27 0
 296 01fd 4889FA   		movq	%rdi, %rdx
 297              	.LBE46:
 298              	.LBE49:
  45:farsh.c       **** }
 299              		.loc 1 45 0
 300 0200 4D89D0   		movq	%r10, %r8
 301 0203 E9DDFEFF 		jmp	.L13
 301      FF
 302              	.LVL28:
 303              	.L14:
 304              	.LBE50:
 305              	.LBE51:
 306              	.LBE52:
  53:farsh.c       ****     {
 307              		.loc 1 53 0
 308 0208 31C0     		xorl	%eax, %eax
 309              	.LVL29:
 310 020a E929FFFF 		jmp	.L22
 310      FF
 311              	.LBE54:
 312              		.cfi_endproc
 313              	.LFE3007:
 314              		.seh_endproc
 315 020f 90       		.p2align 4,,15
 316              		.globl	_Z13farsh_keyed_nPKvyPKjiPj
 318              		.seh_proc	_Z13farsh_keyed_nPKvyPKjiPj
 319              	_Z13farsh_keyed_nPKvyPKjiPj:
 320              	.LFB3008:
  64:farsh.c       **** 
  65:farsh.c       **** /* Hash the buffer of arbitrary size */
  66:farsh.c       **** void farsh_keyed_n (const void *data_ptr, size_t bytes, const UINT *key, int n, UINT *hash)
  67:farsh.c       **** {
 321              		.loc 1 67 0
 322              		.cfi_startproc
 323              	.LVL30:
 324 0210 4155     		pushq	%r13
 325              		.seh_pushreg	%r13
 326              		.cfi_def_cfa_offset 16
 327              		.cfi_offset 13, -16
 328 0212 4154     		pushq	%r12
 329              		.seh_pushreg	%r12
 330              		.cfi_def_cfa_offset 24
 331              		.cfi_offset 12, -24
 332 0214 55       		pushq	%rbp
 333              		.seh_pushreg	%rbp
 334              		.cfi_def_cfa_offset 32
 335              		.cfi_offset 6, -32
 336 0215 57       		pushq	%rdi
 337              		.seh_pushreg	%rdi
 338              		.cfi_def_cfa_offset 40
 339              		.cfi_offset 5, -40
 340 0216 56       		pushq	%rsi
 341              		.seh_pushreg	%rsi
 342              		.cfi_def_cfa_offset 48
 343              		.cfi_offset 4, -48
 344 0217 53       		pushq	%rbx
 345              		.seh_pushreg	%rbx
 346              		.cfi_def_cfa_offset 56
 347              		.cfi_offset 3, -56
 348 0218 4883EC28 		subq	$40, %rsp
 349              		.seh_stackalloc	40
 350              		.cfi_def_cfa_offset 96
 351              		.seh_endprologue
 352              	.LVL31:
 353              		.loc 1 67 0
 354 021c 4C8BA424 		movq	128(%rsp), %r12
 354      80000000 
 355              	.LBB56:
  68:farsh.c       ****     int i;
  69:farsh.c       ****     for (i=0; i < n; i++)
 356              		.loc 1 69 0
 357 0224 4585C9   		testl	%r9d, %r9d
 358 0227 7E34     		jle	.L31
 359 0229 4183E901 		subl	$1, %r9d
 360              	.LVL32:
 361 022d 4C89C5   		movq	%r8, %rbp
 362 0230 4889D7   		movq	%rdx, %rdi
 363 0233 4E8D2C8D 		leaq	4(,%r9,4), %r13
 363      04000000 
 364 023b 4889CE   		movq	%rcx, %rsi
 365 023e 31DB     		xorl	%ebx, %ebx
 366              	.LVL33:
 367              		.p2align 4,,10
 368              	.L33:
  70:farsh.c       ****         hash[i] = farsh_keyed (data_ptr, bytes, key+i);
 369              		.loc 1 70 0 discriminator 3
 370 0240 4C8D441D 		leaq	0(%rbp,%rbx), %r8
 370      00
 371 0245 4889FA   		movq	%rdi, %rdx
 372 0248 4889F1   		movq	%rsi, %rcx
 373 024b E8B0FDFF 		call	_Z11farsh_keyedPKvyPKj
 373      FF
 374              	.LVL34:
 375 0250 4189041C 		movl	%eax, (%r12,%rbx)
 376 0254 4883C304 		addq	$4, %rbx
  69:farsh.c       ****         hash[i] = farsh_keyed (data_ptr, bytes, key+i);
 377              		.loc 1 69 0 discriminator 3
 378 0258 4C39EB   		cmpq	%r13, %rbx
 379 025b 75E3     		jne	.L33
 380              	.LVL35:
 381              	.L31:
 382              	.LBE56:
  71:farsh.c       **** }
 383              		.loc 1 71 0
 384 025d 4883C428 		addq	$40, %rsp
 385              		.cfi_def_cfa_offset 56
 386 0261 5B       		popq	%rbx
 387              		.cfi_restore 3
 388              		.cfi_def_cfa_offset 48
 389 0262 5E       		popq	%rsi
 390              		.cfi_restore 4
 391              		.cfi_def_cfa_offset 40
 392 0263 5F       		popq	%rdi
 393              		.cfi_restore 5
 394              		.cfi_def_cfa_offset 32
 395 0264 5D       		popq	%rbp
 396              		.cfi_restore 6
 397              		.cfi_def_cfa_offset 24
 398 0265 415C     		popq	%r12
 399              		.cfi_restore 12
 400              		.cfi_def_cfa_offset 16
 401 0267 415D     		popq	%r13
 402              		.cfi_restore 13
 403              		.cfi_def_cfa_offset 8
 404 0269 C3       		ret
 405              		.cfi_endproc
 406              	.LFE3008:
 407              		.seh_endproc
 408 026a 660F1F44 		.p2align 4,,15
 408      0000
 409              		.globl	_Z7farsh_nPKvyiPj
 411              		.seh_proc	_Z7farsh_nPKvyiPj
 412              	_Z7farsh_nPKvyiPj:
 413              	.LFB3009:
  72:farsh.c       **** 
  73:farsh.c       **** /* Hash the buffer of arbitrary size */
  74:farsh.c       **** void farsh_n (const void *data_ptr, size_t bytes, int n, UINT *hash)
  75:farsh.c       **** {
 414              		.loc 1 75 0
 415              		.cfi_startproc
 416              	.LVL36:
 417 0270 4155     		pushq	%r13
 418              		.seh_pushreg	%r13
 419              		.cfi_def_cfa_offset 16
 420              		.cfi_offset 13, -16
 421 0272 4154     		pushq	%r12
 422              		.seh_pushreg	%r12
 423              		.cfi_def_cfa_offset 24
 424              		.cfi_offset 12, -24
 425 0274 55       		pushq	%rbp
 426              		.seh_pushreg	%rbp
 427              		.cfi_def_cfa_offset 32
 428              		.cfi_offset 6, -32
 429 0275 57       		pushq	%rdi
 430              		.seh_pushreg	%rdi
 431              		.cfi_def_cfa_offset 40
 432              		.cfi_offset 5, -40
 433 0276 56       		pushq	%rsi
 434              		.seh_pushreg	%rsi
 435              		.cfi_def_cfa_offset 48
 436              		.cfi_offset 4, -48
 437 0277 53       		pushq	%rbx
 438              		.seh_pushreg	%rbx
 439              		.cfi_def_cfa_offset 56
 440              		.cfi_offset 3, -56
 441 0278 4883EC28 		subq	$40, %rsp
 442              		.seh_stackalloc	40
 443              		.cfi_def_cfa_offset 96
 444              		.seh_endprologue
 445              	.LVL37:
 446              	.LBB60:
 447              	.LBB61:
  69:farsh.c       ****         hash[i] = farsh_keyed (data_ptr, bytes, key+i);
 448              		.loc 1 69 0
 449 027c 4585C0   		testl	%r8d, %r8d
 450 027f 7E3B     		jle	.L36
 451 0281 4183E801 		subl	$1, %r8d
 452              	.LVL38:
 453 0285 4C89CD   		movq	%r9, %rbp
 454 0288 4889D7   		movq	%rdx, %rdi
 455 028b 4E8D2C85 		leaq	4(,%r8,4), %r13
 455      04000000 
 456 0293 4889CE   		movq	%rcx, %rsi
 457 0296 31DB     		xorl	%ebx, %ebx
 458 0298 4C8D2580 		leaq	_ZL9farsh_key(%rip), %r12
 458      000000
 459              	.LVL39:
 460 029f 90       		.p2align 4,,10
 461              	.L38:
  70:farsh.c       **** }
 462              		.loc 1 70 0
 463 02a0 4D8D041C 		leaq	(%r12,%rbx), %r8
 464 02a4 4889FA   		movq	%rdi, %rdx
 465 02a7 4889F1   		movq	%rsi, %rcx
 466 02aa E851FDFF 		call	_Z11farsh_keyedPKvyPKj
 466      FF
 467              	.LVL40:
 468 02af 89441D00 		movl	%eax, 0(%rbp,%rbx)
 469 02b3 4883C304 		addq	$4, %rbx
  69:farsh.c       ****         hash[i] = farsh_keyed (data_ptr, bytes, key+i);
 470              		.loc 1 69 0
 471 02b7 4C39EB   		cmpq	%r13, %rbx
 472 02ba 75E4     		jne	.L38
 473              	.LVL41:
 474              	.L36:
 475              	.LBE61:
 476              	.LBE60:
  76:farsh.c       ****     farsh_keyed_n (data_ptr, bytes, farsh_key, n, hash);
  77:farsh.c       **** }
 477              		.loc 1 77 0
 478 02bc 4883C428 		addq	$40, %rsp
 479              		.cfi_def_cfa_offset 56
 480 02c0 5B       		popq	%rbx
 481              		.cfi_restore 3
 482              		.cfi_def_cfa_offset 48
 483 02c1 5E       		popq	%rsi
 484              		.cfi_restore 4
 485              		.cfi_def_cfa_offset 40
 486 02c2 5F       		popq	%rdi
 487              		.cfi_restore 5
 488              		.cfi_def_cfa_offset 32
 489 02c3 5D       		popq	%rbp
 490              		.cfi_restore 6
 491              		.cfi_def_cfa_offset 24
 492 02c4 415C     		popq	%r12
 493              		.cfi_restore 12
 494              		.cfi_def_cfa_offset 16
 495 02c6 415D     		popq	%r13
 496              		.cfi_restore 13
 497              		.cfi_def_cfa_offset 8
 498 02c8 C3       		ret
 499              		.cfi_endproc
 500              	.LFE3009:
 501              		.seh_endproc
 502 02c9 0F1F8000 		.p2align 4,,15
 502      000000
 503              		.globl	_Z5farshPKvy
 505              		.seh_proc	_Z5farshPKvy
 506              	_Z5farshPKvy:
 507              	.LFB3010:
  78:farsh.c       **** 
  79:farsh.c       **** /* Hash the buffer of arbitrary size */
  80:farsh.c       **** UINT farsh (const void *data_ptr, size_t bytes)
  81:farsh.c       **** {
 508              		.loc 1 81 0
 509              		.cfi_startproc
 510              	.LVL42:
 511              		.seh_endprologue
  82:farsh.c       ****     return farsh_keyed (data_ptr, bytes, farsh_key);
 512              		.loc 1 82 0
 513 02d0 4C8D0580 		leaq	_ZL9farsh_key(%rip), %r8
 513      000000
  83:farsh.c       **** }
 514              		.loc 1 83 0
  82:farsh.c       ****     return farsh_keyed (data_ptr, bytes, farsh_key);
 515              		.loc 1 82 0
 516 02d7 E924FDFF 		jmp	_Z11farsh_keyedPKvyPKj
 516      FF
 517              	.LVL43:
 518              		.cfi_endproc
 519              	.LFE3010:
 520              		.seh_endproc
 522              		.section .rdata,"dr"
 523              	.LC0:
 524 0000 48617368 		.ascii "Hashing %d GiB\0"
 524      696E6720 
 524      25642047 
 524      694200
 525 000f 00       		.align 8
 526              	.LC5:
 527 0010 3A20252E 		.ascii ": %.3lf milliseconds = %.3lf GB/s = %.3lf GiB/s\12\0"
 527      336C6620 
 527      6D696C6C 
 527      69736563 
 527      6F6E6473 
 528              		.section	.text.startup,"x"
 529              		.p2align 4,,15
 530              		.globl	main
 532              		.seh_proc	main
 533              	main:
 534              	.LFB3011:
 535              		.file 2 "main.cpp"
   1:main.cpp      **** #include <stdio.h>
   2:main.cpp      **** #include <stdint.h>
   3:main.cpp      **** #include "timer.h"
   4:main.cpp      **** #include "farsh.c"
   5:main.cpp      **** 
   6:main.cpp      **** int main()
   7:main.cpp      **** {
 536              		.loc 2 7 0
 537              		.cfi_startproc
 538 0000 4154     		pushq	%r12
 539              		.seh_pushreg	%r12
 540              		.cfi_def_cfa_offset 16
 541              		.cfi_offset 12, -16
 542 0002 55       		pushq	%rbp
 543              		.seh_pushreg	%rbp
 544              		.cfi_def_cfa_offset 24
 545              		.cfi_offset 6, -24
 546 0003 57       		pushq	%rdi
 547              		.seh_pushreg	%rdi
 548              		.cfi_def_cfa_offset 32
 549              		.cfi_offset 5, -32
 550 0004 56       		pushq	%rsi
 551              		.seh_pushreg	%rsi
 552              		.cfi_def_cfa_offset 40
 553              		.cfi_offset 4, -40
 554 0005 53       		pushq	%rbx
 555              		.seh_pushreg	%rbx
 556              		.cfi_def_cfa_offset 48
 557              		.cfi_offset 3, -48
 558 0006 4883EC60 		subq	$96, %rsp
 559              		.seh_stackalloc	96
 560              		.cfi_def_cfa_offset 144
 561 000a 0F297424 		movaps	%xmm6, 64(%rsp)
 561      40
 562              		.seh_savexmm	%xmm6, 64
 563 000f 0F297C24 		movaps	%xmm7, 80(%rsp)
 563      50
 564              		.seh_savexmm	%xmm7, 80
 565              		.cfi_offset 23, -80
 566              		.cfi_offset 24, -64
 567              		.seh_endprologue
 568 0014 488D3D80 		leaq	_ZL9farsh_key(%rip), %rdi
 568      000000
 569              	.LBB92:
 570              	.LBB93:
 571              	.LBB94:
 572              		.file 3 "timer.h"
   1:timer.h       **** //--------------------------------------------------------------------------------------
   2:timer.h       **** // Copyright (c) Microsoft Corp.
   3:timer.h       **** //
   4:timer.h       **** // File: timer.h
   5:timer.h       **** //
   6:timer.h       **** // Licensed under the Apache License, Version 2.0 (the "License"); you may not use this
   7:timer.h       **** // file except in compliance with the License. You may obtain a copy of the License at
   8:timer.h       **** // http://www.apache.org/licenses/LICENSE-2.0
   9:timer.h       **** //
  10:timer.h       **** // THIS CODE IS PROVIDED *AS IS* BASIS, WITHOUT WARRANTIES OR CONDITIONS OF ANY KIND,
  11:timer.h       **** // EITHER EXPRESS OR IMPLIED, INCLUDING WITHOUT LIMITATION ANY IMPLIED WARRANTIES OR
  12:timer.h       **** // CONDITIONS OF TITLE, FITNESS FOR A PARTICULAR PURPOSE, MERCHANTABLITY OR NON-INFRINGEMENT.
  13:timer.h       **** //
  14:timer.h       **** // See the Apache Version 2.0 License for specific language governing permissions and
  15:timer.h       **** // limitations under the License.
  16:timer.h       **** //--------------------------------------------------------------------------------------
  17:timer.h       **** 
  18:timer.h       **** #pragma once
  19:timer.h       **** #include <windows.h>
  20:timer.h       **** 
  21:timer.h       **** struct Timer
  22:timer.h       **** {
  23:timer.h       ****     void Start()
  24:timer.h       ****     {
  25:timer.h       ****         QueryPerformanceCounter(&m_start);
 573              		.loc 3 25 0
 574 001b 4531E4   		xorl	%r12d, %r12d
 575              	.LBE94:
 576              	.LBE93:
 577              	.LBE92:
 578              		.loc 2 7 0
 579 001e E8000000 		call	__main
 579      00
 580              	.LVL44:
 581              	.LBB141:
 582              	.LBB98:
 583              	.LBB99:
  26:timer.h       ****     }
  27:timer.h       **** 
  28:timer.h       ****     void Stop()
  29:timer.h       ****     {
  30:timer.h       ****         QueryPerformanceCounter(&m_stop);
  31:timer.h       ****     }
  32:timer.h       **** 
  33:timer.h       ****     // Returns elapsed time in milliseconds (ms)
  34:timer.h       ****     double Elapsed()
  35:timer.h       ****     {
  36:timer.h       ****         return (m_stop.QuadPart - m_start.QuadPart - m_overhead) \
  37:timer.h       ****                                           * 1000.0 / m_freq.QuadPart;
  38:timer.h       ****     }
  39:timer.h       **** 
  40:timer.h       ****     Timer()
  41:timer.h       ****     {
  42:timer.h       ****         // Initialize the resolution of the timer
  43:timer.h       ****         QueryPerformanceFrequency(&m_freq);
 584              		.loc 3 43 0
 585 0023 488D5C24 		leaq	32(%rsp), %rbx
 585      20
 586              	.LBE99:
 587              	.LBE98:
   8:main.cpp      ****     const size_t DATASIZE = 28*1024;
   9:main.cpp      ****     const uint64_t DATASET = uint64_t(10)<<30;
  10:main.cpp      ****     printf("Hashing %d GiB", int(DATASET>>30));
 588              		.loc 2 10 0
 589 0028 BA0A0000 		movl	$10, %edx
 589      00
 590 002d 488D0D00 		leaq	.LC0(%rip), %rcx
 590      000000
 591 0034 E8000000 		call	printf
 591      00
 592              	.LVL45:
 593              	.LBB110:
 594              	.LBB108:
 595              		.loc 3 43 0
 596 0039 488D4B10 		leaq	16(%rbx), %rcx
 597 003d FF150000 		call	*__imp_QueryPerformanceFrequency(%rip)
 597      0000
 598              	.LVL46:
 599              	.LBB100:
 600              	.LBB101:
 601              	.LBB102:
 602              	.LBB103:
  25:timer.h       ****     }
 603              		.loc 3 25 0
 604 0043 488B3500 		movq	__imp_QueryPerformanceCounter(%rip), %rsi
 604      000000
 605 004a 4889D9   		movq	%rbx, %rcx
 606 004d FFD6     		call	*%rsi
 607              	.LVL47:
 608              	.LBE103:
 609              	.LBE102:
 610              	.LBB104:
 611              	.LBB105:
  30:timer.h       ****     }
 612              		.loc 3 30 0
 613 004f 488D4B08 		leaq	8(%rbx), %rcx
 614 0053 FFD6     		call	*%rsi
 615              	.LVL48:
 616              	.LBE105:
 617              	.LBE104:
  44:timer.h       **** 
  45:timer.h       ****         // Calculate the overhead of the timer
  46:timer.h       ****         m_overhead = Timer::GetOverhead();
  47:timer.h       ****     }
  48:timer.h       **** 
  49:timer.h       **** private:
  50:timer.h       **** 
  51:timer.h       ****     // Returns the overhead of the timer in ticks
  52:timer.h       ****     LONGLONG GetOverhead()
  53:timer.h       ****     {
  54:timer.h       ****         Start();
  55:timer.h       ****         Stop();
  56:timer.h       ****         return m_stop.QuadPart - m_start.QuadPart;
 618              		.loc 3 56 0
 619 0055 488B4424 		movq	40(%rsp), %rax
 619      28
 620              	.LBE101:
 621              	.LBE100:
 622              	.LBE108:
 623              	.LBE110:
 624              	.LBB111:
 625              	.LBB95:
  25:timer.h       ****     }
 626              		.loc 3 25 0
 627 005a 4889D9   		movq	%rbx, %rcx
 628              	.LBE95:
 629              	.LBE111:
 630              	.LBB112:
 631              	.LBB109:
 632              	.LBB107:
 633              	.LBB106:
 634              		.loc 3 56 0
 635 005d 482B4424 		subq	32(%rsp), %rax
 635      20
 636              	.LBE106:
 637              	.LBE107:
  46:timer.h       ****     }
 638              		.loc 3 46 0
 639 0062 48894424 		movq	%rax, 56(%rsp)
 639      38
 640              	.LVL49:
 641              	.LBE109:
 642              	.LBE112:
 643              	.LBB113:
 644              	.LBB96:
  25:timer.h       ****     }
 645              		.loc 3 25 0
 646 0067 FFD6     		call	*%rsi
 647              	.LVL50:
 648 0069 4C8D1D00 		leaq	28672+_ZZ4mainE4data(%rip), %r11
 648      700000
 649 0070 4C8D0580 		leaq	1024+_ZL9farsh_key(%rip), %r8
 649      040000
 650              	.LVL51:
 651              	.L48:
 652              	.LBE96:
 653              	.LBE113:
 654              	.LBB114:
 655              	.LBB115:
  11:main.cpp      ****     Timer t;  t.Start();
  12:main.cpp      **** 
  13:main.cpp      ****     for (int i=0; i<DATASET/DATASIZE; i++)
  14:main.cpp      ****     {
  15:main.cpp      ****         static char data[DATASIZE];  data[0]=(char)i;
 656              		.loc 2 15 0
 657 0077 44882500 		movb	%r12b, _ZZ4mainE4data(%rip)
 657      000000
 658              	.LVL52:
 659              	.LBB116:
 660              	.LBB117:
 661              	.LBB118:
  51:farsh.c       ****     const char *data = (const char*) data_ptr,  *end = data+bytes;
 662              		.loc 1 51 0
 663 007e 4531D2   		xorl	%r10d, %r10d
 664 0081 4531C9   		xorl	%r9d, %r9d
 665              	.LBB119:
  60:farsh.c       ****     }
 666              		.loc 1 60 0
 667 0084 31ED     		xorl	%ebp, %ebp
 668              	.LBE119:
  52:farsh.c       ****     while (data < end)
 669              		.loc 1 52 0
 670 0086 488D0D00 		leaq	_ZZ4mainE4data(%rip), %rcx
 670      000000
 671              	.LVL53:
 672 008d 0F1F00   		.p2align 4,,10
 673              	.L43:
 674 0090 488D0580 		leaq	_ZL9farsh_key(%rip), %rax
 674      000000
 675 0097 4889CA   		movq	%rcx, %rdx
 676              	.LBE118:
 677              	.LBE117:
 678              	.LBE116:
 679              	.LBE115:
 680              	.LBE114:
 681              	.LBB133:
 682              	.LBB97:
  25:timer.h       ****     }
 683              		.loc 3 25 0
 684 009a 660FEFED 		pxor	%xmm5, %xmm5
 685              	.LVL54:
 686 009e 6690     		.p2align 4,,10
 687              	.L44:
 688              	.LBE97:
 689              	.LBE133:
 690              	.LBB134:
 691              	.LBB132:
 692              	.LBB131:
 693              	.LBB130:
 694              	.LBB129:
 695              	.LBB128:
 696              	.LBB120:
 697              	.LBB121:
 698              	.LBB122:
 699              	.LBB123:
  19:farsh.c       ****     return (UINT)(sum >> 32);
 700              		.loc 1 19 0
 701 00a0 660F6F0A 		movdqa	(%rdx), %xmm1
 702 00a4 4883C020 		addq	$32, %rax
 703 00a8 4883C220 		addq	$32, %rdx
 704 00ac 660F6F60 		movdqa	-32(%rax), %xmm4
 704      E0
 705 00b1 660F6F72 		movdqa	-16(%rdx), %xmm6
 705      F0
 706 00b6 660F6FD9 		movdqa	%xmm1, %xmm3
 707 00ba 660F6F78 		movdqa	-16(%rax), %xmm7
 707      F0
 708 00bf 660F6FD4 		movdqa	%xmm4, %xmm2
 709 00c3 4C39C0   		cmpq	%r8, %rax
 710 00c6 0FC6DE88 		shufps	$136, %xmm6, %xmm3
 711 00ca 0FC6CEDD 		shufps	$221, %xmm6, %xmm1
 712 00ce 0FC6D788 		shufps	$136, %xmm7, %xmm2
 713 00d2 0FC6E7DD 		shufps	$221, %xmm7, %xmm4
 714 00d6 660FFED3 		paddd	%xmm3, %xmm2
 715 00da 660FFEE1 		paddd	%xmm1, %xmm4
 716 00de 660F6FDC 		movdqa	%xmm4, %xmm3
 717 00e2 660F6FCA 		movdqa	%xmm2, %xmm1
 718 00e6 660F6FC4 		movdqa	%xmm4, %xmm0
 719 00ea 660F62CA 		punpckldq	%xmm2, %xmm1
 720 00ee 660F62DC 		punpckldq	%xmm4, %xmm3
 721 00f2 660FF4CB 		pmuludq	%xmm3, %xmm1
 722 00f6 660F6AC4 		punpckhdq	%xmm4, %xmm0
 723 00fa 660F6AD2 		punpckhdq	%xmm2, %xmm2
 724 00fe 660FF4C2 		pmuludq	%xmm2, %xmm0
 725 0102 660FD4E9 		paddq	%xmm1, %xmm5
 726 0106 660FD4E8 		paddq	%xmm0, %xmm5
 727 010a 7594     		jne	.L44
 728              	.LBE123:
 729              	.LBE122:
 730              	.LBE121:
 731              	.LBE120:
  58:farsh.c       ****         if (++i == STRIPE_ELEMENTS)
 732              		.loc 1 58 0
 733 010c 4963D1   		movslq	%r9d, %rdx
 734 010f 660F6FC5 		movdqa	%xmm5, %xmm0
  59:farsh.c       ****             i = 0;/*to do*/
 735              		.loc 1 59 0
 736 0113 4183C101 		addl	$1, %r9d
 737              	.LVL55:
 738 0117 660F73D8 		psrldq	$8, %xmm0
 738      08
  58:farsh.c       ****         if (++i == STRIPE_ELEMENTS)
 739              		.loc 1 58 0
 740 011c 8B1497   		movl	(%rdi,%rdx,4), %edx
  57:farsh.c       ****         sum += h*(ULONG)key[i];
 741              		.loc 1 57 0
 742 011f 4881C100 		addq	$1024, %rcx
 742      040000
 743              	.LVL56:
 744 0126 660FD4C5 		paddq	%xmm5, %xmm0
 745 012a 66480F7E 		movq	%xmm0, %rax
 745      C0
 746              	.LBB127:
 747              	.LBB126:
 748              	.LBB125:
 749              	.LBB124:
  20:farsh.c       **** }
 750              		.loc 1 20 0
 751 012f 48C1E820 		shrq	$32, %rax
 752              	.LBE124:
 753              	.LBE125:
 754              	.LBE126:
 755              	.LBE127:
  58:farsh.c       ****         if (++i == STRIPE_ELEMENTS)
 756              		.loc 1 58 0
 757 0133 480FAFC2 		imulq	%rdx, %rax
 758 0137 4901C2   		addq	%rax, %r10
 759              	.LVL57:
  60:farsh.c       ****     }
 760              		.loc 1 60 0
 761 013a 4181F900 		cmpl	$256, %r9d
 761      010000
 762 0141 440F44CD 		cmove	%ebp, %r9d
 763              	.LVL58:
 764              	.LBE128:
  53:farsh.c       ****     {
 765              		.loc 1 53 0
 766 0145 4C39D9   		cmpq	%r11, %rcx
 767 0148 0F8242FF 		jb	.L43
 767      FFFF
  62:farsh.c       **** }
 768              		.loc 1 62 0
 769 014e 49C1EA20 		shrq	$32, %r10
 770              	.LVL59:
 771              	.LBE129:
 772              	.LBE130:
 773              	.LBE131:
  16:main.cpp      ****         auto h = farsh (data, DATASIZE);
  17:main.cpp      ****         if (h==42) break;
 774              		.loc 2 17 0
 775 0152 4983FA2A 		cmpq	$42, %r10
 776 0156 7411     		je	.L47
 777              	.LBE132:
  13:main.cpp      ****     {
 778              		.loc 2 13 0 discriminator 2
 779 0158 4183C401 		addl	$1, %r12d
 780              	.LVL60:
 781 015c 4181FCDB 		cmpl	$374491, %r12d
 781      B60500
 782 0163 0F850EFF 		jne	.L48
 782      FFFF
 783              	.L47:
 784              	.LVL61:
 785              	.LBE134:
 786              	.LBB135:
 787              	.LBB136:
  30:timer.h       ****     }
 788              		.loc 3 30 0
 789 0169 488D4B08 		leaq	8(%rbx), %rcx
 790              	.LVL62:
 791 016d FFD6     		call	*%rsi
 792              	.LVL63:
 793              	.LBE136:
 794              	.LBE135:
 795              	.LBB137:
 796              	.LBB138:
  36:timer.h       ****                                           * 1000.0 / m_freq.QuadPart;
 797              		.loc 3 36 0
 798 016f 488B4424 		movq	40(%rsp), %rax
 798      28
  37:timer.h       ****     }
 799              		.loc 3 37 0
 800 0174 660FEFC0 		pxor	%xmm0, %xmm0
 801 0178 660FEFD2 		pxor	%xmm2, %xmm2
  36:timer.h       ****                                           * 1000.0 / m_freq.QuadPart;
 802              		.loc 3 36 0
 803 017c 482B4424 		subq	32(%rsp), %rax
 803      20
 804              	.LBE138:
 805              	.LBE137:
  18:main.cpp      ****     }
  19:main.cpp      **** 
  20:main.cpp      ****     t.Stop();  auto speed = DATASET/(t.Elapsed()/1000);
  21:main.cpp      ****     printf(": %.3lf milliseconds = %.3lf GB/s = %.3lf GiB/s\n", t.Elapsed(), speed/1e9, speed/(1<<3
 806              		.loc 2 21 0
 807 0181 488D0D10 		leaq	.LC5(%rip), %rcx
 807      000000
 808              	.LBB140:
 809              	.LBB139:
  36:timer.h       ****                                           * 1000.0 / m_freq.QuadPart;
 810              		.loc 3 36 0
 811 0188 482B4424 		subq	56(%rsp), %rax
 811      38
  37:timer.h       ****     }
 812              		.loc 3 37 0
 813 018d F20F100D 		movsd	.LC1(%rip), %xmm1
 813      00050000 
 814 0195 F2480F2A 		cvtsi2sdq	48(%rsp), %xmm2
 814      542430
 815 019c F2480F2A 		cvtsi2sdq	%rax, %xmm0
 815      C0
 816 01a1 F20F59C1 		mulsd	%xmm1, %xmm0
 817 01a5 F20F5EC2 		divsd	%xmm2, %xmm0
 818              	.LBE139:
 819              	.LBE140:
  20:main.cpp      ****     printf(": %.3lf milliseconds = %.3lf GB/s = %.3lf GiB/s\n", t.Elapsed(), speed/1e9, speed/(1<<3
 820              		.loc 2 20 0
 821 01a9 660F28D0 		movapd	%xmm0, %xmm2
 822              		.loc 2 21 0
 823 01ad 66480F7E 		movq	%xmm0, %rdx
 823      C2
  20:main.cpp      ****     printf(": %.3lf milliseconds = %.3lf GB/s = %.3lf GiB/s\n", t.Elapsed(), speed/1e9, speed/(1<<3
 824              		.loc 2 20 0
 825 01b2 F20F5ED1 		divsd	%xmm1, %xmm2
 826 01b6 F20F100D 		movsd	.LC2(%rip), %xmm1
 826      08050000 
 827 01be F20F5ECA 		divsd	%xmm2, %xmm1
 828              	.LVL64:
 829              		.loc 2 21 0
 830 01c2 F20F1015 		movsd	.LC3(%rip), %xmm2
 830      10050000 
 831 01ca F20F59D1 		mulsd	%xmm1, %xmm2
 832 01ce F20F5E0D 		divsd	.LC4(%rip), %xmm1
 832      18050000 
 833              	.LVL65:
 834 01d6 66490F7E 		movq	%xmm1, %r8
 834      C8
 835 01db 660F28DA 		movapd	%xmm2, %xmm3
 836 01df 66490F7E 		movq	%xmm2, %r9
 836      D1
 837 01e4 660F28D1 		movapd	%xmm1, %xmm2
 838 01e8 660F28C8 		movapd	%xmm0, %xmm1
 839 01ec E8000000 		call	printf
 839      00
 840 01f1 90       		nop
 841              	.LVL66:
 842              	.LBE141:
  22:main.cpp      ****     return 0;
  23:main.cpp      **** }
 843              		.loc 2 23 0
 844 01f2 0F287424 		movaps	64(%rsp), %xmm6
 844      40
 845 01f7 31C0     		xorl	%eax, %eax
 846 01f9 0F287C24 		movaps	80(%rsp), %xmm7
 846      50
 847 01fe 4883C460 		addq	$96, %rsp
 848              		.cfi_restore 24
 849              		.cfi_restore 23
 850              		.cfi_def_cfa_offset 48
 851 0202 5B       		popq	%rbx
 852              		.cfi_restore 3
 853              		.cfi_def_cfa_offset 40
 854              	.LVL67:
 855 0203 5E       		popq	%rsi
 856              		.cfi_restore 4
 857              		.cfi_def_cfa_offset 32
 858 0204 5F       		popq	%rdi
 859              		.cfi_restore 5
 860              		.cfi_def_cfa_offset 24
 861 0205 5D       		popq	%rbp
 862              		.cfi_restore 6
 863              		.cfi_def_cfa_offset 16
 864 0206 415C     		popq	%r12
 865              		.cfi_restore 12
 866              		.cfi_def_cfa_offset 8
 867              	.LVL68:
 868 0208 C3       		ret
 869              		.cfi_endproc
 870              	.LFE3011:
 871              		.seh_endproc
 872              	.lcomm _ZZ4mainE4data,28672,64
 873 0209 90909090 		.section .rdata,"dr"
 873      909090
 874 0041 00000000 		.align 64
 874      00000000 
 874      00000000 
 874      00000000 
 874      00000000 
 875              	_ZL9farsh_key:
 876 0080 396CFEB8 		.long	-1191285703
 877 0084 BE4BA423 		.long	597969854
 878 0088 2C81017C 		.long	2080473388
 879 008c 1CAD21F7 		.long	-148787940
 880 0090 E96DD4DE 		.long	-556503575
 881 0094 DB979083 		.long	-2087675941
 882 0098 A4A44072 		.long	1916839076
 883 009c 1F67B3B7 		.long	-1212979425
 884 00a0 4EE679CB 		.long	-881203634
 885 00a4 78E5C0CC 		.long	-859773576
 886 00a8 7DD05A82 		.long	-2107977603
 887 00ac 2172FFCC 		.long	-855674335
 888 00b0 744608B8 		.long	-1207417228
 889 00b4 8E2443F7 		.long	-146594674
 890 00b8 E69035E0 		.long	-533360410
 891 00bc 4C263A81 		.long	-2126895540
 892 00c0 BB52283C 		.long	1009275579
 893 00c4 CB00C391 		.long	-1849491253
 894 00c8 8B65D088 		.long	-1999608437
 895 00cc A32E531B 		.long	458436259
 896 00d0 97486471 		.long	1902397591
 897 00d4 4EF90DA2 		.long	-1576142514
 898 00d8 46EF1938 		.long	941223750
 899 00dc D8ACDEA9 		.long	-1445024552
 900 00e0 3F76FAA8 		.long	-1459980737
 901 00e4 3F349CE3 		.long	-476302273
 902 00e8 C7BBDCF9 		.long	-102974521
 903 00ec 1D4F0BC7 		.long	-955560163
 904 00f0 4BE0518A 		.long	-1974345653
 905 00f4 3159B4CD 		.long	-843818703
 906 00f8 C97E9FC8 		.long	-929071415
 907 00fc 647378D9 		.long	-646417564
 908 0100 52076A4F 		.long	1332348754
 909 0104 9C079BA7 		.long	-1483012196
 910 0108 9994C48F 		.long	-1882942311
 911 010c A9B7C98E 		.long	-1899382871
 912 0110 4922C933 		.long	868819529
 913 0114 4F40B64E 		.long	1320566863
 914 0118 4EFB2AFB 		.long	-81069234
 915 011c 554281A4 		.long	-1535032747
 916 0120 981B0E2F 		.long	789453720
 917 0124 243BE9AC 		.long	-1394001116
 918 0128 CD508818 		.long	411586765
 919 012c A7745C6C 		.long	1817998503
 920 0130 0444FA66 		.long	1727677444
 921 0134 83ACC5EA 		.long	-356143997
 922 0138 C3EBD334 		.long	886303683
 923 013c FFA081C5 		.long	-981360385
 924 0140 EB6313FA 		.long	-99392533
 925 0144 51DD0D17 		.long	386784593
 926 0148 49DAF0B7 		.long	-1208952247
 927 014c 265516D3 		.long	-753511130
 928 0150 9E68D429 		.long	701786270
 929 0154 58BE162B 		.long	722910808
 930 0158 FCA1477D 		.long	2101846524
 931 015c D1B8F88F 		.long	-1879525167
 932 0160 CE31D07A 		.long	2060464590
 933 0164 8F3ACB45 		.long	1170946703
 934 0168 28041695 		.long	-1793719256
 935 016c CAFBD7AF 		.long	-1344799798
 936 0170 7E404BBB 		.long	-1152696194
 937 0174 A4745299 		.long	-1722649436
 938 0178 932D9AEB 		.long	-342217325
 939 017c 0889E73B 		.long	1005029640
 940 0180 6C5F47ED 		.long	-314089620
 941 0184 F2D89C91 		.long	-1851991822
 942 0188 5A1E86D3 		.long	-746185126
 943 018c 0C39316E 		.long	1848719628
 944 0190 493A6AFE 		.long	-26592695
 945 0194 1409ADDC 		.long	-592639724
 946 0198 EB8B5006 		.long	105941995
 947 019c F39983A8 		.long	-1467770381
 948 01a0 2F1158B0 		.long	-1336405713
 949 01a4 79FAB0E8 		.long	-391054727
 950 01a8 06DAB429 		.long	699718150
 951 01ac FB53C2ED 		.long	-306031621
 952 01b0 AD6DE9C3 		.long	-1008112211
 953 01b4 832B376E 		.long	1849109379
 954 01b8 53B1784F 		.long	1333309779
 955 01bc 866EFAFF 		.long	-364922
 956 01c0 ECEEBE21 		.long	566161132
 957 01c4 02EACA01 		.long	30075394
 958 01c8 0DE56712 		.long	308798733
 959 01cc 2F09E611 		.long	300288303
 960 01d0 98D219E8 		.long	-400960872
 961 01d4 DD802F83 		.long	-2094038819
 962 01d8 77244E0C 		.long	206447735
 963 01dc EB8678BC 		.long	-1132951829
 964 01e0 37665001 		.long	22046263
 965 01e4 6896A88B 		.long	-1951885720
 966 01e8 A0E7116D 		.long	1829889952
 967 01ec 15FD12FC 		.long	-65864427
 968 01f0 194CA586 		.long	-2035987431
 969 01f4 DDE33C59 		.long	1497162717
 970 01f8 E53FB1D2 		.long	-760135707
 971 01fc 532B778E 		.long	-1904792749
 972 0200 CC604AAE 		.long	-1370857268
 973 0204 1B3B7A64 		.long	1685732123
 974 0208 E0867754 		.long	1417119456
 975 020c 8E37C43E 		.long	1053046670
 976 0210 89CF7A8D 		.long	-1921331319
 977 0214 47F936CA 		.long	-902366905
 978 0218 EFD5890E 		.long	243914223
 979 021c 3C6ADAAA 		.long	-1428526532
 980 0220 09A1A46D 		.long	1839505673
 981 0224 1CE1C69A 		.long	-1698242276
 982 0228 EF916668 		.long	1751552495
 983 022c 2BBD57A3 		.long	-1554531029
 984 0230 9A1B6FD1 		.long	-781247590
 985 0234 0303C738 		.long	952566531
 986 0238 B322467D 		.long	2101748403
 987 023c 8FFA6829 		.long	694745743
 988 0240 B9BCA58C 		.long	-1935295303
 989 0244 0510D6FC 		.long	-53080059
 990 0248 965E8B22 		.long	579559062
 991 024c 19CC9D2C 		.long	748538905
 992 0250 3C24CF57 		.long	1473193020
 993 0254 C1F9533C 		.long	1012136385
 994 0258 2C95C70C 		.long	214406444
 995 025c F0E46D68 		.long	1752032496
 996 0260 B547A793 		.long	-1817753675
 997 0264 10A5874E 		.long	1317512464
 998 0268 AE915E97 		.long	-1755410002
 999 026c 8EB9104C 		.long	1276164494
 1000 0270 8C067F8A 		.long	-1971386740
 1001 0274 AB196B34 		.long	879434155
 1002 0278 25A63C35 		.long	893167141
 1003 027c E0500AF2 		.long	-234204960
 1004 0280 F62199CE 		.long	-828825098
 1005 0284 14E066DF 		.long	-546906092
 1006 0288 4BEF110A 		.long	168947531
 1007 028c DF4DC88B 		.long	-1949807137
 1008 0290 225DD284 		.long	-2066588382
 1009 0294 6D9323C8 		.long	-937192595
 1010 0298 C31E7494 		.long	-1804329277
 1011 029c 608A2788 		.long	-2010674592
 1012 02a0 319364B8 		.long	-1201368271
 1013 02a4 107A707A 		.long	2054191632
 1014 02a8 D6CA9272 		.long	1922222806
 1015 02ac C244C6A7 		.long	-1480178494
 1016 02b0 FA6B15BD 		.long	-1122669574
 1017 02b4 78956C64 		.long	1684837752
 1018 02b8 D5DFF4B7 		.long	-1208688683
 1019 02bc A777829F 		.long	-1618839641
 1020 02c0 4E921370 		.long	1880330830
 1021 02c4 C34C67AD 		.long	-1385739069
 1022 02c8 059DAE2C 		.long	749640965
 1023 02cc 229A2A91 		.long	-1859479006
 1024 02d0 FA537CF6 		.long	-159624198
 1025 02d4 A9227E8D 		.long	-1921113431
 1026 02d8 2B37AE59 		.long	1504589611
 1027 02dc F3990185 		.long	-2063492621
 1028 02e0 2C10A263 		.long	1671565356
 1029 02e4 6112FFD6 		.long	-687926687
 1030 02e8 E18E7356 		.long	1450413793
 1031 02ec 5B1495AA 		.long	-1433070501
 1032 02f0 3228D1FD 		.long	-36624334
 1033 02f4 EB4D685B 		.long	1533562347
 1034 02f8 94DE8407 		.long	126148244
 1035 02fc 0E3962AA 		.long	-1436403442
 1036 0300 19CF7CBB 		.long	-1149448423
 1037 0304 72D5EF0F 		.long	267375986
 1038 0308 CA415B56 		.long	1448821194
 1039 030c 02D20622 		.long	570872322
 1040 0310 7984602D 		.long	761300089
 1041 0314 3DCD0F4C 		.long	1276103997
 1042 0318 E33B6DD3 		.long	-747815965
 1043 031c 659A5A15 		.long	358259301
 1044 0320 32E7F910 		.long	284813106
 1045 0324 1E0F9BAC 		.long	-1399124194
 1046 0328 3BA0721F 		.long	527605819
 1047 032c AE4094EA 		.long	-359382866
 1048 0330 4F4B675B 		.long	1533496143
 1049 0334 D127A831 		.long	833103825
 1050 0338 4F95CAEC 		.long	-322267825
 1051 033c 1ED62C3D 		.long	1026348574
 1052 0340 A43D8D76 		.long	1988967844
 1053 0344 C15A7493 		.long	-1821091135
 1054 0348 CB585D1D 		.long	492656843
 1055 034c B6F3864B 		.long	1267135414
 1056 0350 3A92BA2A 		.long	716870202
 1057 0354 4C81650E 		.long	241533260
 1058 0358 D963E08A 		.long	-1965005863
 1059 035c B06969CD 		.long	-848729680
 1060 0360 85156436 		.long	912528773
 1061 0364 9DF52A74 		.long	1948972445
 1062 0368 16133A61 		.long	1631195926
 1063 036c 71A48E33 		.long	864986225
 1064 0370 F31A8647 		.long	1199971059
 1065 0374 C39D4730 		.long	809999811
 1066 0378 81A47012 		.long	309372033
 1067 037c 69107708 		.long	142020713
 1068 0380 D2F0C4E3 		.long	-473632558
 1069 0384 4C872902 		.long	36276044
 1070 0388 C13B8A5A 		.long	1519008705
 1071 038c 33970DE3 		.long	-485648589
 1072 0390 A2E55BD0 		.long	-799283806
 1073 0394 BA31AFE2 		.long	-491834950
 1074 0398 F9492022 		.long	572541433
 1075 039c 6A3B929F 		.long	-1617806486
 1076 03a0 EC643F03 		.long	54486252
 1077 03a4 2BB628E5 		.long	-450316757
 1078 03a8 BDEF0182 		.long	-2113802307
 1079 03ac 77D80721 		.long	554162295
 1080 03b0 F12E31D8 		.long	-667865359
 1081 03b4 999F67A5 		.long	-1519935591
 1082 03b8 1BB53017 		.long	389068059
 1083 03bc D2162675 		.long	1965430482
 1084 03c0 09593005 		.long	87054601
 1085 03c4 0B44CA0D 		.long	231359499
 1086 03c8 D9CD9320 		.long	546557401
 1087 03cc 50AB0964 		.long	1678355280
 1088 03d0 CC8E5CBA 		.long	-1168339252
 1089 03d4 EA08478D 		.long	-1924724502
 1090 03d8 17099F42 		.long	1117718807
 1091 03dc B0FA62B7 		.long	-1218250064
 1092 03e0 75EA6151 		.long	1365371509
 1093 03e4 EBA0EB45 		.long	1173070059
 1094 03e8 414BF3B6 		.long	-1225569471
 1095 03ec 23710452 		.long	1376022819
 1096 03f0 231518E4 		.long	-468183773
 1097 03f4 0AE9748D 		.long	-1921718006
 1098 03f8 1C40FA54 		.long	1425686556
 1099 03fc C70CDADD 		.long	-572912441
 1100 0400 2A18DF63 		.long	1675565098
 1101 0404 F63E40C6 		.long	-968868106
 1102 0408 E8C68E34 		.long	881772264
 1103 040c F557FFB9 		.long	-1174448139
 1104 0410 BDB852F6 		.long	-162350915
 1105 0414 F3B0860F 		.long	260485363
 1106 0418 8A083AFB 		.long	-80082806
 1107 041c 3315C74D 		.long	1304892723
 1108 0420 D217367B 		.long	2067142610
 1109 0424 EB874EA3 		.long	-1555134485
 1110 0428 DD9B2ABA 		.long	-1171612707
 1111 042c 061338E3 		.long	-482864378
 1112 0430 BBD6BA14 		.long	347788987
 1113 0434 C2C76DC9 		.long	-915552318
 1114 0438 B6543B33 		.long	859526326
 1115 043c FA7CE49B 		.long	-1679524614
 1116 0440 9992CF1D 		.long	500142745
 1117 0444 995FEAE7 		.long	-404070503
 1118 0448 CDEA8FB3 		.long	-1282413875
 1119 044c F7E2CFC3 		.long	-1009786121
 1120 0450 22E8875B 		.long	1535633442
 1121 0454 56ABC539 		.long	969255766
 1122 0458 8FA1F418 		.long	418685327
 1123 045c 9C4D482D 		.long	759713180
 1124 0460 19D56341 		.long	1097061657
 1125 0464 989E7679 		.long	2037816984
 1126 0468 F0678AF5 		.long	-175478800
 1127 046c 020C5940 		.long	1079577602
 1128 0470 C0719631 		.long	831943104
 1129 0474 3A136B26 		.long	644551482
 1130 0478 87B281AF 		.long	-1350454649
 1131 047c 37F7316A 		.long	1781659447
 1132 0480 9701BCE3 		.long	-474218089
 1133 0484 13990755 		.long	1426561299
 1134 0488 96C6729F 		.long	-1619868010
 1135 048c C8003E36 		.long	910033096
 1136 0490 47391553 		.long	1393899847
 1137 0494 7F12FDEB 		.long	-335736193
 1138 0498 1905F600 		.long	16123161
 1139 049c 2AB6A646 		.long	1185330730
 1140 04a0 8033B893 		.long	-1816644736
 1141 04a4 2493E23F 		.long	1071813412
 1142 04a8 9170C6DF 		.long	-540643183
 1143 04ac 6D38620F 		.long	258095213
 1144 04b0 795E37DC 		.long	-600351111
 1145 04b4 3E3FEA8F 		.long	-1880473794
 1146 04b8 D06384DF 		.long	-544971824
 1147 04bc 7BFA0237 		.long	922942075
 1148 04c0 5E435439 		.long	961823582
 1149 04c4 48A6CA87 		.long	-2016762296
 1150 04c8 EE8B15A9 		.long	-1458205714
 1151 04cc 250CF308 		.long	150146085
 1152 04d0 3629B866 		.long	1723345206
 1153 04d4 EB3FFCE7 		.long	-402898965
 1154 04d8 50543C18 		.long	406606928
 1155 04dc 4543EFD7 		.long	-672185531
 1156 04e0 63798C79 		.long	2039249251
 1157 04e4 57F52CC0 		.long	-1070795433
 1158 04e8 D1538509 		.long	159732689
 1159 04ec AA1243FA 		.long	-96267606
 1160 04f0 83F89EE2 		.long	-492898173
 1161 04f4 8D12AF7C 		.long	2091848333
 1162 04f8 7DA0B374 		.long	1957929085
 1163 04fc 00000000 		.align 8
 1164              	.LC1:
 1165 0500 00000000 		.long	0
 1166 0504 00408F40 		.long	1083129856
 1167              		.align 8
 1168              	.LC2:
 1169 0508 00000000 		.long	0
 1170 050c 00000442 		.long	1107558400
 1171              		.align 8
 1172              	.LC3:
 1173 0510 00000000 		.long	0
 1174 0514 0000103E 		.long	1041235968
 1175              		.align 8
 1176              	.LC4:
 1177 0518 00000000 		.long	0
 1178 051c 65CDCD41 		.long	1104006501
 1179 0520 00000000 		.text
 1179      00000000 
 1179      00000000 
 1179      00000000 
 1179      00000000 
 1180              	.Letext0:
 1181              		.file 4 "C:/Base/Compiler/MinGW-4.9.2/mingw32/i686-w64-mingw32/include/crtdefs.h"
 1182              		.file 5 "C:/Base/Compiler/MinGW-4.9.2/mingw32/i686-w64-mingw32/include/stdint.h"
 1183              		.file 6 "C:/Base/Compiler/MinGW-4.9.2/mingw32/i686-w64-mingw32/include/minwindef.h"
 1184              		.file 7 "C:/Base/Compiler/MinGW-4.9.2/mingw32/i686-w64-mingw32/include/winnt.h"
 1185              		.file 8 "C:/Base/Compiler/MinGW-4.9.2/mingw32/i686-w64-mingw32/include/stdio.h"
 1186 02dc 90909090 		.section	.debug_info,"dr"
 1187              	.Ldebug_info0:
 1188 0000 C40D0000 		.long	0xdc4
 1189 0004 0400     		.word	0x4
 1190 0006 00000000 		.secrel32	.Ldebug_abbrev0
 1191 000a 08       		.byte	0x8
 1192 000b 01       		.uleb128 0x1
 1193 000c 474E5520 		.ascii "GNU C++ 4.9.2 -m64 -msse2 -mtune=core2 -march=nocona -g -O3 -std=c++11\0"
 1193      432B2B20 
 1193      342E392E 
 1193      32202D6D 
 1193      3634202D 
 1194 0053 04       		.byte	0x4
 1195 0054 6D61696E 		.ascii "main.cpp\0"
 1195      2E637070 
 1195      00
 1196 005d 433A5C21 		.ascii "C:\\!FreeArc\\public\\FARSH\0"
 1196      46726565 
 1196      4172635C 
 1196      7075626C 
 1196      69635C46 
 1197 0076 E0020000 		.secrel32	.Ldebug_ranges0+0x2e0
 1198 007a 00000000 		.quad	0
 1198      00000000 
 1199 0082 00000000 		.secrel32	.Ldebug_line0
 1200 0086 02       		.uleb128 0x2
 1201 0087 08       		.byte	0x8
 1202 0088 04       		.byte	0x4
 1203 0089 646F7562 		.ascii "double\0"
 1203      6C6500
 1204 0090 02       		.uleb128 0x2
 1205 0091 01       		.byte	0x1
 1206 0092 06       		.byte	0x6
 1207 0093 63686172 		.ascii "char\0"
 1207      00
 1208 0098 03       		.uleb128 0x3
 1209 0099 73697A65 		.ascii "size_t\0"
 1209      5F7400
 1210 00a0 04       		.byte	0x4
 1211 00a1 23       		.byte	0x23
 1212 00a2 A6000000 		.long	0xa6
 1213 00a6 02       		.uleb128 0x2
 1214 00a7 08       		.byte	0x8
 1215 00a8 07       		.byte	0x7
 1216 00a9 6C6F6E67 		.ascii "long long unsigned int\0"
 1216      206C6F6E 
 1216      6720756E 
 1216      7369676E 
 1216      65642069 
 1217 00c0 02       		.uleb128 0x2
 1218 00c1 08       		.byte	0x8
 1219 00c2 05       		.byte	0x5
 1220 00c3 6C6F6E67 		.ascii "long long int\0"
 1220      206C6F6E 
 1220      6720696E 
 1220      7400
 1221 00d1 02       		.uleb128 0x2
 1222 00d2 02       		.byte	0x2
 1223 00d3 07       		.byte	0x7
 1224 00d4 73686F72 		.ascii "short unsigned int\0"
 1224      7420756E 
 1224      7369676E 
 1224      65642069 
 1224      6E7400
 1225 00e7 02       		.uleb128 0x2
 1226 00e8 04       		.byte	0x4
 1227 00e9 05       		.byte	0x5
 1228 00ea 696E7400 		.ascii "int\0"
 1229 00ee 02       		.uleb128 0x2
 1230 00ef 04       		.byte	0x4
 1231 00f0 05       		.byte	0x5
 1232 00f1 6C6F6E67 		.ascii "long int\0"
 1232      20696E74 
 1232      00
 1233 00fa 02       		.uleb128 0x2
 1234 00fb 02       		.byte	0x2
 1235 00fc 07       		.byte	0x7
 1236 00fd 77636861 		.ascii "wchar_t\0"
 1236      725F7400 
 1237 0105 02       		.uleb128 0x2
 1238 0106 04       		.byte	0x4
 1239 0107 07       		.byte	0x7
 1240 0108 756E7369 		.ascii "unsigned int\0"
 1240      676E6564 
 1240      20696E74 
 1240      00
 1241 0115 02       		.uleb128 0x2
 1242 0116 08       		.byte	0x8
 1243 0117 07       		.byte	0x7
 1244 0118 73697A65 		.ascii "sizetype\0"
 1244      74797065 
 1244      00
 1245 0121 02       		.uleb128 0x2
 1246 0122 04       		.byte	0x4
 1247 0123 07       		.byte	0x7
 1248 0124 6C6F6E67 		.ascii "long unsigned int\0"
 1248      20756E73 
 1248      69676E65 
 1248      6420696E 
 1248      7400
 1249 0136 02       		.uleb128 0x2
 1250 0137 01       		.byte	0x1
 1251 0138 08       		.byte	0x8
 1252 0139 756E7369 		.ascii "unsigned char\0"
 1252      676E6564 
 1252      20636861 
 1252      7200
 1253 0147 02       		.uleb128 0x2
 1254 0148 10       		.byte	0x10
 1255 0149 04       		.byte	0x4
 1256 014a 6C6F6E67 		.ascii "long double\0"
 1256      20646F75 
 1256      626C6500 
 1257 0156 04       		.uleb128 0x4
 1258 0157 6465636C 		.ascii "decltype(nullptr)\0"
 1258      74797065 
 1258      286E756C 
 1258      6C707472 
 1258      2900
 1259 0169 02       		.uleb128 0x2
 1260 016a 01       		.byte	0x1
 1261 016b 06       		.byte	0x6
 1262 016c 7369676E 		.ascii "signed char\0"
 1262      65642063 
 1262      68617200 
 1263 0178 02       		.uleb128 0x2
 1264 0179 02       		.byte	0x2
 1265 017a 05       		.byte	0x5
 1266 017b 73686F72 		.ascii "short int\0"
 1266      7420696E 
 1266      7400
 1267 0185 03       		.uleb128 0x3
 1268 0186 75696E74 		.ascii "uint64_t\0"
 1268      36345F74 
 1268      00
 1269 018f 05       		.byte	0x5
 1270 0190 2A       		.byte	0x2a
 1271 0191 A6000000 		.long	0xa6
 1272 0195 05       		.uleb128 0x5
 1273 0196 08       		.byte	0x8
 1274 0197 03       		.uleb128 0x3
 1275 0198 44574F52 		.ascii "DWORD\0"
 1275      4400
 1276 019e 06       		.byte	0x6
 1277 019f 8D       		.byte	0x8d
 1278 01a0 21010000 		.long	0x121
 1279 01a4 02       		.uleb128 0x2
 1280 01a5 04       		.byte	0x4
 1281 01a6 04       		.byte	0x4
 1282 01a7 666C6F61 		.ascii "float\0"
 1282      7400
 1283 01ad 06       		.uleb128 0x6
 1284 01ae 08       		.byte	0x8
 1285 01af B3010000 		.long	0x1b3
 1286 01b3 07       		.uleb128 0x7
 1287 01b4 06       		.uleb128 0x6
 1288 01b5 08       		.byte	0x8
 1289 01b6 05010000 		.long	0x105
 1290 01ba 08       		.uleb128 0x8
 1291 01bb 4C4F4E47 		.ascii "LONG\0"
 1291      00
 1292 01c0 07       		.byte	0x7
 1293 01c1 1801     		.word	0x118
 1294 01c3 EE000000 		.long	0xee
 1295 01c7 08       		.uleb128 0x8
 1296 01c8 4C4F4E47 		.ascii "LONGLONG\0"
 1296      4C4F4E47 
 1296      00
 1297 01d1 07       		.byte	0x7
 1298 01d2 E301     		.word	0x1e3
 1299 01d4 C0000000 		.long	0xc0
 1300 01d8 09       		.uleb128 0x9
 1301 01d9 5F4C4152 		.ascii "_LARGE_INTEGER\0"
 1301      47455F49 
 1301      4E544547 
 1301      455200
 1302 01e8 08       		.byte	0x8
 1303 01e9 07       		.byte	0x7
 1304 01ea F201     		.word	0x1f2
 1305 01ec 61020000 		.long	0x261
 1306 01f0 0A       		.uleb128 0xa
 1307 01f1 08       		.byte	0x8
 1308 01f2 07       		.byte	0x7
 1309 01f3 F301     		.word	0x1f3
 1310 01f5 18020000 		.long	0x218
 1311 01f9 0B       		.uleb128 0xb
 1312 01fa 4C6F7750 		.ascii "LowPart\0"
 1312      61727400 
 1313 0202 07       		.byte	0x7
 1314 0203 F401     		.word	0x1f4
 1315 0205 97010000 		.long	0x197
 1316 0209 00       		.byte	0
 1317 020a 0C       		.uleb128 0xc
 1318 020b 00000000 		.secrel32	.LASF0
 1319 020f 07       		.byte	0x7
 1320 0210 F501     		.word	0x1f5
 1321 0212 BA010000 		.long	0x1ba
 1322 0216 04       		.byte	0x4
 1323 0217 00       		.byte	0
 1324 0218 0A       		.uleb128 0xa
 1325 0219 08       		.byte	0x8
 1326 021a 07       		.byte	0x7
 1327 021b F701     		.word	0x1f7
 1328 021d 40020000 		.long	0x240
 1329 0221 0B       		.uleb128 0xb
 1330 0222 4C6F7750 		.ascii "LowPart\0"
 1330      61727400 
 1331 022a 07       		.byte	0x7
 1332 022b F801     		.word	0x1f8
 1333 022d 97010000 		.long	0x197
 1334 0231 00       		.byte	0
 1335 0232 0C       		.uleb128 0xc
 1336 0233 00000000 		.secrel32	.LASF0
 1337 0237 07       		.byte	0x7
 1338 0238 F901     		.word	0x1f9
 1339 023a BA010000 		.long	0x1ba
 1340 023e 04       		.byte	0x4
 1341 023f 00       		.byte	0
 1342 0240 0D       		.uleb128 0xd
 1343 0241 F0010000 		.long	0x1f0
 1344 0245 0E       		.uleb128 0xe
 1345 0246 7500     		.ascii "u\0"
 1346 0248 07       		.byte	0x7
 1347 0249 FA01     		.word	0x1fa
 1348 024b 18020000 		.long	0x218
 1349 024f 0E       		.uleb128 0xe
 1350 0250 51756164 		.ascii "QuadPart\0"
 1350      50617274 
 1350      00
 1351 0259 07       		.byte	0x7
 1352 025a FC01     		.word	0x1fc
 1353 025c C7010000 		.long	0x1c7
 1354 0260 00       		.byte	0
 1355 0261 08       		.uleb128 0x8
 1356 0262 4C415247 		.ascii "LARGE_INTEGER\0"
 1356      455F494E 
 1356      54454745 
 1356      5200
 1357 0270 07       		.byte	0x7
 1358 0271 FD01     		.word	0x1fd
 1359 0273 D8010000 		.long	0x1d8
 1360 0277 0F       		.uleb128 0xf
 1361 0278 54696D65 		.ascii "Timer\0"
 1361      7200
 1362 027e 20       		.byte	0x20
 1363 027f 03       		.byte	0x3
 1364 0280 15       		.byte	0x15
 1365 0281 9A030000 		.long	0x39a
 1366 0285 10       		.uleb128 0x10
 1367 0286 6D5F7374 		.ascii "m_start\0"
 1367      61727400 
 1368 028e 03       		.byte	0x3
 1369 028f 3B       		.byte	0x3b
 1370 0290 61020000 		.long	0x261
 1371 0294 00       		.byte	0
 1372 0295 03       		.byte	0x3
 1373 0296 10       		.uleb128 0x10
 1374 0297 6D5F7374 		.ascii "m_stop\0"
 1374      6F7000
 1375 029e 03       		.byte	0x3
 1376 029f 3C       		.byte	0x3c
 1377 02a0 61020000 		.long	0x261
 1378 02a4 08       		.byte	0x8
 1379 02a5 03       		.byte	0x3
 1380 02a6 10       		.uleb128 0x10
 1381 02a7 6D5F6672 		.ascii "m_freq\0"
 1381      657100
 1382 02ae 03       		.byte	0x3
 1383 02af 3D       		.byte	0x3d
 1384 02b0 61020000 		.long	0x261
 1385 02b4 10       		.byte	0x10
 1386 02b5 03       		.byte	0x3
 1387 02b6 10       		.uleb128 0x10
 1388 02b7 6D5F6F76 		.ascii "m_overhead\0"
 1388      65726865 
 1388      616400
 1389 02c2 03       		.byte	0x3
 1390 02c3 3E       		.byte	0x3e
 1391 02c4 C7010000 		.long	0x1c7
 1392 02c8 18       		.byte	0x18
 1393 02c9 03       		.byte	0x3
 1394 02ca 11       		.uleb128 0x11
 1395 02cb 53746172 		.ascii "Start\0"
 1395      7400
 1396 02d1 03       		.byte	0x3
 1397 02d2 17       		.byte	0x17
 1398 02d3 5F5A4E35 		.ascii "_ZN5Timer5StartEv\0"
 1398      54696D65 
 1398      72355374 
 1398      61727445 
 1398      7600
 1399 02e5 ED020000 		.long	0x2ed
 1400 02e9 F3020000 		.long	0x2f3
 1401 02ed 12       		.uleb128 0x12
 1402 02ee 9A030000 		.long	0x39a
 1403 02f2 00       		.byte	0
 1404 02f3 11       		.uleb128 0x11
 1405 02f4 53746F70 		.ascii "Stop\0"
 1405      00
 1406 02f9 03       		.byte	0x3
 1407 02fa 1C       		.byte	0x1c
 1408 02fb 5F5A4E35 		.ascii "_ZN5Timer4StopEv\0"
 1408      54696D65 
 1408      72345374 
 1408      6F704576 
 1408      00
 1409 030c 14030000 		.long	0x314
 1410 0310 1A030000 		.long	0x31a
 1411 0314 12       		.uleb128 0x12
 1412 0315 9A030000 		.long	0x39a
 1413 0319 00       		.byte	0
 1414 031a 13       		.uleb128 0x13
 1415 031b 456C6170 		.ascii "Elapsed\0"
 1415      73656400 
 1416 0323 03       		.byte	0x3
 1417 0324 22       		.byte	0x22
 1418 0325 5F5A4E35 		.ascii "_ZN5Timer7ElapsedEv\0"
 1418      54696D65 
 1418      7237456C 
 1418      61707365 
 1418      64457600 
 1419 0339 86000000 		.long	0x86
 1420 033d 45030000 		.long	0x345
 1421 0341 4B030000 		.long	0x34b
 1422 0345 12       		.uleb128 0x12
 1423 0346 9A030000 		.long	0x39a
 1424 034a 00       		.byte	0
 1425 034b 14       		.uleb128 0x14
 1426 034c 54696D65 		.ascii "Timer\0"
 1426      7200
 1427 0352 03       		.byte	0x3
 1428 0353 28       		.byte	0x28
 1429 0354 5C030000 		.long	0x35c
 1430 0358 62030000 		.long	0x362
 1431 035c 12       		.uleb128 0x12
 1432 035d 9A030000 		.long	0x39a
 1433 0361 00       		.byte	0
 1434 0362 15       		.uleb128 0x15
 1435 0363 4765744F 		.ascii "GetOverhead\0"
 1435      76657268 
 1435      65616400 
 1436 036f 03       		.byte	0x3
 1437 0370 34       		.byte	0x34
 1438 0371 5F5A4E35 		.ascii "_ZN5Timer11GetOverheadEv\0"
 1438      54696D65 
 1438      72313147 
 1438      65744F76 
 1438      65726865 
 1439 038a C7010000 		.long	0x1c7
 1440 038e 03       		.byte	0x3
 1441 038f 93030000 		.long	0x393
 1442 0393 12       		.uleb128 0x12
 1443 0394 9A030000 		.long	0x39a
 1444 0398 00       		.byte	0
 1445 0399 00       		.byte	0
 1446 039a 06       		.uleb128 0x6
 1447 039b 08       		.byte	0x8
 1448 039c 77020000 		.long	0x277
 1449 03a0 16       		.uleb128 0x16
 1450 03a1 CA020000 		.long	0x2ca
 1451 03a5 03       		.byte	0x3
 1452 03a6 AE030000 		.long	0x3ae
 1453 03aa B9030000 		.long	0x3b9
 1454 03ae 17       		.uleb128 0x17
 1455 03af 74686973 		.ascii "this\0"
 1455      00
 1456 03b4 B9030000 		.long	0x3b9
 1457 03b8 00       		.byte	0
 1458 03b9 18       		.uleb128 0x18
 1459 03ba 9A030000 		.long	0x39a
 1460 03be 16       		.uleb128 0x16
 1461 03bf F3020000 		.long	0x2f3
 1462 03c3 03       		.byte	0x3
 1463 03c4 CC030000 		.long	0x3cc
 1464 03c8 D7030000 		.long	0x3d7
 1465 03cc 17       		.uleb128 0x17
 1466 03cd 74686973 		.ascii "this\0"
 1466      00
 1467 03d2 B9030000 		.long	0x3b9
 1468 03d6 00       		.byte	0
 1469 03d7 16       		.uleb128 0x16
 1470 03d8 62030000 		.long	0x362
 1471 03dc 03       		.byte	0x3
 1472 03dd E5030000 		.long	0x3e5
 1473 03e1 F0030000 		.long	0x3f0
 1474 03e5 17       		.uleb128 0x17
 1475 03e6 74686973 		.ascii "this\0"
 1475      00
 1476 03eb B9030000 		.long	0x3b9
 1477 03ef 00       		.byte	0
 1478 03f0 19       		.uleb128 0x19
 1479 03f1 66617273 		.ascii "farsh\0"
 1479      6800
 1480 03f7 01       		.byte	0x1
 1481 03f8 50       		.byte	0x50
 1482 03f9 05010000 		.long	0x105
 1483 03fd 01       		.byte	0x1
 1484 03fe 19040000 		.long	0x419
 1485 0402 1A       		.uleb128 0x1a
 1486 0403 18000000 		.secrel32	.LASF1
 1487 0407 01       		.byte	0x1
 1488 0408 50       		.byte	0x50
 1489 0409 AD010000 		.long	0x1ad
 1490 040d 1A       		.uleb128 0x1a
 1491 040e 12000000 		.secrel32	.LASF2
 1492 0412 01       		.byte	0x1
 1493 0413 50       		.byte	0x50
 1494 0414 98000000 		.long	0x98
 1495 0418 00       		.byte	0
 1496 0419 16       		.uleb128 0x16
 1497 041a 1A030000 		.long	0x31a
 1498 041e 03       		.byte	0x3
 1499 041f 27040000 		.long	0x427
 1500 0423 32040000 		.long	0x432
 1501 0427 17       		.uleb128 0x17
 1502 0428 74686973 		.ascii "this\0"
 1502      00
 1503 042d B9030000 		.long	0x3b9
 1504 0431 00       		.byte	0
 1505 0432 1B       		.uleb128 0x1b
 1506 0433 66617273 		.ascii "farsh_block\0"
 1506      685F626C 
 1506      6F636B00 
 1507 043f 01       		.byte	0x1
 1508 0440 25       		.byte	0x25
 1509 0441 05010000 		.long	0x105
 1510 0445 01       		.byte	0x1
 1511 0446 AA040000 		.long	0x4aa
 1512 044a 1A       		.uleb128 0x1a
 1513 044b 18000000 		.secrel32	.LASF1
 1514 044f 01       		.byte	0x1
 1515 0450 25       		.byte	0x25
 1516 0451 AD010000 		.long	0x1ad
 1517 0455 1A       		.uleb128 0x1a
 1518 0456 12000000 		.secrel32	.LASF2
 1519 045a 01       		.byte	0x1
 1520 045b 25       		.byte	0x25
 1521 045c 98000000 		.long	0x98
 1522 0460 1C       		.uleb128 0x1c
 1523 0461 6B657900 		.ascii "key\0"
 1524 0465 01       		.byte	0x1
 1525 0466 25       		.byte	0x25
 1526 0467 AA040000 		.long	0x4aa
 1527 046b 1D       		.uleb128 0x1d
 1528 046c 1E       		.uleb128 0x1e
 1529 046d 64617461 		.ascii "data\0"
 1529      00
 1530 0472 01       		.byte	0x1
 1531 0473 27       		.byte	0x27
 1532 0474 AA040000 		.long	0x4aa
 1533 0478 1F       		.uleb128 0x1f
 1534 0479 09000000 		.secrel32	.LASF3
 1535 047d 01       		.byte	0x1
 1536 047e 29       		.byte	0x29
 1537 047f 98000000 		.long	0x98
 1538 0483 1E       		.uleb128 0x1e
 1539 0484 65787472 		.ascii "extra_data\0"
 1539      615F6461 
 1539      746100
 1540 048f 01       		.byte	0x1
 1541 0490 2A       		.byte	0x2a
 1542 0491 B5040000 		.long	0x4b5
 1543 0495 1E       		.uleb128 0x1e
 1544 0496 65787472 		.ascii "extra_bytes\0"
 1544      615F6279 
 1544      74657300 
 1545 04a2 01       		.byte	0x1
 1546 04a3 2B       		.byte	0x2b
 1547 04a4 98000000 		.long	0x98
 1548 04a8 00       		.byte	0
 1549 04a9 00       		.byte	0
 1550 04aa 06       		.uleb128 0x6
 1551 04ab 08       		.byte	0x8
 1552 04ac B0040000 		.long	0x4b0
 1553 04b0 18       		.uleb128 0x18
 1554 04b1 05010000 		.long	0x105
 1555 04b5 20       		.uleb128 0x20
 1556 04b6 05010000 		.long	0x105
 1557 04ba C5040000 		.long	0x4c5
 1558 04be 21       		.uleb128 0x21
 1559 04bf 15010000 		.long	0x115
 1560 04c3 01       		.byte	0x1
 1561 04c4 00       		.byte	0
 1562 04c5 19       		.uleb128 0x19
 1563 04c6 66617273 		.ascii "farsh_keyed\0"
 1563      685F6B65 
 1563      79656400 
 1564 04d2 01       		.byte	0x1
 1565 04d3 31       		.byte	0x31
 1566 04d4 05010000 		.long	0x105
 1567 04d8 01       		.byte	0x1
 1568 04d9 47050000 		.long	0x547
 1569 04dd 1A       		.uleb128 0x1a
 1570 04de 18000000 		.secrel32	.LASF1
 1571 04e2 01       		.byte	0x1
 1572 04e3 31       		.byte	0x31
 1573 04e4 AD010000 		.long	0x1ad
 1574 04e8 1A       		.uleb128 0x1a
 1575 04e9 12000000 		.secrel32	.LASF2
 1576 04ed 01       		.byte	0x1
 1577 04ee 31       		.byte	0x31
 1578 04ef 98000000 		.long	0x98
 1579 04f3 1C       		.uleb128 0x1c
 1580 04f4 6B657900 		.ascii "key\0"
 1581 04f8 01       		.byte	0x1
 1582 04f9 31       		.byte	0x31
 1583 04fa AA040000 		.long	0x4aa
 1584 04fe 1D       		.uleb128 0x1d
 1585 04ff 1E       		.uleb128 0x1e
 1586 0500 73756D00 		.ascii "sum\0"
 1587 0504 01       		.byte	0x1
 1588 0505 33       		.byte	0x33
 1589 0506 A6000000 		.long	0xa6
 1590 050a 1E       		.uleb128 0x1e
 1591 050b 6900     		.ascii "i\0"
 1592 050d 01       		.byte	0x1
 1593 050e 33       		.byte	0x33
 1594 050f E7000000 		.long	0xe7
 1595 0513 1E       		.uleb128 0x1e
 1596 0514 64617461 		.ascii "data\0"
 1596      00
 1597 0519 01       		.byte	0x1
 1598 051a 34       		.byte	0x34
 1599 051b 47050000 		.long	0x547
 1600 051f 1E       		.uleb128 0x1e
 1601 0520 656E6400 		.ascii "end\0"
 1602 0524 01       		.byte	0x1
 1603 0525 34       		.byte	0x34
 1604 0526 47050000 		.long	0x547
 1605 052a 1D       		.uleb128 0x1d
 1606 052b 1E       		.uleb128 0x1e
 1607 052c 6D696E62 		.ascii "minbytes\0"
 1607      79746573 
 1607      00
 1608 0535 01       		.byte	0x1
 1609 0536 37       		.byte	0x37
 1610 0537 98000000 		.long	0x98
 1611 053b 1E       		.uleb128 0x1e
 1612 053c 6800     		.ascii "h\0"
 1613 053e 01       		.byte	0x1
 1614 053f 38       		.byte	0x38
 1615 0540 05010000 		.long	0x105
 1616 0544 00       		.byte	0
 1617 0545 00       		.byte	0
 1618 0546 00       		.byte	0
 1619 0547 06       		.uleb128 0x6
 1620 0548 08       		.byte	0x8
 1621 0549 4D050000 		.long	0x54d
 1622 054d 18       		.uleb128 0x18
 1623 054e 90000000 		.long	0x90
 1624 0552 1B       		.uleb128 0x1b
 1625 0553 66617273 		.ascii "farsh_fast\0"
 1625      685F6661 
 1625      737400
 1626 055e 01       		.byte	0x1
 1627 055f 0F       		.byte	0xf
 1628 0560 05010000 		.long	0x105
 1629 0564 01       		.byte	0x1
 1630 0565 97050000 		.long	0x597
 1631 0569 1C       		.uleb128 0x1c
 1632 056a 64617461 		.ascii "data\0"
 1632      00
 1633 056f 01       		.byte	0x1
 1634 0570 0F       		.byte	0xf
 1635 0571 AA040000 		.long	0x4aa
 1636 0575 1C       		.uleb128 0x1c
 1637 0576 6B657900 		.ascii "key\0"
 1638 057a 01       		.byte	0x1
 1639 057b 0F       		.byte	0xf
 1640 057c AA040000 		.long	0x4aa
 1641 0580 1D       		.uleb128 0x1d
 1642 0581 1E       		.uleb128 0x1e
 1643 0582 73756D00 		.ascii "sum\0"
 1644 0586 01       		.byte	0x1
 1645 0587 11       		.byte	0x11
 1646 0588 A6000000 		.long	0xa6
 1647 058c 1E       		.uleb128 0x1e
 1648 058d 6900     		.ascii "i\0"
 1649 058f 01       		.byte	0x1
 1650 0590 11       		.byte	0x11
 1651 0591 E7000000 		.long	0xe7
 1652 0595 00       		.byte	0
 1653 0596 00       		.byte	0
 1654 0597 1B       		.uleb128 0x1b
 1655 0598 66617273 		.ascii "farsh_pairs\0"
 1655      685F7061 
 1655      69727300 
 1656 05a4 01       		.byte	0x1
 1657 05a5 19       		.byte	0x19
 1658 05a6 05010000 		.long	0x105
 1659 05aa 01       		.byte	0x1
 1660 05ab F5050000 		.long	0x5f5
 1661 05af 1C       		.uleb128 0x1c
 1662 05b0 64617461 		.ascii "data\0"
 1662      00
 1663 05b5 01       		.byte	0x1
 1664 05b6 19       		.byte	0x19
 1665 05b7 AA040000 		.long	0x4aa
 1666 05bb 1A       		.uleb128 0x1a
 1667 05bc 09000000 		.secrel32	.LASF3
 1668 05c0 01       		.byte	0x1
 1669 05c1 19       		.byte	0x19
 1670 05c2 98000000 		.long	0x98
 1671 05c6 1C       		.uleb128 0x1c
 1672 05c7 65787472 		.ascii "extra\0"
 1672      6100
 1673 05cd 01       		.byte	0x1
 1674 05ce 19       		.byte	0x19
 1675 05cf AA040000 		.long	0x4aa
 1676 05d3 1C       		.uleb128 0x1c
 1677 05d4 6B657900 		.ascii "key\0"
 1678 05d8 01       		.byte	0x1
 1679 05d9 19       		.byte	0x19
 1680 05da AA040000 		.long	0x4aa
 1681 05de 1D       		.uleb128 0x1d
 1682 05df 1E       		.uleb128 0x1e
 1683 05e0 73756D00 		.ascii "sum\0"
 1684 05e4 01       		.byte	0x1
 1685 05e5 1B       		.byte	0x1b
 1686 05e6 A6000000 		.long	0xa6
 1687 05ea 1E       		.uleb128 0x1e
 1688 05eb 6900     		.ascii "i\0"
 1689 05ed 01       		.byte	0x1
 1690 05ee 1B       		.byte	0x1b
 1691 05ef E7000000 		.long	0xe7
 1692 05f3 00       		.byte	0
 1693 05f4 00       		.byte	0
 1694 05f5 22       		.uleb128 0x22
 1695 05f6 C5040000 		.long	0x4c5
 1696 05fa 5F5A3131 		.ascii "_Z11farsh_keyedPKvyPKj\0"
 1696      66617273 
 1696      685F6B65 
 1696      79656450 
 1696      4B767950 
 1697 0611 00000000 		.quad	.LFB3007
 1697      00000000 
 1698 0619 0F020000 		.quad	.LFE3007-.LFB3007
 1698      00000000 
 1699 0621 01       		.uleb128 0x1
 1700 0622 9C       		.byte	0x9c
 1701 0623 8F070000 		.long	0x78f
 1702 0627 23       		.uleb128 0x23
 1703 0628 DD040000 		.long	0x4dd
 1704 062c 00000000 		.secrel32	.LLST0
 1705 0630 23       		.uleb128 0x23
 1706 0631 E8040000 		.long	0x4e8
 1707 0635 4C000000 		.secrel32	.LLST1
 1708 0639 23       		.uleb128 0x23
 1709 063a F3040000 		.long	0x4f3
 1710 063e 98000000 		.secrel32	.LLST2
 1711 0642 24       		.uleb128 0x24
 1712 0643 00000000 		.secrel32	.Ldebug_ranges0+0
 1713 0647 25       		.uleb128 0x25
 1714 0648 FF040000 		.long	0x4ff
 1715 064c F7000000 		.secrel32	.LLST3
 1716 0650 25       		.uleb128 0x25
 1717 0651 0A050000 		.long	0x50a
 1718 0655 55010000 		.secrel32	.LLST4
 1719 0659 25       		.uleb128 0x25
 1720 065a 13050000 		.long	0x513
 1721 065e DB010000 		.secrel32	.LLST5
 1722 0662 25       		.uleb128 0x25
 1723 0663 1F050000 		.long	0x51f
 1724 0667 37020000 		.secrel32	.LLST6
 1725 066b 24       		.uleb128 0x24
 1726 066c 40000000 		.secrel32	.Ldebug_ranges0+0x40
 1727 0670 25       		.uleb128 0x25
 1728 0671 2B050000 		.long	0x52b
 1729 0675 97020000 		.secrel32	.LLST7
 1730 0679 26       		.uleb128 0x26
 1731 067a 3B050000 		.long	0x53b
 1732 067e 27       		.uleb128 0x27
 1733 067f 32040000 		.long	0x432
 1734 0683 49000000 		.quad	.LBB42
 1734      00000000 
 1735 068b 70000000 		.secrel32	.Ldebug_ranges0+0x70
 1736 068f 01       		.byte	0x1
 1737 0690 38       		.byte	0x38
 1738 0691 23       		.uleb128 0x23
 1739 0692 60040000 		.long	0x460
 1740 0696 CD020000 		.secrel32	.LLST8
 1741 069a 23       		.uleb128 0x23
 1742 069b 55040000 		.long	0x455
 1743 069f 97020000 		.secrel32	.LLST7
 1744 06a3 23       		.uleb128 0x23
 1745 06a4 4A040000 		.long	0x44a
 1746 06a8 03030000 		.secrel32	.LLST10
 1747 06ac 24       		.uleb128 0x24
 1748 06ad 70000000 		.secrel32	.Ldebug_ranges0+0x70
 1749 06b1 25       		.uleb128 0x25
 1750 06b2 6C040000 		.long	0x46c
 1751 06b6 03030000 		.secrel32	.LLST10
 1752 06ba 25       		.uleb128 0x25
 1753 06bb 78040000 		.long	0x478
 1754 06bf 39030000 		.secrel32	.LLST12
 1755 06c3 28       		.uleb128 0x28
 1756 06c4 83040000 		.long	0x483
 1757 06c8 03       		.uleb128 0x3
 1758 06c9 91       		.byte	0x91
 1759 06ca 907F     		.sleb128 -112
 1760 06cc 25       		.uleb128 0x25
 1761 06cd 95040000 		.long	0x495
 1762 06d1 7D030000 		.secrel32	.LLST13
 1763 06d5 29       		.uleb128 0x29
 1764 06d6 97050000 		.long	0x597
 1765 06da A6000000 		.quad	.LBB44
 1765      00000000 
 1766 06e2 A0000000 		.secrel32	.Ldebug_ranges0+0xa0
 1767 06e6 01       		.byte	0x1
 1768 06e7 2D       		.byte	0x2d
 1769 06e8 29070000 		.long	0x729
 1770 06ec 23       		.uleb128 0x23
 1771 06ed D3050000 		.long	0x5d3
 1772 06f1 D9030000 		.secrel32	.LLST14
 1773 06f5 23       		.uleb128 0x23
 1774 06f6 C6050000 		.long	0x5c6
 1775 06fa 0F040000 		.secrel32	.LLST15
 1776 06fe 23       		.uleb128 0x23
 1777 06ff BB050000 		.long	0x5bb
 1778 0703 5F040000 		.secrel32	.LLST16
 1779 0707 23       		.uleb128 0x23
 1780 0708 AF050000 		.long	0x5af
 1781 070c A3040000 		.secrel32	.LLST17
 1782 0710 24       		.uleb128 0x24
 1783 0711 A0000000 		.secrel32	.Ldebug_ranges0+0xa0
 1784 0715 25       		.uleb128 0x25
 1785 0716 DF050000 		.long	0x5df
 1786 071a D9040000 		.secrel32	.LLST18
 1787 071e 25       		.uleb128 0x25
 1788 071f EA050000 		.long	0x5ea
 1789 0723 96050000 		.secrel32	.LLST19
 1790 0727 00       		.byte	0
 1791 0728 00       		.byte	0
 1792 0729 2A       		.uleb128 0x2a
 1793 072a 52050000 		.long	0x552
 1794 072e 60010000 		.quad	.LBB47
 1794      00000000 
 1795 0736 85000000 		.quad	.LBE47-.LBB47
 1795      00000000 
 1796 073e 01       		.byte	0x1
 1797 073f 28       		.byte	0x28
 1798 0740 6B070000 		.long	0x76b
 1799 0744 2B       		.uleb128 0x2b
 1800 0745 75050000 		.long	0x575
 1801 0749 2B       		.uleb128 0x2b
 1802 074a 69050000 		.long	0x569
 1803 074e 2C       		.uleb128 0x2c
 1804 074f 60010000 		.quad	.LBB48
 1804      00000000 
 1805 0757 85000000 		.quad	.LBE48-.LBB48
 1805      00000000 
 1806 075f 26       		.uleb128 0x26
 1807 0760 81050000 		.long	0x581
 1808 0764 26       		.uleb128 0x26
 1809 0765 8C050000 		.long	0x58c
 1810 0769 00       		.byte	0
 1811 076a 00       		.byte	0
 1812 076b 2D       		.uleb128 0x2d
 1813 076c 9A000000 		.quad	.LVL7
 1813      00000000 
 1814 0774 910D0000 		.long	0xd91
 1815 0778 2E       		.uleb128 0x2e
 1816 0779 01       		.uleb128 0x1
 1817 077a 51       		.byte	0x51
 1818 077b 07       		.uleb128 0x7
 1819 077c 73       		.byte	0x73
 1820 077d 00       		.sleb128 0
 1821 077e 91       		.byte	0x91
 1822 077f 887F     		.sleb128 -120
 1823 0781 06       		.byte	0x6
 1824 0782 22       		.byte	0x22
 1825 0783 2E       		.uleb128 0x2e
 1826 0784 01       		.uleb128 0x1
 1827 0785 58       		.byte	0x58
 1828 0786 02       		.uleb128 0x2
 1829 0787 7D       		.byte	0x7d
 1830 0788 00       		.sleb128 0
 1831 0789 00       		.byte	0
 1832 078a 00       		.byte	0
 1833 078b 00       		.byte	0
 1834 078c 00       		.byte	0
 1835 078d 00       		.byte	0
 1836 078e 00       		.byte	0
 1837 078f 2F       		.uleb128 0x2f
 1838 0790 66617273 		.ascii "farsh_keyed_n\0"
 1838      685F6B65 
 1838      7965645F 
 1838      6E00
 1839 079e 01       		.byte	0x1
 1840 079f 42       		.byte	0x42
 1841 07a0 01       		.byte	0x1
 1842 07a1 E7070000 		.long	0x7e7
 1843 07a5 1A       		.uleb128 0x1a
 1844 07a6 18000000 		.secrel32	.LASF1
 1845 07aa 01       		.byte	0x1
 1846 07ab 42       		.byte	0x42
 1847 07ac AD010000 		.long	0x1ad
 1848 07b0 1A       		.uleb128 0x1a
 1849 07b1 12000000 		.secrel32	.LASF2
 1850 07b5 01       		.byte	0x1
 1851 07b6 42       		.byte	0x42
 1852 07b7 98000000 		.long	0x98
 1853 07bb 1C       		.uleb128 0x1c
 1854 07bc 6B657900 		.ascii "key\0"
 1855 07c0 01       		.byte	0x1
 1856 07c1 42       		.byte	0x42
 1857 07c2 AA040000 		.long	0x4aa
 1858 07c6 1C       		.uleb128 0x1c
 1859 07c7 6E00     		.ascii "n\0"
 1860 07c9 01       		.byte	0x1
 1861 07ca 42       		.byte	0x42
 1862 07cb E7000000 		.long	0xe7
 1863 07cf 1C       		.uleb128 0x1c
 1864 07d0 68617368 		.ascii "hash\0"
 1864      00
 1865 07d5 01       		.byte	0x1
 1866 07d6 42       		.byte	0x42
 1867 07d7 B4010000 		.long	0x1b4
 1868 07db 1D       		.uleb128 0x1d
 1869 07dc 1E       		.uleb128 0x1e
 1870 07dd 6900     		.ascii "i\0"
 1871 07df 01       		.byte	0x1
 1872 07e0 44       		.byte	0x44
 1873 07e1 E7000000 		.long	0xe7
 1874 07e5 00       		.byte	0
 1875 07e6 00       		.byte	0
 1876 07e7 22       		.uleb128 0x22
 1877 07e8 8F070000 		.long	0x78f
 1878 07ec 5F5A3133 		.ascii "_Z13farsh_keyed_nPKvyPKjiPj\0"
 1878      66617273 
 1878      685F6B65 
 1878      7965645F 
 1878      6E504B76 
 1879 0808 10020000 		.quad	.LFB3008
 1879      00000000 
 1880 0810 5A000000 		.quad	.LFE3008-.LFB3008
 1880      00000000 
 1881 0818 01       		.uleb128 0x1
 1882 0819 9C       		.byte	0x9c
 1883 081a 89080000 		.long	0x889
 1884 081e 23       		.uleb128 0x23
 1885 081f A5070000 		.long	0x7a5
 1886 0823 E1050000 		.secrel32	.LLST20
 1887 0827 23       		.uleb128 0x23
 1888 0828 B0070000 		.long	0x7b0
 1889 082c 2D060000 		.secrel32	.LLST21
 1890 0830 23       		.uleb128 0x23
 1891 0831 BB070000 		.long	0x7bb
 1892 0835 79060000 		.secrel32	.LLST22
 1893 0839 23       		.uleb128 0x23
 1894 083a C6070000 		.long	0x7c6
 1895 083e C5060000 		.secrel32	.LLST23
 1896 0842 30       		.uleb128 0x30
 1897 0843 CF070000 		.long	0x7cf
 1898 0847 02       		.uleb128 0x2
 1899 0848 91       		.byte	0x91
 1900 0849 20       		.sleb128 32
 1901 084a 2C       		.uleb128 0x2c
 1902 084b 24020000 		.quad	.LBB56
 1902      00000000 
 1903 0853 39000000 		.quad	.LBE56-.LBB56
 1903      00000000 
 1904 085b 25       		.uleb128 0x25
 1905 085c DC070000 		.long	0x7dc
 1906 0860 FE060000 		.secrel32	.LLST24
 1907 0864 2D       		.uleb128 0x2d
 1908 0865 50020000 		.quad	.LVL34
 1908      00000000 
 1909 086d C5040000 		.long	0x4c5
 1910 0871 2E       		.uleb128 0x2e
 1911 0872 01       		.uleb128 0x1
 1912 0873 52       		.byte	0x52
 1913 0874 02       		.uleb128 0x2
 1914 0875 74       		.byte	0x74
 1915 0876 00       		.sleb128 0
 1916 0877 2E       		.uleb128 0x2e
 1917 0878 01       		.uleb128 0x1
 1918 0879 51       		.byte	0x51
 1919 087a 02       		.uleb128 0x2
 1920 087b 75       		.byte	0x75
 1921 087c 00       		.sleb128 0
 1922 087d 2E       		.uleb128 0x2e
 1923 087e 01       		.uleb128 0x1
 1924 087f 58       		.byte	0x58
 1925 0880 05       		.uleb128 0x5
 1926 0881 76       		.byte	0x76
 1927 0882 00       		.sleb128 0
 1928 0883 73       		.byte	0x73
 1929 0884 00       		.sleb128 0
 1930 0885 22       		.byte	0x22
 1931 0886 00       		.byte	0
 1932 0887 00       		.byte	0
 1933 0888 00       		.byte	0
 1934 0889 31       		.uleb128 0x31
 1935 088a 66617273 		.ascii "farsh_n\0"
 1935      685F6E00 
 1936 0892 01       		.byte	0x1
 1937 0893 4A       		.byte	0x4a
 1938 0894 5F5A3766 		.ascii "_Z7farsh_nPKvyiPj\0"
 1938      61727368 
 1938      5F6E504B 
 1938      76796950 
 1938      6A00
 1939 08a6 70020000 		.quad	.LFB3009
 1939      00000000 
 1940 08ae 59000000 		.quad	.LFE3009-.LFB3009
 1940      00000000 
 1941 08b6 01       		.uleb128 0x1
 1942 08b7 9C       		.byte	0x9c
 1943 08b8 82090000 		.long	0x982
 1944 08bc 32       		.uleb128 0x32
 1945 08bd 18000000 		.secrel32	.LASF1
 1946 08c1 01       		.byte	0x1
 1947 08c2 4A       		.byte	0x4a
 1948 08c3 AD010000 		.long	0x1ad
 1949 08c7 22070000 		.secrel32	.LLST25
 1950 08cb 32       		.uleb128 0x32
 1951 08cc 12000000 		.secrel32	.LASF2
 1952 08d0 01       		.byte	0x1
 1953 08d1 4A       		.byte	0x4a
 1954 08d2 98000000 		.long	0x98
 1955 08d6 6E070000 		.secrel32	.LLST26
 1956 08da 33       		.uleb128 0x33
 1957 08db 6E00     		.ascii "n\0"
 1958 08dd 01       		.byte	0x1
 1959 08de 4A       		.byte	0x4a
 1960 08df E7000000 		.long	0xe7
 1961 08e3 BA070000 		.secrel32	.LLST27
 1962 08e7 33       		.uleb128 0x33
 1963 08e8 68617368 		.ascii "hash\0"
 1963      00
 1964 08ed 01       		.byte	0x1
 1965 08ee 4A       		.byte	0x4a
 1966 08ef B4010000 		.long	0x1b4
 1967 08f3 F3070000 		.secrel32	.LLST28
 1968 08f7 34       		.uleb128 0x34
 1969 08f8 8F070000 		.long	0x78f
 1970 08fc 7C020000 		.quad	.LBB60
 1970      00000000 
 1971 0904 40000000 		.quad	.LBE60-.LBB60
 1971      00000000 
 1972 090c 01       		.byte	0x1
 1973 090d 4C       		.byte	0x4c
 1974 090e 23       		.uleb128 0x23
 1975 090f CF070000 		.long	0x7cf
 1976 0913 3F080000 		.secrel32	.LLST29
 1977 0917 23       		.uleb128 0x23
 1978 0918 C6070000 		.long	0x7c6
 1979 091c 8B080000 		.secrel32	.LLST30
 1980 0920 30       		.uleb128 0x30
 1981 0921 BB070000 		.long	0x7bb
 1982 0925 0A       		.uleb128 0xa
 1983 0926 03       		.byte	0x3
 1984 0927 80000000 		.quad	_ZL9farsh_key
 1984      00000000 
 1985 092f 9F       		.byte	0x9f
 1986 0930 23       		.uleb128 0x23
 1987 0931 B0070000 		.long	0x7b0
 1988 0935 C4080000 		.secrel32	.LLST31
 1989 0939 23       		.uleb128 0x23
 1990 093a A5070000 		.long	0x7a5
 1991 093e 10090000 		.secrel32	.LLST32
 1992 0942 2C       		.uleb128 0x2c
 1993 0943 7C020000 		.quad	.LBB61
 1993      00000000 
 1994 094b 40000000 		.quad	.LBE61-.LBB61
 1994      00000000 
 1995 0953 25       		.uleb128 0x25
 1996 0954 DC070000 		.long	0x7dc
 1997 0958 5C090000 		.secrel32	.LLST33
 1998 095c 2D       		.uleb128 0x2d
 1999 095d AF020000 		.quad	.LVL40
 1999      00000000 
 2000 0965 C5040000 		.long	0x4c5
 2001 0969 2E       		.uleb128 0x2e
 2002 096a 01       		.uleb128 0x1
 2003 096b 52       		.byte	0x52
 2004 096c 02       		.uleb128 0x2
 2005 096d 74       		.byte	0x74
 2006 096e 00       		.sleb128 0
 2007 096f 2E       		.uleb128 0x2e
 2008 0970 01       		.uleb128 0x1
 2009 0971 51       		.byte	0x51
 2010 0972 02       		.uleb128 0x2
 2011 0973 75       		.byte	0x75
 2012 0974 00       		.sleb128 0
 2013 0975 2E       		.uleb128 0x2e
 2014 0976 01       		.uleb128 0x1
 2015 0977 58       		.byte	0x58
 2016 0978 05       		.uleb128 0x5
 2017 0979 7C       		.byte	0x7c
 2018 097a 00       		.sleb128 0
 2019 097b 73       		.byte	0x73
 2020 097c 00       		.sleb128 0
 2021 097d 22       		.byte	0x22
 2022 097e 00       		.byte	0
 2023 097f 00       		.byte	0
 2024 0980 00       		.byte	0
 2025 0981 00       		.byte	0
 2026 0982 22       		.uleb128 0x22
 2027 0983 F0030000 		.long	0x3f0
 2028 0987 5F5A3566 		.ascii "_Z5farshPKvy\0"
 2028      61727368 
 2028      504B7679 
 2028      00
 2029 0994 D0020000 		.quad	.LFB3010
 2029      00000000 
 2030 099c 0C000000 		.quad	.LFE3010-.LFB3010
 2030      00000000 
 2031 09a4 01       		.uleb128 0x1
 2032 09a5 9C       		.byte	0x9c
 2033 09a6 E6090000 		.long	0x9e6
 2034 09aa 23       		.uleb128 0x23
 2035 09ab 02040000 		.long	0x402
 2036 09af 80090000 		.secrel32	.LLST34
 2037 09b3 23       		.uleb128 0x23
 2038 09b4 0D040000 		.long	0x40d
 2039 09b8 B9090000 		.secrel32	.LLST35
 2040 09bc 35       		.uleb128 0x35
 2041 09bd DC020000 		.quad	.LVL43
 2041      00000000 
 2042 09c5 C5040000 		.long	0x4c5
 2043 09c9 2E       		.uleb128 0x2e
 2044 09ca 01       		.uleb128 0x1
 2045 09cb 52       		.byte	0x52
 2046 09cc 03       		.uleb128 0x3
 2047 09cd F3       		.byte	0xf3
 2048 09ce 01       		.uleb128 0x1
 2049 09cf 52       		.byte	0x52
 2050 09d0 2E       		.uleb128 0x2e
 2051 09d1 01       		.uleb128 0x1
 2052 09d2 51       		.byte	0x51
 2053 09d3 03       		.uleb128 0x3
 2054 09d4 F3       		.byte	0xf3
 2055 09d5 01       		.uleb128 0x1
 2056 09d6 51       		.byte	0x51
 2057 09d7 2E       		.uleb128 0x2e
 2058 09d8 01       		.uleb128 0x1
 2059 09d9 58       		.byte	0x58
 2060 09da 09       		.uleb128 0x9
 2061 09db 03       		.byte	0x3
 2062 09dc 80000000 		.quad	_ZL9farsh_key
 2062      00000000 
 2063 09e4 00       		.byte	0
 2064 09e5 00       		.byte	0
 2065 09e6 16       		.uleb128 0x16
 2066 09e7 4B030000 		.long	0x34b
 2067 09eb 02       		.byte	0x2
 2068 09ec F4090000 		.long	0x9f4
 2069 09f0 FF090000 		.long	0x9ff
 2070 09f4 17       		.uleb128 0x17
 2071 09f5 74686973 		.ascii "this\0"
 2071      00
 2072 09fa B9030000 		.long	0x3b9
 2073 09fe 00       		.byte	0
 2074 09ff 36       		.uleb128 0x36
 2075 0a00 6D61696E 		.ascii "main\0"
 2075      00
 2076 0a05 02       		.byte	0x2
 2077 0a06 06       		.byte	0x6
 2078 0a07 E7000000 		.long	0xe7
 2079 0a0b 00000000 		.quad	.LFB3011
 2079      00000000 
 2080 0a13 09020000 		.quad	.LFE3011-.LFB3011
 2080      00000000 
 2081 0a1b 01       		.uleb128 0x1
 2082 0a1c 9C       		.byte	0x9c
 2083 0a1d 450D0000 		.long	0xd45
 2084 0a21 24       		.uleb128 0x24
 2085 0a22 D0000000 		.secrel32	.Ldebug_ranges0+0xd0
 2086 0a26 37       		.uleb128 0x37
 2087 0a27 44415441 		.ascii "DATASIZE\0"
 2087      53495A45 
 2087      00
 2088 0a30 02       		.byte	0x2
 2089 0a31 08       		.byte	0x8
 2090 0a32 450D0000 		.long	0xd45
 2091 0a36 0070     		.word	0x7000
 2092 0a38 38       		.uleb128 0x38
 2093 0a39 44415441 		.ascii "DATASET\0"
 2093      53455400 
 2094 0a41 02       		.byte	0x2
 2095 0a42 09       		.byte	0x9
 2096 0a43 4A0D0000 		.long	0xd4a
 2097 0a47 00000080 		.quad	0x280000000
 2097      02000000 
 2098 0a4f 39       		.uleb128 0x39
 2099 0a50 7400     		.ascii "t\0"
 2100 0a52 02       		.byte	0x2
 2101 0a53 0B       		.byte	0xb
 2102 0a54 77020000 		.long	0x277
 2103 0a58 03       		.uleb128 0x3
 2104 0a59 91       		.byte	0x91
 2105 0a5a 907F     		.sleb128 -112
 2106 0a5c 3A       		.uleb128 0x3a
 2107 0a5d 73706565 		.ascii "speed\0"
 2107      6400
 2108 0a63 02       		.byte	0x2
 2109 0a64 14       		.byte	0x14
 2110 0a65 86000000 		.long	0x86
 2111 0a69 F2090000 		.secrel32	.LLST36
 2112 0a6d 29       		.uleb128 0x29
 2113 0a6e A0030000 		.long	0x3a0
 2114 0a72 1B000000 		.quad	.LBB93
 2114      00000000 
 2115 0a7a 00010000 		.secrel32	.Ldebug_ranges0+0x100
 2116 0a7e 02       		.byte	0x2
 2117 0a7f 0B       		.byte	0xb
 2118 0a80 A10A0000 		.long	0xaa1
 2119 0a84 23       		.uleb128 0x23
 2120 0a85 AE030000 		.long	0x3ae
 2121 0a89 460A0000 		.secrel32	.LLST37
 2122 0a8d 3B       		.uleb128 0x3b
 2123 0a8e 69000000 		.quad	.LVL50
 2123      00000000 
 2124 0a96 02       		.uleb128 0x2
 2125 0a97 74       		.byte	0x74
 2126 0a98 00       		.sleb128 0
 2127 0a99 2E       		.uleb128 0x2e
 2128 0a9a 01       		.uleb128 0x1
 2129 0a9b 52       		.byte	0x52
 2130 0a9c 02       		.uleb128 0x2
 2131 0a9d 73       		.byte	0x73
 2132 0a9e 00       		.sleb128 0
 2133 0a9f 00       		.byte	0
 2134 0aa0 00       		.byte	0
 2135 0aa1 29       		.uleb128 0x29
 2136 0aa2 E6090000 		.long	0x9e6
 2137 0aa6 23000000 		.quad	.LBB98
 2137      00000000 
 2138 0aae 50010000 		.secrel32	.Ldebug_ranges0+0x150
 2139 0ab2 02       		.byte	0x2
 2140 0ab3 0B       		.byte	0xb
 2141 0ab4 5F0B0000 		.long	0xb5f
 2142 0ab8 23       		.uleb128 0x23
 2143 0ab9 F4090000 		.long	0x9f4
 2144 0abd 7F0A0000 		.secrel32	.LLST38
 2145 0ac1 29       		.uleb128 0x29
 2146 0ac2 D7030000 		.long	0x3d7
 2147 0ac6 43000000 		.quad	.LBB100
 2147      00000000 
 2148 0ace 90010000 		.secrel32	.Ldebug_ranges0+0x190
 2149 0ad2 03       		.byte	0x3
 2150 0ad3 2E       		.byte	0x2e
 2151 0ad4 4E0B0000 		.long	0xb4e
 2152 0ad8 23       		.uleb128 0x23
 2153 0ad9 E5030000 		.long	0x3e5
 2154 0add B80A0000 		.secrel32	.LLST39
 2155 0ae1 2A       		.uleb128 0x2a
 2156 0ae2 A0030000 		.long	0x3a0
 2157 0ae6 43000000 		.quad	.LBB102
 2157      00000000 
 2158 0aee 0C000000 		.quad	.LBE102-.LBB102
 2158      00000000 
 2159 0af6 03       		.byte	0x3
 2160 0af7 36       		.byte	0x36
 2161 0af8 190B0000 		.long	0xb19
 2162 0afc 23       		.uleb128 0x23
 2163 0afd AE030000 		.long	0x3ae
 2164 0b01 B80A0000 		.secrel32	.LLST39
 2165 0b05 3B       		.uleb128 0x3b
 2166 0b06 4F000000 		.quad	.LVL47
 2166      00000000 
 2167 0b0e 02       		.uleb128 0x2
 2168 0b0f 74       		.byte	0x74
 2169 0b10 00       		.sleb128 0
 2170 0b11 2E       		.uleb128 0x2e
 2171 0b12 01       		.uleb128 0x1
 2172 0b13 52       		.byte	0x52
 2173 0b14 02       		.uleb128 0x2
 2174 0b15 73       		.byte	0x73
 2175 0b16 00       		.sleb128 0
 2176 0b17 00       		.byte	0
 2177 0b18 00       		.byte	0
 2178 0b19 34       		.uleb128 0x34
 2179 0b1a BE030000 		.long	0x3be
 2180 0b1e 4F000000 		.quad	.LBB104
 2180      00000000 
 2181 0b26 06000000 		.quad	.LBE104-.LBB104
 2181      00000000 
 2182 0b2e 03       		.byte	0x3
 2183 0b2f 37       		.byte	0x37
 2184 0b30 23       		.uleb128 0x23
 2185 0b31 CC030000 		.long	0x3cc
 2186 0b35 F10A0000 		.secrel32	.LLST41
 2187 0b39 3B       		.uleb128 0x3b
 2188 0b3a 55000000 		.quad	.LVL48
 2188      00000000 
 2189 0b42 02       		.uleb128 0x2
 2190 0b43 74       		.byte	0x74
 2191 0b44 00       		.sleb128 0
 2192 0b45 2E       		.uleb128 0x2e
 2193 0b46 01       		.uleb128 0x1
 2194 0b47 52       		.byte	0x52
 2195 0b48 02       		.uleb128 0x2
 2196 0b49 73       		.byte	0x73
 2197 0b4a 08       		.sleb128 8
 2198 0b4b 00       		.byte	0
 2199 0b4c 00       		.byte	0
 2200 0b4d 00       		.byte	0
 2201 0b4e 3C       		.uleb128 0x3c
 2202 0b4f 43000000 		.quad	.LVL46
 2202      00000000 
 2203 0b57 2E       		.uleb128 0x2e
 2204 0b58 01       		.uleb128 0x1
 2205 0b59 52       		.byte	0x52
 2206 0b5a 02       		.uleb128 0x2
 2207 0b5b 73       		.byte	0x73
 2208 0b5c 10       		.sleb128 16
 2209 0b5d 00       		.byte	0
 2210 0b5e 00       		.byte	0
 2211 0b5f 3D       		.uleb128 0x3d
 2212 0b60 C0010000 		.secrel32	.Ldebug_ranges0+0x1c0
 2213 0b64 AE0C0000 		.long	0xcae
 2214 0b68 3A       		.uleb128 0x3a
 2215 0b69 6900     		.ascii "i\0"
 2216 0b6b 02       		.byte	0x2
 2217 0b6c 0D       		.byte	0xd
 2218 0b6d E7000000 		.long	0xe7
 2219 0b71 2A0B0000 		.secrel32	.LLST42
 2220 0b75 24       		.uleb128 0x24
 2221 0b76 F0010000 		.secrel32	.Ldebug_ranges0+0x1f0
 2222 0b7a 39       		.uleb128 0x39
 2223 0b7b 64617461 		.ascii "data\0"
 2223      00
 2224 0b80 02       		.byte	0x2
 2225 0b81 0F       		.byte	0xf
 2226 0b82 4F0D0000 		.long	0xd4f
 2227 0b86 09       		.uleb128 0x9
 2228 0b87 03       		.byte	0x3
 2229 0b88 00000000 		.quad	_ZZ4mainE4data
 2229      00000000 
 2230 0b90 1E       		.uleb128 0x1e
 2231 0b91 6800     		.ascii "h\0"
 2232 0b93 02       		.byte	0x2
 2233 0b94 10       		.byte	0x10
 2234 0b95 05010000 		.long	0x105
 2235 0b99 27       		.uleb128 0x27
 2236 0b9a F0030000 		.long	0x3f0
 2237 0b9e 7E000000 		.quad	.LBB116
 2237      00000000 
 2238 0ba6 20020000 		.secrel32	.Ldebug_ranges0+0x220
 2239 0baa 02       		.byte	0x2
 2240 0bab 10       		.byte	0x10
 2241 0bac 3E       		.uleb128 0x3e
 2242 0bad 0D040000 		.long	0x40d
 2243 0bb1 0070     		.word	0x7000
 2244 0bb3 30       		.uleb128 0x30
 2245 0bb4 02040000 		.long	0x402
 2246 0bb8 0A       		.uleb128 0xa
 2247 0bb9 03       		.byte	0x3
 2248 0bba 00000000 		.quad	_ZZ4mainE4data
 2248      00000000 
 2249 0bc2 9F       		.byte	0x9f
 2250 0bc3 27       		.uleb128 0x27
 2251 0bc4 C5040000 		.long	0x4c5
 2252 0bc8 7E000000 		.quad	.LBB117
 2252      00000000 
 2253 0bd0 20020000 		.secrel32	.Ldebug_ranges0+0x220
 2254 0bd4 01       		.byte	0x1
 2255 0bd5 52       		.byte	0x52
 2256 0bd6 30       		.uleb128 0x30
 2257 0bd7 DD040000 		.long	0x4dd
 2258 0bdb 0A       		.uleb128 0xa
 2259 0bdc 03       		.byte	0x3
 2260 0bdd 00000000 		.quad	_ZZ4mainE4data
 2260      00000000 
 2261 0be5 9F       		.byte	0x9f
 2262 0be6 3E       		.uleb128 0x3e
 2263 0be7 E8040000 		.long	0x4e8
 2264 0beb 0070     		.word	0x7000
 2265 0bed 30       		.uleb128 0x30
 2266 0bee F3040000 		.long	0x4f3
 2267 0bf2 0A       		.uleb128 0xa
 2268 0bf3 03       		.byte	0x3
 2269 0bf4 80000000 		.quad	_ZL9farsh_key
 2269      00000000 
 2270 0bfc 9F       		.byte	0x9f
 2271 0bfd 24       		.uleb128 0x24
 2272 0bfe 20020000 		.secrel32	.Ldebug_ranges0+0x220
 2273 0c02 25       		.uleb128 0x25
 2274 0c03 FF040000 		.long	0x4ff
 2275 0c07 610B0000 		.secrel32	.LLST43
 2276 0c0b 25       		.uleb128 0x25
 2277 0c0c 0A050000 		.long	0x50a
 2278 0c10 980B0000 		.secrel32	.LLST44
 2279 0c14 25       		.uleb128 0x25
 2280 0c15 13050000 		.long	0x513
 2281 0c19 F70B0000 		.secrel32	.LLST45
 2282 0c1d 25       		.uleb128 0x25
 2283 0c1e 1F050000 		.long	0x51f
 2284 0c22 360C0000 		.secrel32	.LLST46
 2285 0c26 24       		.uleb128 0x24
 2286 0c27 50020000 		.secrel32	.Ldebug_ranges0+0x250
 2287 0c2b 26       		.uleb128 0x26
 2288 0c2c 2B050000 		.long	0x52b
 2289 0c30 26       		.uleb128 0x26
 2290 0c31 3B050000 		.long	0x53b
 2291 0c35 27       		.uleb128 0x27
 2292 0c36 32040000 		.long	0x432
 2293 0c3a A0000000 		.quad	.LBB120
 2293      00000000 
 2294 0c42 80020000 		.secrel32	.Ldebug_ranges0+0x280
 2295 0c46 01       		.byte	0x1
 2296 0c47 38       		.byte	0x38
 2297 0c48 2B       		.uleb128 0x2b
 2298 0c49 55040000 		.long	0x455
 2299 0c4d 2B       		.uleb128 0x2b
 2300 0c4e 60040000 		.long	0x460
 2301 0c52 2B       		.uleb128 0x2b
 2302 0c53 4A040000 		.long	0x44a
 2303 0c57 24       		.uleb128 0x24
 2304 0c58 80020000 		.secrel32	.Ldebug_ranges0+0x280
 2305 0c5c 26       		.uleb128 0x26
 2306 0c5d 6C040000 		.long	0x46c
 2307 0c61 26       		.uleb128 0x26
 2308 0c62 78040000 		.long	0x478
 2309 0c66 26       		.uleb128 0x26
 2310 0c67 83040000 		.long	0x483
 2311 0c6b 26       		.uleb128 0x26
 2312 0c6c 95040000 		.long	0x495
 2313 0c70 27       		.uleb128 0x27
 2314 0c71 52050000 		.long	0x552
 2315 0c75 A0000000 		.quad	.LBB122
 2315      00000000 
 2316 0c7d 80020000 		.secrel32	.Ldebug_ranges0+0x280
 2317 0c81 01       		.byte	0x1
 2318 0c82 28       		.byte	0x28
 2319 0c83 2B       		.uleb128 0x2b
 2320 0c84 75050000 		.long	0x575
 2321 0c88 2B       		.uleb128 0x2b
 2322 0c89 69050000 		.long	0x569
 2323 0c8d 24       		.uleb128 0x24
 2324 0c8e 80020000 		.secrel32	.Ldebug_ranges0+0x280
 2325 0c92 25       		.uleb128 0x25
 2326 0c93 81050000 		.long	0x581
 2327 0c97 750C0000 		.secrel32	.LLST47
 2328 0c9b 25       		.uleb128 0x25
 2329 0c9c 8C050000 		.long	0x58c
 2330 0ca0 750C0000 		.secrel32	.LLST47
 2331 0ca4 00       		.byte	0
 2332 0ca5 00       		.byte	0
 2333 0ca6 00       		.byte	0
 2334 0ca7 00       		.byte	0
 2335 0ca8 00       		.byte	0
 2336 0ca9 00       		.byte	0
 2337 0caa 00       		.byte	0
 2338 0cab 00       		.byte	0
 2339 0cac 00       		.byte	0
 2340 0cad 00       		.byte	0
 2341 0cae 2A       		.uleb128 0x2a
 2342 0caf BE030000 		.long	0x3be
 2343 0cb3 69010000 		.quad	.LBB135
 2343      00000000 
 2344 0cbb 06000000 		.quad	.LBE135-.LBB135
 2344      00000000 
 2345 0cc3 02       		.byte	0x2
 2346 0cc4 14       		.byte	0x14
 2347 0cc5 E30C0000 		.long	0xce3
 2348 0cc9 23       		.uleb128 0x23
 2349 0cca CC030000 		.long	0x3cc
 2350 0cce 990C0000 		.secrel32	.LLST49
 2351 0cd2 3C       		.uleb128 0x3c
 2352 0cd3 6F010000 		.quad	.LVL63
 2352      00000000 
 2353 0cdb 2E       		.uleb128 0x2e
 2354 0cdc 01       		.uleb128 0x1
 2355 0cdd 52       		.byte	0x52
 2356 0cde 02       		.uleb128 0x2
 2357 0cdf 73       		.byte	0x73
 2358 0ce0 08       		.sleb128 8
 2359 0ce1 00       		.byte	0
 2360 0ce2 00       		.byte	0
 2361 0ce3 29       		.uleb128 0x29
 2362 0ce4 19040000 		.long	0x419
 2363 0ce8 6F010000 		.quad	.LBB137
 2363      00000000 
 2364 0cf0 B0020000 		.secrel32	.Ldebug_ranges0+0x2b0
 2365 0cf4 02       		.byte	0x2
 2366 0cf5 14       		.byte	0x14
 2367 0cf6 040D0000 		.long	0xd04
 2368 0cfa 23       		.uleb128 0x23
 2369 0cfb 27040000 		.long	0x427
 2370 0cff D20C0000 		.secrel32	.LLST50
 2371 0d03 00       		.byte	0
 2372 0d04 3F       		.uleb128 0x3f
 2373 0d05 39000000 		.quad	.LVL45
 2373      00000000 
 2374 0d0d B10D0000 		.long	0xdb1
 2375 0d11 280D0000 		.long	0xd28
 2376 0d15 2E       		.uleb128 0x2e
 2377 0d16 01       		.uleb128 0x1
 2378 0d17 52       		.byte	0x52
 2379 0d18 09       		.uleb128 0x9
 2380 0d19 03       		.byte	0x3
 2381 0d1a 00000000 		.quad	.LC0
 2381      00000000 
 2382 0d22 2E       		.uleb128 0x2e
 2383 0d23 01       		.uleb128 0x1
 2384 0d24 51       		.byte	0x51
 2385 0d25 01       		.uleb128 0x1
 2386 0d26 3A       		.byte	0x3a
 2387 0d27 00       		.byte	0
 2388 0d28 2D       		.uleb128 0x2d
 2389 0d29 F2010000 		.quad	.LVL66
 2389      00000000 
 2390 0d31 B10D0000 		.long	0xdb1
 2391 0d35 2E       		.uleb128 0x2e
 2392 0d36 01       		.uleb128 0x1
 2393 0d37 52       		.byte	0x52
 2394 0d38 09       		.uleb128 0x9
 2395 0d39 03       		.byte	0x3
 2396 0d3a 10000000 		.quad	.LC5
 2396      00000000 
 2397 0d42 00       		.byte	0
 2398 0d43 00       		.byte	0
 2399 0d44 00       		.byte	0
 2400 0d45 18       		.uleb128 0x18
 2401 0d46 98000000 		.long	0x98
 2402 0d4a 18       		.uleb128 0x18
 2403 0d4b 85010000 		.long	0x185
 2404 0d4f 20       		.uleb128 0x20
 2405 0d50 90000000 		.long	0x90
 2406 0d54 600D0000 		.long	0xd60
 2407 0d58 40       		.uleb128 0x40
 2408 0d59 15010000 		.long	0x115
 2409 0d5d FF6F     		.word	0x6fff
 2410 0d5f 00       		.byte	0
 2411 0d60 20       		.uleb128 0x20
 2412 0d61 05010000 		.long	0x105
 2413 0d65 710D0000 		.long	0xd71
 2414 0d69 40       		.uleb128 0x40
 2415 0d6a 15010000 		.long	0x115
 2416 0d6e 1E01     		.word	0x11e
 2417 0d70 00       		.byte	0
 2418 0d71 39       		.uleb128 0x39
 2419 0d72 66617273 		.ascii "farsh_key\0"
 2419      685F6B65 
 2419      7900
 2420 0d7c 01       		.byte	0x1
 2421 0d7d 09       		.byte	0x9
 2422 0d7e 8C0D0000 		.long	0xd8c
 2423 0d82 09       		.uleb128 0x9
 2424 0d83 03       		.byte	0x3
 2425 0d84 80000000 		.quad	_ZL9farsh_key
 2425      00000000 
 2426 0d8c 18       		.uleb128 0x18
 2427 0d8d 600D0000 		.long	0xd60
 2428 0d91 41       		.uleb128 0x41
 2429 0d92 6D656D63 		.ascii "memcpy\0"
 2429      707900
 2430 0d99 95010000 		.long	0x195
 2431 0d9d B10D0000 		.long	0xdb1
 2432 0da1 42       		.uleb128 0x42
 2433 0da2 95010000 		.long	0x195
 2434 0da6 42       		.uleb128 0x42
 2435 0da7 AD010000 		.long	0x1ad
 2436 0dab 42       		.uleb128 0x42
 2437 0dac 15010000 		.long	0x115
 2438 0db0 00       		.byte	0
 2439 0db1 43       		.uleb128 0x43
 2440 0db2 7072696E 		.ascii "printf\0"
 2440      746600
 2441 0db9 08       		.byte	0x8
 2442 0dba 7A01     		.word	0x17a
 2443 0dbc E7000000 		.long	0xe7
 2444 0dc0 42       		.uleb128 0x42
 2445 0dc1 47050000 		.long	0x547
 2446 0dc5 44       		.uleb128 0x44
 2447 0dc6 00       		.byte	0
 2448 0dc7 00       		.byte	0
 2449              		.section	.debug_abbrev,"dr"
 2450              	.Ldebug_abbrev0:
 2451 0000 01       		.uleb128 0x1
 2452 0001 11       		.uleb128 0x11
 2453 0002 01       		.byte	0x1
 2454 0003 25       		.uleb128 0x25
 2455 0004 08       		.uleb128 0x8
 2456 0005 13       		.uleb128 0x13
 2457 0006 0B       		.uleb128 0xb
 2458 0007 03       		.uleb128 0x3
 2459 0008 08       		.uleb128 0x8
 2460 0009 1B       		.uleb128 0x1b
 2461 000a 08       		.uleb128 0x8
 2462 000b 55       		.uleb128 0x55
 2463 000c 17       		.uleb128 0x17
 2464 000d 11       		.uleb128 0x11
 2465 000e 01       		.uleb128 0x1
 2466 000f 10       		.uleb128 0x10
 2467 0010 17       		.uleb128 0x17
 2468 0011 00       		.byte	0
 2469 0012 00       		.byte	0
 2470 0013 02       		.uleb128 0x2
 2471 0014 24       		.uleb128 0x24
 2472 0015 00       		.byte	0
 2473 0016 0B       		.uleb128 0xb
 2474 0017 0B       		.uleb128 0xb
 2475 0018 3E       		.uleb128 0x3e
 2476 0019 0B       		.uleb128 0xb
 2477 001a 03       		.uleb128 0x3
 2478 001b 08       		.uleb128 0x8
 2479 001c 00       		.byte	0
 2480 001d 00       		.byte	0
 2481 001e 03       		.uleb128 0x3
 2482 001f 16       		.uleb128 0x16
 2483 0020 00       		.byte	0
 2484 0021 03       		.uleb128 0x3
 2485 0022 08       		.uleb128 0x8
 2486 0023 3A       		.uleb128 0x3a
 2487 0024 0B       		.uleb128 0xb
 2488 0025 3B       		.uleb128 0x3b
 2489 0026 0B       		.uleb128 0xb
 2490 0027 49       		.uleb128 0x49
 2491 0028 13       		.uleb128 0x13
 2492 0029 00       		.byte	0
 2493 002a 00       		.byte	0
 2494 002b 04       		.uleb128 0x4
 2495 002c 3B       		.uleb128 0x3b
 2496 002d 00       		.byte	0
 2497 002e 03       		.uleb128 0x3
 2498 002f 08       		.uleb128 0x8
 2499 0030 00       		.byte	0
 2500 0031 00       		.byte	0
 2501 0032 05       		.uleb128 0x5
 2502 0033 0F       		.uleb128 0xf
 2503 0034 00       		.byte	0
 2504 0035 0B       		.uleb128 0xb
 2505 0036 0B       		.uleb128 0xb
 2506 0037 00       		.byte	0
 2507 0038 00       		.byte	0
 2508 0039 06       		.uleb128 0x6
 2509 003a 0F       		.uleb128 0xf
 2510 003b 00       		.byte	0
 2511 003c 0B       		.uleb128 0xb
 2512 003d 0B       		.uleb128 0xb
 2513 003e 49       		.uleb128 0x49
 2514 003f 13       		.uleb128 0x13
 2515 0040 00       		.byte	0
 2516 0041 00       		.byte	0
 2517 0042 07       		.uleb128 0x7
 2518 0043 26       		.uleb128 0x26
 2519 0044 00       		.byte	0
 2520 0045 00       		.byte	0
 2521 0046 00       		.byte	0
 2522 0047 08       		.uleb128 0x8
 2523 0048 16       		.uleb128 0x16
 2524 0049 00       		.byte	0
 2525 004a 03       		.uleb128 0x3
 2526 004b 08       		.uleb128 0x8
 2527 004c 3A       		.uleb128 0x3a
 2528 004d 0B       		.uleb128 0xb
 2529 004e 3B       		.uleb128 0x3b
 2530 004f 05       		.uleb128 0x5
 2531 0050 49       		.uleb128 0x49
 2532 0051 13       		.uleb128 0x13
 2533 0052 00       		.byte	0
 2534 0053 00       		.byte	0
 2535 0054 09       		.uleb128 0x9
 2536 0055 17       		.uleb128 0x17
 2537 0056 01       		.byte	0x1
 2538 0057 03       		.uleb128 0x3
 2539 0058 08       		.uleb128 0x8
 2540 0059 0B       		.uleb128 0xb
 2541 005a 0B       		.uleb128 0xb
 2542 005b 3A       		.uleb128 0x3a
 2543 005c 0B       		.uleb128 0xb
 2544 005d 3B       		.uleb128 0x3b
 2545 005e 05       		.uleb128 0x5
 2546 005f 01       		.uleb128 0x1
 2547 0060 13       		.uleb128 0x13
 2548 0061 00       		.byte	0
 2549 0062 00       		.byte	0
 2550 0063 0A       		.uleb128 0xa
 2551 0064 13       		.uleb128 0x13
 2552 0065 01       		.byte	0x1
 2553 0066 0B       		.uleb128 0xb
 2554 0067 0B       		.uleb128 0xb
 2555 0068 3A       		.uleb128 0x3a
 2556 0069 0B       		.uleb128 0xb
 2557 006a 3B       		.uleb128 0x3b
 2558 006b 05       		.uleb128 0x5
 2559 006c 01       		.uleb128 0x1
 2560 006d 13       		.uleb128 0x13
 2561 006e 00       		.byte	0
 2562 006f 00       		.byte	0
 2563 0070 0B       		.uleb128 0xb
 2564 0071 0D       		.uleb128 0xd
 2565 0072 00       		.byte	0
 2566 0073 03       		.uleb128 0x3
 2567 0074 08       		.uleb128 0x8
 2568 0075 3A       		.uleb128 0x3a
 2569 0076 0B       		.uleb128 0xb
 2570 0077 3B       		.uleb128 0x3b
 2571 0078 05       		.uleb128 0x5
 2572 0079 49       		.uleb128 0x49
 2573 007a 13       		.uleb128 0x13
 2574 007b 38       		.uleb128 0x38
 2575 007c 0B       		.uleb128 0xb
 2576 007d 00       		.byte	0
 2577 007e 00       		.byte	0
 2578 007f 0C       		.uleb128 0xc
 2579 0080 0D       		.uleb128 0xd
 2580 0081 00       		.byte	0
 2581 0082 03       		.uleb128 0x3
 2582 0083 0E       		.uleb128 0xe
 2583 0084 3A       		.uleb128 0x3a
 2584 0085 0B       		.uleb128 0xb
 2585 0086 3B       		.uleb128 0x3b
 2586 0087 05       		.uleb128 0x5
 2587 0088 49       		.uleb128 0x49
 2588 0089 13       		.uleb128 0x13
 2589 008a 38       		.uleb128 0x38
 2590 008b 0B       		.uleb128 0xb
 2591 008c 00       		.byte	0
 2592 008d 00       		.byte	0
 2593 008e 0D       		.uleb128 0xd
 2594 008f 0D       		.uleb128 0xd
 2595 0090 00       		.byte	0
 2596 0091 49       		.uleb128 0x49
 2597 0092 13       		.uleb128 0x13
 2598 0093 00       		.byte	0
 2599 0094 00       		.byte	0
 2600 0095 0E       		.uleb128 0xe
 2601 0096 0D       		.uleb128 0xd
 2602 0097 00       		.byte	0
 2603 0098 03       		.uleb128 0x3
 2604 0099 08       		.uleb128 0x8
 2605 009a 3A       		.uleb128 0x3a
 2606 009b 0B       		.uleb128 0xb
 2607 009c 3B       		.uleb128 0x3b
 2608 009d 05       		.uleb128 0x5
 2609 009e 49       		.uleb128 0x49
 2610 009f 13       		.uleb128 0x13
 2611 00a0 00       		.byte	0
 2612 00a1 00       		.byte	0
 2613 00a2 0F       		.uleb128 0xf
 2614 00a3 13       		.uleb128 0x13
 2615 00a4 01       		.byte	0x1
 2616 00a5 03       		.uleb128 0x3
 2617 00a6 08       		.uleb128 0x8
 2618 00a7 0B       		.uleb128 0xb
 2619 00a8 0B       		.uleb128 0xb
 2620 00a9 3A       		.uleb128 0x3a
 2621 00aa 0B       		.uleb128 0xb
 2622 00ab 3B       		.uleb128 0x3b
 2623 00ac 0B       		.uleb128 0xb
 2624 00ad 01       		.uleb128 0x1
 2625 00ae 13       		.uleb128 0x13
 2626 00af 00       		.byte	0
 2627 00b0 00       		.byte	0
 2628 00b1 10       		.uleb128 0x10
 2629 00b2 0D       		.uleb128 0xd
 2630 00b3 00       		.byte	0
 2631 00b4 03       		.uleb128 0x3
 2632 00b5 08       		.uleb128 0x8
 2633 00b6 3A       		.uleb128 0x3a
 2634 00b7 0B       		.uleb128 0xb
 2635 00b8 3B       		.uleb128 0x3b
 2636 00b9 0B       		.uleb128 0xb
 2637 00ba 49       		.uleb128 0x49
 2638 00bb 13       		.uleb128 0x13
 2639 00bc 38       		.uleb128 0x38
 2640 00bd 0B       		.uleb128 0xb
 2641 00be 32       		.uleb128 0x32
 2642 00bf 0B       		.uleb128 0xb
 2643 00c0 00       		.byte	0
 2644 00c1 00       		.byte	0
 2645 00c2 11       		.uleb128 0x11
 2646 00c3 2E       		.uleb128 0x2e
 2647 00c4 01       		.byte	0x1
 2648 00c5 3F       		.uleb128 0x3f
 2649 00c6 19       		.uleb128 0x19
 2650 00c7 03       		.uleb128 0x3
 2651 00c8 08       		.uleb128 0x8
 2652 00c9 3A       		.uleb128 0x3a
 2653 00ca 0B       		.uleb128 0xb
 2654 00cb 3B       		.uleb128 0x3b
 2655 00cc 0B       		.uleb128 0xb
 2656 00cd 6E       		.uleb128 0x6e
 2657 00ce 08       		.uleb128 0x8
 2658 00cf 3C       		.uleb128 0x3c
 2659 00d0 19       		.uleb128 0x19
 2660 00d1 64       		.uleb128 0x64
 2661 00d2 13       		.uleb128 0x13
 2662 00d3 01       		.uleb128 0x1
 2663 00d4 13       		.uleb128 0x13
 2664 00d5 00       		.byte	0
 2665 00d6 00       		.byte	0
 2666 00d7 12       		.uleb128 0x12
 2667 00d8 05       		.uleb128 0x5
 2668 00d9 00       		.byte	0
 2669 00da 49       		.uleb128 0x49
 2670 00db 13       		.uleb128 0x13
 2671 00dc 34       		.uleb128 0x34
 2672 00dd 19       		.uleb128 0x19
 2673 00de 00       		.byte	0
 2674 00df 00       		.byte	0
 2675 00e0 13       		.uleb128 0x13
 2676 00e1 2E       		.uleb128 0x2e
 2677 00e2 01       		.byte	0x1
 2678 00e3 3F       		.uleb128 0x3f
 2679 00e4 19       		.uleb128 0x19
 2680 00e5 03       		.uleb128 0x3
 2681 00e6 08       		.uleb128 0x8
 2682 00e7 3A       		.uleb128 0x3a
 2683 00e8 0B       		.uleb128 0xb
 2684 00e9 3B       		.uleb128 0x3b
 2685 00ea 0B       		.uleb128 0xb
 2686 00eb 6E       		.uleb128 0x6e
 2687 00ec 08       		.uleb128 0x8
 2688 00ed 49       		.uleb128 0x49
 2689 00ee 13       		.uleb128 0x13
 2690 00ef 3C       		.uleb128 0x3c
 2691 00f0 19       		.uleb128 0x19
 2692 00f1 64       		.uleb128 0x64
 2693 00f2 13       		.uleb128 0x13
 2694 00f3 01       		.uleb128 0x1
 2695 00f4 13       		.uleb128 0x13
 2696 00f5 00       		.byte	0
 2697 00f6 00       		.byte	0
 2698 00f7 14       		.uleb128 0x14
 2699 00f8 2E       		.uleb128 0x2e
 2700 00f9 01       		.byte	0x1
 2701 00fa 3F       		.uleb128 0x3f
 2702 00fb 19       		.uleb128 0x19
 2703 00fc 03       		.uleb128 0x3
 2704 00fd 08       		.uleb128 0x8
 2705 00fe 3A       		.uleb128 0x3a
 2706 00ff 0B       		.uleb128 0xb
 2707 0100 3B       		.uleb128 0x3b
 2708 0101 0B       		.uleb128 0xb
 2709 0102 3C       		.uleb128 0x3c
 2710 0103 19       		.uleb128 0x19
 2711 0104 64       		.uleb128 0x64
 2712 0105 13       		.uleb128 0x13
 2713 0106 01       		.uleb128 0x1
 2714 0107 13       		.uleb128 0x13
 2715 0108 00       		.byte	0
 2716 0109 00       		.byte	0
 2717 010a 15       		.uleb128 0x15
 2718 010b 2E       		.uleb128 0x2e
 2719 010c 01       		.byte	0x1
 2720 010d 3F       		.uleb128 0x3f
 2721 010e 19       		.uleb128 0x19
 2722 010f 03       		.uleb128 0x3
 2723 0110 08       		.uleb128 0x8
 2724 0111 3A       		.uleb128 0x3a
 2725 0112 0B       		.uleb128 0xb
 2726 0113 3B       		.uleb128 0x3b
 2727 0114 0B       		.uleb128 0xb
 2728 0115 6E       		.uleb128 0x6e
 2729 0116 08       		.uleb128 0x8
 2730 0117 49       		.uleb128 0x49
 2731 0118 13       		.uleb128 0x13
 2732 0119 32       		.uleb128 0x32
 2733 011a 0B       		.uleb128 0xb
 2734 011b 3C       		.uleb128 0x3c
 2735 011c 19       		.uleb128 0x19
 2736 011d 64       		.uleb128 0x64
 2737 011e 13       		.uleb128 0x13
 2738 011f 00       		.byte	0
 2739 0120 00       		.byte	0
 2740 0121 16       		.uleb128 0x16
 2741 0122 2E       		.uleb128 0x2e
 2742 0123 01       		.byte	0x1
 2743 0124 47       		.uleb128 0x47
 2744 0125 13       		.uleb128 0x13
 2745 0126 20       		.uleb128 0x20
 2746 0127 0B       		.uleb128 0xb
 2747 0128 64       		.uleb128 0x64
 2748 0129 13       		.uleb128 0x13
 2749 012a 01       		.uleb128 0x1
 2750 012b 13       		.uleb128 0x13
 2751 012c 00       		.byte	0
 2752 012d 00       		.byte	0
 2753 012e 17       		.uleb128 0x17
 2754 012f 05       		.uleb128 0x5
 2755 0130 00       		.byte	0
 2756 0131 03       		.uleb128 0x3
 2757 0132 08       		.uleb128 0x8
 2758 0133 49       		.uleb128 0x49
 2759 0134 13       		.uleb128 0x13
 2760 0135 34       		.uleb128 0x34
 2761 0136 19       		.uleb128 0x19
 2762 0137 00       		.byte	0
 2763 0138 00       		.byte	0
 2764 0139 18       		.uleb128 0x18
 2765 013a 26       		.uleb128 0x26
 2766 013b 00       		.byte	0
 2767 013c 49       		.uleb128 0x49
 2768 013d 13       		.uleb128 0x13
 2769 013e 00       		.byte	0
 2770 013f 00       		.byte	0
 2771 0140 19       		.uleb128 0x19
 2772 0141 2E       		.uleb128 0x2e
 2773 0142 01       		.byte	0x1
 2774 0143 3F       		.uleb128 0x3f
 2775 0144 19       		.uleb128 0x19
 2776 0145 03       		.uleb128 0x3
 2777 0146 08       		.uleb128 0x8
 2778 0147 3A       		.uleb128 0x3a
 2779 0148 0B       		.uleb128 0xb
 2780 0149 3B       		.uleb128 0x3b
 2781 014a 0B       		.uleb128 0xb
 2782 014b 49       		.uleb128 0x49
 2783 014c 13       		.uleb128 0x13
 2784 014d 20       		.uleb128 0x20
 2785 014e 0B       		.uleb128 0xb
 2786 014f 01       		.uleb128 0x1
 2787 0150 13       		.uleb128 0x13
 2788 0151 00       		.byte	0
 2789 0152 00       		.byte	0
 2790 0153 1A       		.uleb128 0x1a
 2791 0154 05       		.uleb128 0x5
 2792 0155 00       		.byte	0
 2793 0156 03       		.uleb128 0x3
 2794 0157 0E       		.uleb128 0xe
 2795 0158 3A       		.uleb128 0x3a
 2796 0159 0B       		.uleb128 0xb
 2797 015a 3B       		.uleb128 0x3b
 2798 015b 0B       		.uleb128 0xb
 2799 015c 49       		.uleb128 0x49
 2800 015d 13       		.uleb128 0x13
 2801 015e 00       		.byte	0
 2802 015f 00       		.byte	0
 2803 0160 1B       		.uleb128 0x1b
 2804 0161 2E       		.uleb128 0x2e
 2805 0162 01       		.byte	0x1
 2806 0163 03       		.uleb128 0x3
 2807 0164 08       		.uleb128 0x8
 2808 0165 3A       		.uleb128 0x3a
 2809 0166 0B       		.uleb128 0xb
 2810 0167 3B       		.uleb128 0x3b
 2811 0168 0B       		.uleb128 0xb
 2812 0169 49       		.uleb128 0x49
 2813 016a 13       		.uleb128 0x13
 2814 016b 20       		.uleb128 0x20
 2815 016c 0B       		.uleb128 0xb
 2816 016d 01       		.uleb128 0x1
 2817 016e 13       		.uleb128 0x13
 2818 016f 00       		.byte	0
 2819 0170 00       		.byte	0
 2820 0171 1C       		.uleb128 0x1c
 2821 0172 05       		.uleb128 0x5
 2822 0173 00       		.byte	0
 2823 0174 03       		.uleb128 0x3
 2824 0175 08       		.uleb128 0x8
 2825 0176 3A       		.uleb128 0x3a
 2826 0177 0B       		.uleb128 0xb
 2827 0178 3B       		.uleb128 0x3b
 2828 0179 0B       		.uleb128 0xb
 2829 017a 49       		.uleb128 0x49
 2830 017b 13       		.uleb128 0x13
 2831 017c 00       		.byte	0
 2832 017d 00       		.byte	0
 2833 017e 1D       		.uleb128 0x1d
 2834 017f 0B       		.uleb128 0xb
 2835 0180 01       		.byte	0x1
 2836 0181 00       		.byte	0
 2837 0182 00       		.byte	0
 2838 0183 1E       		.uleb128 0x1e
 2839 0184 34       		.uleb128 0x34
 2840 0185 00       		.byte	0
 2841 0186 03       		.uleb128 0x3
 2842 0187 08       		.uleb128 0x8
 2843 0188 3A       		.uleb128 0x3a
 2844 0189 0B       		.uleb128 0xb
 2845 018a 3B       		.uleb128 0x3b
 2846 018b 0B       		.uleb128 0xb
 2847 018c 49       		.uleb128 0x49
 2848 018d 13       		.uleb128 0x13
 2849 018e 00       		.byte	0
 2850 018f 00       		.byte	0
 2851 0190 1F       		.uleb128 0x1f
 2852 0191 34       		.uleb128 0x34
 2853 0192 00       		.byte	0
 2854 0193 03       		.uleb128 0x3
 2855 0194 0E       		.uleb128 0xe
 2856 0195 3A       		.uleb128 0x3a
 2857 0196 0B       		.uleb128 0xb
 2858 0197 3B       		.uleb128 0x3b
 2859 0198 0B       		.uleb128 0xb
 2860 0199 49       		.uleb128 0x49
 2861 019a 13       		.uleb128 0x13
 2862 019b 00       		.byte	0
 2863 019c 00       		.byte	0
 2864 019d 20       		.uleb128 0x20
 2865 019e 01       		.uleb128 0x1
 2866 019f 01       		.byte	0x1
 2867 01a0 49       		.uleb128 0x49
 2868 01a1 13       		.uleb128 0x13
 2869 01a2 01       		.uleb128 0x1
 2870 01a3 13       		.uleb128 0x13
 2871 01a4 00       		.byte	0
 2872 01a5 00       		.byte	0
 2873 01a6 21       		.uleb128 0x21
 2874 01a7 21       		.uleb128 0x21
 2875 01a8 00       		.byte	0
 2876 01a9 49       		.uleb128 0x49
 2877 01aa 13       		.uleb128 0x13
 2878 01ab 2F       		.uleb128 0x2f
 2879 01ac 0B       		.uleb128 0xb
 2880 01ad 00       		.byte	0
 2881 01ae 00       		.byte	0
 2882 01af 22       		.uleb128 0x22
 2883 01b0 2E       		.uleb128 0x2e
 2884 01b1 01       		.byte	0x1
 2885 01b2 31       		.uleb128 0x31
 2886 01b3 13       		.uleb128 0x13
 2887 01b4 6E       		.uleb128 0x6e
 2888 01b5 08       		.uleb128 0x8
 2889 01b6 11       		.uleb128 0x11
 2890 01b7 01       		.uleb128 0x1
 2891 01b8 12       		.uleb128 0x12
 2892 01b9 07       		.uleb128 0x7
 2893 01ba 40       		.uleb128 0x40
 2894 01bb 18       		.uleb128 0x18
 2895 01bc 9742     		.uleb128 0x2117
 2896 01be 19       		.uleb128 0x19
 2897 01bf 01       		.uleb128 0x1
 2898 01c0 13       		.uleb128 0x13
 2899 01c1 00       		.byte	0
 2900 01c2 00       		.byte	0
 2901 01c3 23       		.uleb128 0x23
 2902 01c4 05       		.uleb128 0x5
 2903 01c5 00       		.byte	0
 2904 01c6 31       		.uleb128 0x31
 2905 01c7 13       		.uleb128 0x13
 2906 01c8 02       		.uleb128 0x2
 2907 01c9 17       		.uleb128 0x17
 2908 01ca 00       		.byte	0
 2909 01cb 00       		.byte	0
 2910 01cc 24       		.uleb128 0x24
 2911 01cd 0B       		.uleb128 0xb
 2912 01ce 01       		.byte	0x1
 2913 01cf 55       		.uleb128 0x55
 2914 01d0 17       		.uleb128 0x17
 2915 01d1 00       		.byte	0
 2916 01d2 00       		.byte	0
 2917 01d3 25       		.uleb128 0x25
 2918 01d4 34       		.uleb128 0x34
 2919 01d5 00       		.byte	0
 2920 01d6 31       		.uleb128 0x31
 2921 01d7 13       		.uleb128 0x13
 2922 01d8 02       		.uleb128 0x2
 2923 01d9 17       		.uleb128 0x17
 2924 01da 00       		.byte	0
 2925 01db 00       		.byte	0
 2926 01dc 26       		.uleb128 0x26
 2927 01dd 34       		.uleb128 0x34
 2928 01de 00       		.byte	0
 2929 01df 31       		.uleb128 0x31
 2930 01e0 13       		.uleb128 0x13
 2931 01e1 00       		.byte	0
 2932 01e2 00       		.byte	0
 2933 01e3 27       		.uleb128 0x27
 2934 01e4 1D       		.uleb128 0x1d
 2935 01e5 01       		.byte	0x1
 2936 01e6 31       		.uleb128 0x31
 2937 01e7 13       		.uleb128 0x13
 2938 01e8 52       		.uleb128 0x52
 2939 01e9 01       		.uleb128 0x1
 2940 01ea 55       		.uleb128 0x55
 2941 01eb 17       		.uleb128 0x17
 2942 01ec 58       		.uleb128 0x58
 2943 01ed 0B       		.uleb128 0xb
 2944 01ee 59       		.uleb128 0x59
 2945 01ef 0B       		.uleb128 0xb
 2946 01f0 00       		.byte	0
 2947 01f1 00       		.byte	0
 2948 01f2 28       		.uleb128 0x28
 2949 01f3 34       		.uleb128 0x34
 2950 01f4 00       		.byte	0
 2951 01f5 31       		.uleb128 0x31
 2952 01f6 13       		.uleb128 0x13
 2953 01f7 02       		.uleb128 0x2
 2954 01f8 18       		.uleb128 0x18
 2955 01f9 00       		.byte	0
 2956 01fa 00       		.byte	0
 2957 01fb 29       		.uleb128 0x29
 2958 01fc 1D       		.uleb128 0x1d
 2959 01fd 01       		.byte	0x1
 2960 01fe 31       		.uleb128 0x31
 2961 01ff 13       		.uleb128 0x13
 2962 0200 52       		.uleb128 0x52
 2963 0201 01       		.uleb128 0x1
 2964 0202 55       		.uleb128 0x55
 2965 0203 17       		.uleb128 0x17
 2966 0204 58       		.uleb128 0x58
 2967 0205 0B       		.uleb128 0xb
 2968 0206 59       		.uleb128 0x59
 2969 0207 0B       		.uleb128 0xb
 2970 0208 01       		.uleb128 0x1
 2971 0209 13       		.uleb128 0x13
 2972 020a 00       		.byte	0
 2973 020b 00       		.byte	0
 2974 020c 2A       		.uleb128 0x2a
 2975 020d 1D       		.uleb128 0x1d
 2976 020e 01       		.byte	0x1
 2977 020f 31       		.uleb128 0x31
 2978 0210 13       		.uleb128 0x13
 2979 0211 11       		.uleb128 0x11
 2980 0212 01       		.uleb128 0x1
 2981 0213 12       		.uleb128 0x12
 2982 0214 07       		.uleb128 0x7
 2983 0215 58       		.uleb128 0x58
 2984 0216 0B       		.uleb128 0xb
 2985 0217 59       		.uleb128 0x59
 2986 0218 0B       		.uleb128 0xb
 2987 0219 01       		.uleb128 0x1
 2988 021a 13       		.uleb128 0x13
 2989 021b 00       		.byte	0
 2990 021c 00       		.byte	0
 2991 021d 2B       		.uleb128 0x2b
 2992 021e 05       		.uleb128 0x5
 2993 021f 00       		.byte	0
 2994 0220 31       		.uleb128 0x31
 2995 0221 13       		.uleb128 0x13
 2996 0222 00       		.byte	0
 2997 0223 00       		.byte	0
 2998 0224 2C       		.uleb128 0x2c
 2999 0225 0B       		.uleb128 0xb
 3000 0226 01       		.byte	0x1
 3001 0227 11       		.uleb128 0x11
 3002 0228 01       		.uleb128 0x1
 3003 0229 12       		.uleb128 0x12
 3004 022a 07       		.uleb128 0x7
 3005 022b 00       		.byte	0
 3006 022c 00       		.byte	0
 3007 022d 2D       		.uleb128 0x2d
 3008 022e 898201   		.uleb128 0x4109
 3009 0231 01       		.byte	0x1
 3010 0232 11       		.uleb128 0x11
 3011 0233 01       		.uleb128 0x1
 3012 0234 31       		.uleb128 0x31
 3013 0235 13       		.uleb128 0x13
 3014 0236 00       		.byte	0
 3015 0237 00       		.byte	0
 3016 0238 2E       		.uleb128 0x2e
 3017 0239 8A8201   		.uleb128 0x410a
 3018 023c 00       		.byte	0
 3019 023d 02       		.uleb128 0x2
 3020 023e 18       		.uleb128 0x18
 3021 023f 9142     		.uleb128 0x2111
 3022 0241 18       		.uleb128 0x18
 3023 0242 00       		.byte	0
 3024 0243 00       		.byte	0
 3025 0244 2F       		.uleb128 0x2f
 3026 0245 2E       		.uleb128 0x2e
 3027 0246 01       		.byte	0x1
 3028 0247 3F       		.uleb128 0x3f
 3029 0248 19       		.uleb128 0x19
 3030 0249 03       		.uleb128 0x3
 3031 024a 08       		.uleb128 0x8
 3032 024b 3A       		.uleb128 0x3a
 3033 024c 0B       		.uleb128 0xb
 3034 024d 3B       		.uleb128 0x3b
 3035 024e 0B       		.uleb128 0xb
 3036 024f 20       		.uleb128 0x20
 3037 0250 0B       		.uleb128 0xb
 3038 0251 01       		.uleb128 0x1
 3039 0252 13       		.uleb128 0x13
 3040 0253 00       		.byte	0
 3041 0254 00       		.byte	0
 3042 0255 30       		.uleb128 0x30
 3043 0256 05       		.uleb128 0x5
 3044 0257 00       		.byte	0
 3045 0258 31       		.uleb128 0x31
 3046 0259 13       		.uleb128 0x13
 3047 025a 02       		.uleb128 0x2
 3048 025b 18       		.uleb128 0x18
 3049 025c 00       		.byte	0
 3050 025d 00       		.byte	0
 3051 025e 31       		.uleb128 0x31
 3052 025f 2E       		.uleb128 0x2e
 3053 0260 01       		.byte	0x1
 3054 0261 3F       		.uleb128 0x3f
 3055 0262 19       		.uleb128 0x19
 3056 0263 03       		.uleb128 0x3
 3057 0264 08       		.uleb128 0x8
 3058 0265 3A       		.uleb128 0x3a
 3059 0266 0B       		.uleb128 0xb
 3060 0267 3B       		.uleb128 0x3b
 3061 0268 0B       		.uleb128 0xb
 3062 0269 6E       		.uleb128 0x6e
 3063 026a 08       		.uleb128 0x8
 3064 026b 11       		.uleb128 0x11
 3065 026c 01       		.uleb128 0x1
 3066 026d 12       		.uleb128 0x12
 3067 026e 07       		.uleb128 0x7
 3068 026f 40       		.uleb128 0x40
 3069 0270 18       		.uleb128 0x18
 3070 0271 9742     		.uleb128 0x2117
 3071 0273 19       		.uleb128 0x19
 3072 0274 01       		.uleb128 0x1
 3073 0275 13       		.uleb128 0x13
 3074 0276 00       		.byte	0
 3075 0277 00       		.byte	0
 3076 0278 32       		.uleb128 0x32
 3077 0279 05       		.uleb128 0x5
 3078 027a 00       		.byte	0
 3079 027b 03       		.uleb128 0x3
 3080 027c 0E       		.uleb128 0xe
 3081 027d 3A       		.uleb128 0x3a
 3082 027e 0B       		.uleb128 0xb
 3083 027f 3B       		.uleb128 0x3b
 3084 0280 0B       		.uleb128 0xb
 3085 0281 49       		.uleb128 0x49
 3086 0282 13       		.uleb128 0x13
 3087 0283 02       		.uleb128 0x2
 3088 0284 17       		.uleb128 0x17
 3089 0285 00       		.byte	0
 3090 0286 00       		.byte	0
 3091 0287 33       		.uleb128 0x33
 3092 0288 05       		.uleb128 0x5
 3093 0289 00       		.byte	0
 3094 028a 03       		.uleb128 0x3
 3095 028b 08       		.uleb128 0x8
 3096 028c 3A       		.uleb128 0x3a
 3097 028d 0B       		.uleb128 0xb
 3098 028e 3B       		.uleb128 0x3b
 3099 028f 0B       		.uleb128 0xb
 3100 0290 49       		.uleb128 0x49
 3101 0291 13       		.uleb128 0x13
 3102 0292 02       		.uleb128 0x2
 3103 0293 17       		.uleb128 0x17
 3104 0294 00       		.byte	0
 3105 0295 00       		.byte	0
 3106 0296 34       		.uleb128 0x34
 3107 0297 1D       		.uleb128 0x1d
 3108 0298 01       		.byte	0x1
 3109 0299 31       		.uleb128 0x31
 3110 029a 13       		.uleb128 0x13
 3111 029b 11       		.uleb128 0x11
 3112 029c 01       		.uleb128 0x1
 3113 029d 12       		.uleb128 0x12
 3114 029e 07       		.uleb128 0x7
 3115 029f 58       		.uleb128 0x58
 3116 02a0 0B       		.uleb128 0xb
 3117 02a1 59       		.uleb128 0x59
 3118 02a2 0B       		.uleb128 0xb
 3119 02a3 00       		.byte	0
 3120 02a4 00       		.byte	0
 3121 02a5 35       		.uleb128 0x35
 3122 02a6 898201   		.uleb128 0x4109
 3123 02a9 01       		.byte	0x1
 3124 02aa 11       		.uleb128 0x11
 3125 02ab 01       		.uleb128 0x1
 3126 02ac 9542     		.uleb128 0x2115
 3127 02ae 19       		.uleb128 0x19
 3128 02af 31       		.uleb128 0x31
 3129 02b0 13       		.uleb128 0x13
 3130 02b1 00       		.byte	0
 3131 02b2 00       		.byte	0
 3132 02b3 36       		.uleb128 0x36
 3133 02b4 2E       		.uleb128 0x2e
 3134 02b5 01       		.byte	0x1
 3135 02b6 3F       		.uleb128 0x3f
 3136 02b7 19       		.uleb128 0x19
 3137 02b8 03       		.uleb128 0x3
 3138 02b9 08       		.uleb128 0x8
 3139 02ba 3A       		.uleb128 0x3a
 3140 02bb 0B       		.uleb128 0xb
 3141 02bc 3B       		.uleb128 0x3b
 3142 02bd 0B       		.uleb128 0xb
 3143 02be 49       		.uleb128 0x49
 3144 02bf 13       		.uleb128 0x13
 3145 02c0 11       		.uleb128 0x11
 3146 02c1 01       		.uleb128 0x1
 3147 02c2 12       		.uleb128 0x12
 3148 02c3 07       		.uleb128 0x7
 3149 02c4 40       		.uleb128 0x40
 3150 02c5 18       		.uleb128 0x18
 3151 02c6 9642     		.uleb128 0x2116
 3152 02c8 19       		.uleb128 0x19
 3153 02c9 01       		.uleb128 0x1
 3154 02ca 13       		.uleb128 0x13
 3155 02cb 00       		.byte	0
 3156 02cc 00       		.byte	0
 3157 02cd 37       		.uleb128 0x37
 3158 02ce 34       		.uleb128 0x34
 3159 02cf 00       		.byte	0
 3160 02d0 03       		.uleb128 0x3
 3161 02d1 08       		.uleb128 0x8
 3162 02d2 3A       		.uleb128 0x3a
 3163 02d3 0B       		.uleb128 0xb
 3164 02d4 3B       		.uleb128 0x3b
 3165 02d5 0B       		.uleb128 0xb
 3166 02d6 49       		.uleb128 0x49
 3167 02d7 13       		.uleb128 0x13
 3168 02d8 1C       		.uleb128 0x1c
 3169 02d9 05       		.uleb128 0x5
 3170 02da 00       		.byte	0
 3171 02db 00       		.byte	0
 3172 02dc 38       		.uleb128 0x38
 3173 02dd 34       		.uleb128 0x34
 3174 02de 00       		.byte	0
 3175 02df 03       		.uleb128 0x3
 3176 02e0 08       		.uleb128 0x8
 3177 02e1 3A       		.uleb128 0x3a
 3178 02e2 0B       		.uleb128 0xb
 3179 02e3 3B       		.uleb128 0x3b
 3180 02e4 0B       		.uleb128 0xb
 3181 02e5 49       		.uleb128 0x49
 3182 02e6 13       		.uleb128 0x13
 3183 02e7 1C       		.uleb128 0x1c
 3184 02e8 07       		.uleb128 0x7
 3185 02e9 00       		.byte	0
 3186 02ea 00       		.byte	0
 3187 02eb 39       		.uleb128 0x39
 3188 02ec 34       		.uleb128 0x34
 3189 02ed 00       		.byte	0
 3190 02ee 03       		.uleb128 0x3
 3191 02ef 08       		.uleb128 0x8
 3192 02f0 3A       		.uleb128 0x3a
 3193 02f1 0B       		.uleb128 0xb
 3194 02f2 3B       		.uleb128 0x3b
 3195 02f3 0B       		.uleb128 0xb
 3196 02f4 49       		.uleb128 0x49
 3197 02f5 13       		.uleb128 0x13
 3198 02f6 02       		.uleb128 0x2
 3199 02f7 18       		.uleb128 0x18
 3200 02f8 00       		.byte	0
 3201 02f9 00       		.byte	0
 3202 02fa 3A       		.uleb128 0x3a
 3203 02fb 34       		.uleb128 0x34
 3204 02fc 00       		.byte	0
 3205 02fd 03       		.uleb128 0x3
 3206 02fe 08       		.uleb128 0x8
 3207 02ff 3A       		.uleb128 0x3a
 3208 0300 0B       		.uleb128 0xb
 3209 0301 3B       		.uleb128 0x3b
 3210 0302 0B       		.uleb128 0xb
 3211 0303 49       		.uleb128 0x49
 3212 0304 13       		.uleb128 0x13
 3213 0305 02       		.uleb128 0x2
 3214 0306 17       		.uleb128 0x17
 3215 0307 00       		.byte	0
 3216 0308 00       		.byte	0
 3217 0309 3B       		.uleb128 0x3b
 3218 030a 898201   		.uleb128 0x4109
 3219 030d 01       		.byte	0x1
 3220 030e 11       		.uleb128 0x11
 3221 030f 01       		.uleb128 0x1
 3222 0310 9342     		.uleb128 0x2113
 3223 0312 18       		.uleb128 0x18
 3224 0313 00       		.byte	0
 3225 0314 00       		.byte	0
 3226 0315 3C       		.uleb128 0x3c
 3227 0316 898201   		.uleb128 0x4109
 3228 0319 01       		.byte	0x1
 3229 031a 11       		.uleb128 0x11
 3230 031b 01       		.uleb128 0x1
 3231 031c 00       		.byte	0
 3232 031d 00       		.byte	0
 3233 031e 3D       		.uleb128 0x3d
 3234 031f 0B       		.uleb128 0xb
 3235 0320 01       		.byte	0x1
 3236 0321 55       		.uleb128 0x55
 3237 0322 17       		.uleb128 0x17
 3238 0323 01       		.uleb128 0x1
 3239 0324 13       		.uleb128 0x13
 3240 0325 00       		.byte	0
 3241 0326 00       		.byte	0
 3242 0327 3E       		.uleb128 0x3e
 3243 0328 05       		.uleb128 0x5
 3244 0329 00       		.byte	0
 3245 032a 31       		.uleb128 0x31
 3246 032b 13       		.uleb128 0x13
 3247 032c 1C       		.uleb128 0x1c
 3248 032d 05       		.uleb128 0x5
 3249 032e 00       		.byte	0
 3250 032f 00       		.byte	0
 3251 0330 3F       		.uleb128 0x3f
 3252 0331 898201   		.uleb128 0x4109
 3253 0334 01       		.byte	0x1
 3254 0335 11       		.uleb128 0x11
 3255 0336 01       		.uleb128 0x1
 3256 0337 31       		.uleb128 0x31
 3257 0338 13       		.uleb128 0x13
 3258 0339 01       		.uleb128 0x1
 3259 033a 13       		.uleb128 0x13
 3260 033b 00       		.byte	0
 3261 033c 00       		.byte	0
 3262 033d 40       		.uleb128 0x40
 3263 033e 21       		.uleb128 0x21
 3264 033f 00       		.byte	0
 3265 0340 49       		.uleb128 0x49
 3266 0341 13       		.uleb128 0x13
 3267 0342 2F       		.uleb128 0x2f
 3268 0343 05       		.uleb128 0x5
 3269 0344 00       		.byte	0
 3270 0345 00       		.byte	0
 3271 0346 41       		.uleb128 0x41
 3272 0347 2E       		.uleb128 0x2e
 3273 0348 01       		.byte	0x1
 3274 0349 3F       		.uleb128 0x3f
 3275 034a 19       		.uleb128 0x19
 3276 034b 03       		.uleb128 0x3
 3277 034c 08       		.uleb128 0x8
 3278 034d 49       		.uleb128 0x49
 3279 034e 13       		.uleb128 0x13
 3280 034f 34       		.uleb128 0x34
 3281 0350 19       		.uleb128 0x19
 3282 0351 3C       		.uleb128 0x3c
 3283 0352 19       		.uleb128 0x19
 3284 0353 01       		.uleb128 0x1
 3285 0354 13       		.uleb128 0x13
 3286 0355 00       		.byte	0
 3287 0356 00       		.byte	0
 3288 0357 42       		.uleb128 0x42
 3289 0358 05       		.uleb128 0x5
 3290 0359 00       		.byte	0
 3291 035a 49       		.uleb128 0x49
 3292 035b 13       		.uleb128 0x13
 3293 035c 00       		.byte	0
 3294 035d 00       		.byte	0
 3295 035e 43       		.uleb128 0x43
 3296 035f 2E       		.uleb128 0x2e
 3297 0360 01       		.byte	0x1
 3298 0361 3F       		.uleb128 0x3f
 3299 0362 19       		.uleb128 0x19
 3300 0363 03       		.uleb128 0x3
 3301 0364 08       		.uleb128 0x8
 3302 0365 3A       		.uleb128 0x3a
 3303 0366 0B       		.uleb128 0xb
 3304 0367 3B       		.uleb128 0x3b
 3305 0368 05       		.uleb128 0x5
 3306 0369 49       		.uleb128 0x49
 3307 036a 13       		.uleb128 0x13
 3308 036b 3C       		.uleb128 0x3c
 3309 036c 19       		.uleb128 0x19
 3310 036d 00       		.byte	0
 3311 036e 00       		.byte	0
 3312 036f 44       		.uleb128 0x44
 3313 0370 18       		.uleb128 0x18
 3314 0371 00       		.byte	0
 3315 0372 00       		.byte	0
 3316 0373 00       		.byte	0
 3317 0374 00       		.byte	0
 3318              		.section	.debug_loc,"dr"
 3319              	.Ldebug_loc0:
 3320              	.LLST0:
 3321 0000 00000000 		.quad	.LVL0
 3321      00000000 
 3322 0008 70000000 		.quad	.LVL4
 3322      00000000 
 3323 0010 0100     		.word	0x1
 3324 0012 52       		.byte	0x52
 3325 0013 70000000 		.quad	.LVL4
 3325      00000000 
 3326 001b 08020000 		.quad	.LVL28
 3326      00000000 
 3327 0023 0400     		.word	0x4
 3328 0025 F3       		.byte	0xf3
 3329 0026 01       		.uleb128 0x1
 3330 0027 52       		.byte	0x52
 3331 0028 9F       		.byte	0x9f
 3332 0029 08020000 		.quad	.LVL28
 3332      00000000 
 3333 0031 0F020000 		.quad	.LFE3007
 3333      00000000 
 3334 0039 0100     		.word	0x1
 3335 003b 52       		.byte	0x52
 3336 003c 00000000 		.quad	0
 3336      00000000 
 3337 0044 00000000 		.quad	0
 3337      00000000 
 3338              	.LLST1:
 3339 004c 00000000 		.quad	.LVL0
 3339      00000000 
 3340 0054 70000000 		.quad	.LVL4
 3340      00000000 
 3341 005c 0100     		.word	0x1
 3342 005e 51       		.byte	0x51
 3343 005f 70000000 		.quad	.LVL4
 3343      00000000 
 3344 0067 08020000 		.quad	.LVL28
 3344      00000000 
 3345 006f 0400     		.word	0x4
 3346 0071 F3       		.byte	0xf3
 3347 0072 01       		.uleb128 0x1
 3348 0073 51       		.byte	0x51
 3349 0074 9F       		.byte	0x9f
 3350 0075 08020000 		.quad	.LVL28
 3350      00000000 
 3351 007d 0F020000 		.quad	.LFE3007
 3351      00000000 
 3352 0085 0100     		.word	0x1
 3353 0087 51       		.byte	0x51
 3354 0088 00000000 		.quad	0
 3354      00000000 
 3355 0090 00000000 		.quad	0
 3355      00000000 
 3356              	.LLST2:
 3357 0098 00000000 		.quad	.LVL0
 3357      00000000 
 3358 00a0 70000000 		.quad	.LVL4
 3358      00000000 
 3359 00a8 0100     		.word	0x1
 3360 00aa 58       		.byte	0x58
 3361 00ab 70000000 		.quad	.LVL4
 3361      00000000 
 3362 00b3 43010000 		.quad	.LVL23
 3362      00000000 
 3363 00bb 0100     		.word	0x1
 3364 00bd 54       		.byte	0x54
 3365 00be 43010000 		.quad	.LVL23
 3365      00000000 
 3366 00c6 4E010000 		.quad	.LVL24
 3366      00000000 
 3367 00ce 0400     		.word	0x4
 3368 00d0 F3       		.byte	0xf3
 3369 00d1 01       		.uleb128 0x1
 3370 00d2 58       		.byte	0x58
 3371 00d3 9F       		.byte	0x9f
 3372 00d4 4E010000 		.quad	.LVL24
 3372      00000000 
 3373 00dc 0F020000 		.quad	.LFE3007
 3373      00000000 
 3374 00e4 0100     		.word	0x1
 3375 00e6 54       		.byte	0x54
 3376 00e7 00000000 		.quad	0
 3376      00000000 
 3377 00ef 00000000 		.quad	0
 3377      00000000 
 3378              	.LLST3:
 3379 00f7 15000000 		.quad	.LVL1
 3379      00000000 
 3380 00ff 70000000 		.quad	.LVL4
 3380      00000000 
 3381 0107 0200     		.word	0x2
 3382 0109 30       		.byte	0x30
 3383 010a 9F       		.byte	0x9f
 3384 010b 70000000 		.quad	.LVL4
 3384      00000000 
 3385 0113 35010000 		.quad	.LVL20
 3385      00000000 
 3386 011b 0100     		.word	0x1
 3387 011d 5E       		.byte	0x5e
 3388 011e 4E010000 		.quad	.LVL24
 3388      00000000 
 3389 0126 08020000 		.quad	.LVL28
 3389      00000000 
 3390 012e 0100     		.word	0x1
 3391 0130 5E       		.byte	0x5e
 3392 0131 08020000 		.quad	.LVL28
 3392      00000000 
 3393 0139 0F020000 		.quad	.LFE3007
 3393      00000000 
 3394 0141 0200     		.word	0x2
 3395 0143 30       		.byte	0x30
 3396 0144 9F       		.byte	0x9f
 3397 0145 00000000 		.quad	0
 3397      00000000 
 3398 014d 00000000 		.quad	0
 3398      00000000 
 3399              	.LLST4:
 3400 0155 15000000 		.quad	.LVL1
 3400      00000000 
 3401 015d 70000000 		.quad	.LVL4
 3401      00000000 
 3402 0165 0200     		.word	0x2
 3403 0167 30       		.byte	0x30
 3404 0168 9F       		.byte	0x9f
 3405 0169 70000000 		.quad	.LVL4
 3405      00000000 
 3406 0171 0B010000 		.quad	.LVL16
 3406      00000000 
 3407 0179 0100     		.word	0x1
 3408 017b 56       		.byte	0x56
 3409 017c 0B010000 		.quad	.LVL16
 3409      00000000 
 3410 0184 1D010000 		.quad	.LVL18
 3410      00000000 
 3411 018c 0300     		.word	0x3
 3412 018e 76       		.byte	0x76
 3413 018f 7F       		.sleb128 -1
 3414 0190 9F       		.byte	0x9f
 3415 0191 1D010000 		.quad	.LVL18
 3415      00000000 
 3416 0199 38010000 		.quad	.LVL21
 3416      00000000 
 3417 01a1 0100     		.word	0x1
 3418 01a3 56       		.byte	0x56
 3419 01a4 4E010000 		.quad	.LVL24
 3419      00000000 
 3420 01ac 08020000 		.quad	.LVL28
 3420      00000000 
 3421 01b4 0100     		.word	0x1
 3422 01b6 56       		.byte	0x56
 3423 01b7 08020000 		.quad	.LVL28
 3423      00000000 
 3424 01bf 0F020000 		.quad	.LFE3007
 3424      00000000 
 3425 01c7 0200     		.word	0x2
 3426 01c9 30       		.byte	0x30
 3427 01ca 9F       		.byte	0x9f
 3428 01cb 00000000 		.quad	0
 3428      00000000 
 3429 01d3 00000000 		.quad	0
 3429      00000000 
 3430              	.LLST5:
 3431 01db 15000000 		.quad	.LVL1
 3431      00000000 
 3432 01e3 70000000 		.quad	.LVL4
 3432      00000000 
 3433 01eb 0100     		.word	0x1
 3434 01ed 52       		.byte	0x52
 3435 01ee 70000000 		.quad	.LVL4
 3435      00000000 
 3436 01f6 42010000 		.quad	.LVL22
 3436      00000000 
 3437 01fe 0100     		.word	0x1
 3438 0200 53       		.byte	0x53
 3439 0201 4E010000 		.quad	.LVL24
 3439      00000000 
 3440 0209 08020000 		.quad	.LVL28
 3440      00000000 
 3441 0211 0100     		.word	0x1
 3442 0213 53       		.byte	0x53
 3443 0214 08020000 		.quad	.LVL28
 3443      00000000 
 3444 021c 0F020000 		.quad	.LFE3007
 3444      00000000 
 3445 0224 0100     		.word	0x1
 3446 0226 52       		.byte	0x52
 3447 0227 00000000 		.quad	0
 3447      00000000 
 3448 022f 00000000 		.quad	0
 3448      00000000 
 3449              	.LLST6:
 3450 0237 27000000 		.quad	.LVL2
 3450      00000000 
 3451 023f 5F000000 		.quad	.LVL3
 3451      00000000 
 3452 0247 0100     		.word	0x1
 3453 0249 50       		.byte	0x50
 3454 024a 5F000000 		.quad	.LVL3
 3454      00000000 
 3455 0252 08020000 		.quad	.LVL28
 3455      00000000 
 3456 025a 0300     		.word	0x3
 3457 025c 91       		.byte	0x91
 3458 025d 807F     		.sleb128 -128
 3459 025f 08020000 		.quad	.LVL28
 3459      00000000 
 3460 0267 0A020000 		.quad	.LVL29
 3460      00000000 
 3461 026f 0100     		.word	0x1
 3462 0271 50       		.byte	0x50
 3463 0272 0A020000 		.quad	.LVL29
 3463      00000000 
 3464 027a 0F020000 		.quad	.LFE3007
 3464      00000000 
 3465 0282 0300     		.word	0x3
 3466 0284 91       		.byte	0x91
 3467 0285 807F     		.sleb128 -128
 3468 0287 00000000 		.quad	0
 3468      00000000 
 3469 028f 00000000 		.quad	0
 3469      00000000 
 3470              	.LLST7:
 3471 0297 70000000 		.quad	.LVL4
 3471      00000000 
 3472 029f 38010000 		.quad	.LVL21
 3472      00000000 
 3473 02a7 0100     		.word	0x1
 3474 02a9 5F       		.byte	0x5f
 3475 02aa 4E010000 		.quad	.LVL24
 3475      00000000 
 3476 02b2 08020000 		.quad	.LVL28
 3476      00000000 
 3477 02ba 0100     		.word	0x1
 3478 02bc 5F       		.byte	0x5f
 3479 02bd 00000000 		.quad	0
 3479      00000000 
 3480 02c5 00000000 		.quad	0
 3480      00000000 
 3481              	.LLST8:
 3482 02cd 70000000 		.quad	.LVL4
 3482      00000000 
 3483 02d5 38010000 		.quad	.LVL21
 3483      00000000 
 3484 02dd 0100     		.word	0x1
 3485 02df 54       		.byte	0x54
 3486 02e0 4E010000 		.quad	.LVL24
 3486      00000000 
 3487 02e8 08020000 		.quad	.LVL28
 3487      00000000 
 3488 02f0 0100     		.word	0x1
 3489 02f2 54       		.byte	0x54
 3490 02f3 00000000 		.quad	0
 3490      00000000 
 3491 02fb 00000000 		.quad	0
 3491      00000000 
 3492              	.LLST10:
 3493 0303 70000000 		.quad	.LVL4
 3493      00000000 
 3494 030b 0E010000 		.quad	.LVL17
 3494      00000000 
 3495 0313 0100     		.word	0x1
 3496 0315 53       		.byte	0x53
 3497 0316 4E010000 		.quad	.LVL24
 3497      00000000 
 3498 031e 08020000 		.quad	.LVL28
 3498      00000000 
 3499 0326 0100     		.word	0x1
 3500 0328 53       		.byte	0x53
 3501 0329 00000000 		.quad	0
 3501      00000000 
 3502 0331 00000000 		.quad	0
 3502      00000000 
 3503              	.LLST12:
 3504 0339 7D000000 		.quad	.LVL5
 3504      00000000 
 3505 0341 05010000 		.quad	.LVL15
 3505      00000000 
 3506 0349 0800     		.word	0x8
 3507 034b 7F       		.byte	0x7f
 3508 034c 00       		.sleb128 0
 3509 034d 32       		.byte	0x32
 3510 034e 25       		.byte	0x25
 3511 034f 09       		.byte	0x9
 3512 0350 FE       		.byte	0xfe
 3513 0351 1A       		.byte	0x1a
 3514 0352 9F       		.byte	0x9f
 3515 0353 E5010000 		.quad	.LVL26
 3515      00000000 
 3516 035b 08020000 		.quad	.LVL28
 3516      00000000 
 3517 0363 0800     		.word	0x8
 3518 0365 7F       		.byte	0x7f
 3519 0366 00       		.sleb128 0
 3520 0367 32       		.byte	0x32
 3521 0368 25       		.byte	0x25
 3522 0369 09       		.byte	0x9
 3523 036a FE       		.byte	0xfe
 3524 036b 1A       		.byte	0x1a
 3525 036c 9F       		.byte	0x9f
 3526 036d 00000000 		.quad	0
 3526      00000000 
 3527 0375 00000000 		.quad	0
 3527      00000000 
 3528              	.LLST13:
 3529 037d 91000000 		.quad	.LVL6
 3529      00000000 
 3530 0385 99000000 		.quad	.LVL7-1
 3530      00000000 
 3531 038d 0600     		.word	0x6
 3532 038f 7F       		.byte	0x7f
 3533 0390 00       		.sleb128 0
 3534 0391 70       		.byte	0x70
 3535 0392 00       		.sleb128 0
 3536 0393 1C       		.byte	0x1c
 3537 0394 9F       		.byte	0x9f
 3538 0395 99000000 		.quad	.LVL7-1
 3538      00000000 
 3539 039d 05010000 		.quad	.LVL15
 3539      00000000 
 3540 03a5 0800     		.word	0x8
 3541 03a7 7F       		.byte	0x7f
 3542 03a8 00       		.sleb128 0
 3543 03a9 91       		.byte	0x91
 3544 03aa 887F     		.sleb128 -120
 3545 03ac 06       		.byte	0x6
 3546 03ad 1C       		.byte	0x1c
 3547 03ae 9F       		.byte	0x9f
 3548 03af E5010000 		.quad	.LVL26
 3548      00000000 
 3549 03b7 08020000 		.quad	.LVL28
 3549      00000000 
 3550 03bf 0800     		.word	0x8
 3551 03c1 7F       		.byte	0x7f
 3552 03c2 00       		.sleb128 0
 3553 03c3 91       		.byte	0x91
 3554 03c4 887F     		.sleb128 -120
 3555 03c6 06       		.byte	0x6
 3556 03c7 1C       		.byte	0x1c
 3557 03c8 9F       		.byte	0x9f
 3558 03c9 00000000 		.quad	0
 3558      00000000 
 3559 03d1 00000000 		.quad	0
 3559      00000000 
 3560              	.LLST14:
 3561 03d9 A6000000 		.quad	.LVL8
 3561      00000000 
 3562 03e1 05010000 		.quad	.LVL15
 3562      00000000 
 3563 03e9 0100     		.word	0x1
 3564 03eb 54       		.byte	0x54
 3565 03ec E5010000 		.quad	.LVL26
 3565      00000000 
 3566 03f4 08020000 		.quad	.LVL28
 3566      00000000 
 3567 03fc 0100     		.word	0x1
 3568 03fe 54       		.byte	0x54
 3569 03ff 00000000 		.quad	0
 3569      00000000 
 3570 0407 00000000 		.quad	0
 3570      00000000 
 3571              	.LLST15:
 3572 040f A6000000 		.quad	.LVL8
 3572      00000000 
 3573 0417 B3000000 		.quad	.LVL9
 3573      00000000 
 3574 041f 0400     		.word	0x4
 3575 0421 91       		.byte	0x91
 3576 0422 907F     		.sleb128 -112
 3577 0424 9F       		.byte	0x9f
 3578 0425 E5010000 		.quad	.LVL26
 3578      00000000 
 3579 042d F7010000 		.quad	.LVL27
 3579      00000000 
 3580 0435 0200     		.word	0x2
 3581 0437 30       		.byte	0x30
 3582 0438 9F       		.byte	0x9f
 3583 0439 F7010000 		.quad	.LVL27
 3583      00000000 
 3584 0441 08020000 		.quad	.LVL28
 3584      00000000 
 3585 0449 0400     		.word	0x4
 3586 044b 91       		.byte	0x91
 3587 044c 907F     		.sleb128 -112
 3588 044e 9F       		.byte	0x9f
 3589 044f 00000000 		.quad	0
 3589      00000000 
 3590 0457 00000000 		.quad	0
 3590      00000000 
 3591              	.LLST16:
 3592 045f A6000000 		.quad	.LVL8
 3592      00000000 
 3593 0467 05010000 		.quad	.LVL15
 3593      00000000 
 3594 046f 0800     		.word	0x8
 3595 0471 7F       		.byte	0x7f
 3596 0472 00       		.sleb128 0
 3597 0473 32       		.byte	0x32
 3598 0474 25       		.byte	0x25
 3599 0475 09       		.byte	0x9
 3600 0476 FE       		.byte	0xfe
 3601 0477 1A       		.byte	0x1a
 3602 0478 9F       		.byte	0x9f
 3603 0479 E5010000 		.quad	.LVL26
 3603      00000000 
 3604 0481 08020000 		.quad	.LVL28
 3604      00000000 
 3605 0489 0800     		.word	0x8
 3606 048b 7F       		.byte	0x7f
 3607 048c 00       		.sleb128 0
 3608 048d 32       		.byte	0x32
 3609 048e 25       		.byte	0x25
 3610 048f 09       		.byte	0x9
 3611 0490 FE       		.byte	0xfe
 3612 0491 1A       		.byte	0x1a
 3613 0492 9F       		.byte	0x9f
 3614 0493 00000000 		.quad	0
 3614      00000000 
 3615 049b 00000000 		.quad	0
 3615      00000000 
 3616              	.LLST17:
 3617 04a3 A6000000 		.quad	.LVL8
 3617      00000000 
 3618 04ab 05010000 		.quad	.LVL15
 3618      00000000 
 3619 04b3 0100     		.word	0x1
 3620 04b5 53       		.byte	0x53
 3621 04b6 E5010000 		.quad	.LVL26
 3621      00000000 
 3622 04be 08020000 		.quad	.LVL28
 3622      00000000 
 3623 04c6 0100     		.word	0x1
 3624 04c8 53       		.byte	0x53
 3625 04c9 00000000 		.quad	0
 3625      00000000 
 3626 04d1 00000000 		.quad	0
 3626      00000000 
 3627              	.LLST18:
 3628 04d9 A6000000 		.quad	.LVL8
 3628      00000000 
 3629 04e1 B3000000 		.quad	.LVL9
 3629      00000000 
 3630 04e9 0200     		.word	0x2
 3631 04eb 30       		.byte	0x30
 3632 04ec 9F       		.byte	0x9f
 3633 04ed B3000000 		.quad	.LVL9
 3633      00000000 
 3634 04f5 E5000000 		.quad	.LVL12
 3634      00000000 
 3635 04fd 0100     		.word	0x1
 3636 04ff 51       		.byte	0x51
 3637 0500 E5000000 		.quad	.LVL12
 3637      00000000 
 3638 0508 EC000000 		.quad	.LVL13
 3638      00000000 
 3639 0510 2900     		.word	0x29
 3640 0512 74       		.byte	0x74
 3641 0513 00       		.sleb128 0
 3642 0514 7B       		.byte	0x7b
 3643 0515 00       		.sleb128 0
 3644 0516 22       		.byte	0x22
 3645 0517 94       		.byte	0x94
 3646 0518 04       		.byte	0x4
 3647 0519 78       		.byte	0x78
 3648 051a 04       		.sleb128 4
 3649 051b 94       		.byte	0x94
 3650 051c 04       		.byte	0x4
 3651 051d 22       		.byte	0x22
 3652 051e 0C       		.byte	0xc
 3653 051f FFFFFFFF 		.long	0xffffffff
 3654 0523 1A       		.byte	0x1a
 3655 0524 74       		.byte	0x74
 3656 0525 00       		.sleb128 0
 3657 0526 70       		.byte	0x70
 3658 0527 00       		.sleb128 0
 3659 0528 22       		.byte	0x22
 3660 0529 94       		.byte	0x94
 3661 052a 04       		.byte	0x4
 3662 052b 78       		.byte	0x78
 3663 052c 00       		.sleb128 0
 3664 052d 94       		.byte	0x94
 3665 052e 04       		.byte	0x4
 3666 052f 22       		.byte	0x22
 3667 0530 0C       		.byte	0xc
 3668 0531 FFFFFFFF 		.long	0xffffffff
 3669 0535 1A       		.byte	0x1a
 3670 0536 1E       		.byte	0x1e
 3671 0537 71       		.byte	0x71
 3672 0538 00       		.sleb128 0
 3673 0539 22       		.byte	0x22
 3674 053a 9F       		.byte	0x9f
 3675 053b EC000000 		.quad	.LVL13
 3675      00000000 
 3676 0543 F0000000 		.quad	.LVL14
 3676      00000000 
 3677 054b 2500     		.word	0x25
 3678 054d 74       		.byte	0x74
 3679 054e 00       		.sleb128 0
 3680 054f 7B       		.byte	0x7b
 3681 0550 00       		.sleb128 0
 3682 0551 22       		.byte	0x22
 3683 0552 94       		.byte	0x94
 3684 0553 04       		.byte	0x4
 3685 0554 72       		.byte	0x72
 3686 0555 00       		.sleb128 0
 3687 0556 22       		.byte	0x22
 3688 0557 0C       		.byte	0xc
 3689 0558 FFFFFFFF 		.long	0xffffffff
 3690 055c 1A       		.byte	0x1a
 3691 055d 74       		.byte	0x74
 3692 055e 00       		.sleb128 0
 3693 055f 70       		.byte	0x70
 3694 0560 00       		.sleb128 0
 3695 0561 22       		.byte	0x22
 3696 0562 94       		.byte	0x94
 3697 0563 04       		.byte	0x4
 3698 0564 78       		.byte	0x78
 3699 0565 00       		.sleb128 0
 3700 0566 22       		.byte	0x22
 3701 0567 0C       		.byte	0xc
 3702 0568 FFFFFFFF 		.long	0xffffffff
 3703 056c 1A       		.byte	0x1a
 3704 056d 1E       		.byte	0x1e
 3705 056e 71       		.byte	0x71
 3706 056f 00       		.sleb128 0
 3707 0570 22       		.byte	0x22
 3708 0571 9F       		.byte	0x9f
 3709 0572 E5010000 		.quad	.LVL26
 3709      00000000 
 3710 057a 08020000 		.quad	.LVL28
 3710      00000000 
 3711 0582 0200     		.word	0x2
 3712 0584 30       		.byte	0x30
 3713 0585 9F       		.byte	0x9f
 3714 0586 00000000 		.quad	0
 3714      00000000 
 3715 058e 00000000 		.quad	0
 3715      00000000 
 3716              	.LLST19:
 3717 0596 A6000000 		.quad	.LVL8
 3717      00000000 
 3718 059e B3000000 		.quad	.LVL9
 3718      00000000 
 3719 05a6 0200     		.word	0x2
 3720 05a8 30       		.byte	0x30
 3721 05a9 9F       		.byte	0x9f
 3722 05aa B3000000 		.quad	.LVL9
 3722      00000000 
 3723 05b2 C9000000 		.quad	.LVL10
 3723      00000000 
 3724 05ba 0100     		.word	0x1
 3725 05bc 50       		.byte	0x50
 3726 05bd E5010000 		.quad	.LVL26
 3726      00000000 
 3727 05c5 08020000 		.quad	.LVL28
 3727      00000000 
 3728 05cd 0200     		.word	0x2
 3729 05cf 30       		.byte	0x30
 3730 05d0 9F       		.byte	0x9f
 3731 05d1 00000000 		.quad	0
 3731      00000000 
 3732 05d9 00000000 		.quad	0
 3732      00000000 
 3733              	.LLST20:
 3734 05e1 10020000 		.quad	.LVL30
 3734      00000000 
 3735 05e9 40020000 		.quad	.LVL33
 3735      00000000 
 3736 05f1 0100     		.word	0x1
 3737 05f3 52       		.byte	0x52
 3738 05f4 40020000 		.quad	.LVL33
 3738      00000000 
 3739 05fc 5D020000 		.quad	.LVL35
 3739      00000000 
 3740 0604 0100     		.word	0x1
 3741 0606 54       		.byte	0x54
 3742 0607 5D020000 		.quad	.LVL35
 3742      00000000 
 3743 060f 6A020000 		.quad	.LFE3008
 3743      00000000 
 3744 0617 0400     		.word	0x4
 3745 0619 F3       		.byte	0xf3
 3746 061a 01       		.uleb128 0x1
 3747 061b 52       		.byte	0x52
 3748 061c 9F       		.byte	0x9f
 3749 061d 00000000 		.quad	0
 3749      00000000 
 3750 0625 00000000 		.quad	0
 3750      00000000 
 3751              	.LLST21:
 3752 062d 10020000 		.quad	.LVL30
 3752      00000000 
 3753 0635 40020000 		.quad	.LVL33
 3753      00000000 
 3754 063d 0100     		.word	0x1
 3755 063f 51       		.byte	0x51
 3756 0640 40020000 		.quad	.LVL33
 3756      00000000 
 3757 0648 5D020000 		.quad	.LVL35
 3757      00000000 
 3758 0650 0100     		.word	0x1
 3759 0652 55       		.byte	0x55
 3760 0653 5D020000 		.quad	.LVL35
 3760      00000000 
 3761 065b 6A020000 		.quad	.LFE3008
 3761      00000000 
 3762 0663 0400     		.word	0x4
 3763 0665 F3       		.byte	0xf3
 3764 0666 01       		.uleb128 0x1
 3765 0667 51       		.byte	0x51
 3766 0668 9F       		.byte	0x9f
 3767 0669 00000000 		.quad	0
 3767      00000000 
 3768 0671 00000000 		.quad	0
 3768      00000000 
 3769              	.LLST22:
 3770 0679 10020000 		.quad	.LVL30
 3770      00000000 
 3771 0681 40020000 		.quad	.LVL33
 3771      00000000 
 3772 0689 0100     		.word	0x1
 3773 068b 58       		.byte	0x58
 3774 068c 40020000 		.quad	.LVL33
 3774      00000000 
 3775 0694 5D020000 		.quad	.LVL35
 3775      00000000 
 3776 069c 0100     		.word	0x1
 3777 069e 56       		.byte	0x56
 3778 069f 5D020000 		.quad	.LVL35
 3778      00000000 
 3779 06a7 6A020000 		.quad	.LFE3008
 3779      00000000 
 3780 06af 0400     		.word	0x4
 3781 06b1 F3       		.byte	0xf3
 3782 06b2 01       		.uleb128 0x1
 3783 06b3 58       		.byte	0x58
 3784 06b4 9F       		.byte	0x9f
 3785 06b5 00000000 		.quad	0
 3785      00000000 
 3786 06bd 00000000 		.quad	0
 3786      00000000 
 3787              	.LLST23:
 3788 06c5 10020000 		.quad	.LVL30
 3788      00000000 
 3789 06cd 2D020000 		.quad	.LVL32
 3789      00000000 
 3790 06d5 0100     		.word	0x1
 3791 06d7 59       		.byte	0x59
 3792 06d8 2D020000 		.quad	.LVL32
 3792      00000000 
 3793 06e0 6A020000 		.quad	.LFE3008
 3793      00000000 
 3794 06e8 0400     		.word	0x4
 3795 06ea F3       		.byte	0xf3
 3796 06eb 01       		.uleb128 0x1
 3797 06ec 59       		.byte	0x59
 3798 06ed 9F       		.byte	0x9f
 3799 06ee 00000000 		.quad	0
 3799      00000000 
 3800 06f6 00000000 		.quad	0
 3800      00000000 
 3801              	.LLST24:
 3802 06fe 1C020000 		.quad	.LVL31
 3802      00000000 
 3803 0706 40020000 		.quad	.LVL33
 3803      00000000 
 3804 070e 0200     		.word	0x2
 3805 0710 30       		.byte	0x30
 3806 0711 9F       		.byte	0x9f
 3807 0712 00000000 		.quad	0
 3807      00000000 
 3808 071a 00000000 		.quad	0
 3808      00000000 
 3809              	.LLST25:
 3810 0722 70020000 		.quad	.LVL36
 3810      00000000 
 3811 072a 9F020000 		.quad	.LVL39
 3811      00000000 
 3812 0732 0100     		.word	0x1
 3813 0734 52       		.byte	0x52
 3814 0735 9F020000 		.quad	.LVL39
 3814      00000000 
 3815 073d BC020000 		.quad	.LVL41
 3815      00000000 
 3816 0745 0100     		.word	0x1
 3817 0747 54       		.byte	0x54
 3818 0748 BC020000 		.quad	.LVL41
 3818      00000000 
 3819 0750 C9020000 		.quad	.LFE3009
 3819      00000000 
 3820 0758 0400     		.word	0x4
 3821 075a F3       		.byte	0xf3
 3822 075b 01       		.uleb128 0x1
 3823 075c 52       		.byte	0x52
 3824 075d 9F       		.byte	0x9f
 3825 075e 00000000 		.quad	0
 3825      00000000 
 3826 0766 00000000 		.quad	0
 3826      00000000 
 3827              	.LLST26:
 3828 076e 70020000 		.quad	.LVL36
 3828      00000000 
 3829 0776 9F020000 		.quad	.LVL39
 3829      00000000 
 3830 077e 0100     		.word	0x1
 3831 0780 51       		.byte	0x51
 3832 0781 9F020000 		.quad	.LVL39
 3832      00000000 
 3833 0789 BC020000 		.quad	.LVL41
 3833      00000000 
 3834 0791 0100     		.word	0x1
 3835 0793 55       		.byte	0x55
 3836 0794 BC020000 		.quad	.LVL41
 3836      00000000 
 3837 079c C9020000 		.quad	.LFE3009
 3837      00000000 
 3838 07a4 0400     		.word	0x4
 3839 07a6 F3       		.byte	0xf3
 3840 07a7 01       		.uleb128 0x1
 3841 07a8 51       		.byte	0x51
 3842 07a9 9F       		.byte	0x9f
 3843 07aa 00000000 		.quad	0
 3843      00000000 
 3844 07b2 00000000 		.quad	0
 3844      00000000 
 3845              	.LLST27:
 3846 07ba 70020000 		.quad	.LVL36
 3846      00000000 
 3847 07c2 85020000 		.quad	.LVL38
 3847      00000000 
 3848 07ca 0100     		.word	0x1
 3849 07cc 58       		.byte	0x58
 3850 07cd 85020000 		.quad	.LVL38
 3850      00000000 
 3851 07d5 C9020000 		.quad	.LFE3009
 3851      00000000 
 3852 07dd 0400     		.word	0x4
 3853 07df F3       		.byte	0xf3
 3854 07e0 01       		.uleb128 0x1
 3855 07e1 58       		.byte	0x58
 3856 07e2 9F       		.byte	0x9f
 3857 07e3 00000000 		.quad	0
 3857      00000000 
 3858 07eb 00000000 		.quad	0
 3858      00000000 
 3859              	.LLST28:
 3860 07f3 70020000 		.quad	.LVL36
 3860      00000000 
 3861 07fb 9F020000 		.quad	.LVL39
 3861      00000000 
 3862 0803 0100     		.word	0x1
 3863 0805 59       		.byte	0x59
 3864 0806 9F020000 		.quad	.LVL39
 3864      00000000 
 3865 080e BC020000 		.quad	.LVL41
 3865      00000000 
 3866 0816 0100     		.word	0x1
 3867 0818 56       		.byte	0x56
 3868 0819 BC020000 		.quad	.LVL41
 3868      00000000 
 3869 0821 C9020000 		.quad	.LFE3009
 3869      00000000 
 3870 0829 0400     		.word	0x4
 3871 082b F3       		.byte	0xf3
 3872 082c 01       		.uleb128 0x1
 3873 082d 59       		.byte	0x59
 3874 082e 9F       		.byte	0x9f
 3875 082f 00000000 		.quad	0
 3875      00000000 
 3876 0837 00000000 		.quad	0
 3876      00000000 
 3877              	.LLST29:
 3878 083f 7C020000 		.quad	.LVL37
 3878      00000000 
 3879 0847 9F020000 		.quad	.LVL39
 3879      00000000 
 3880 084f 0100     		.word	0x1
 3881 0851 59       		.byte	0x59
 3882 0852 9F020000 		.quad	.LVL39
 3882      00000000 
 3883 085a BC020000 		.quad	.LVL41
 3883      00000000 
 3884 0862 0100     		.word	0x1
 3885 0864 56       		.byte	0x56
 3886 0865 BC020000 		.quad	.LVL41
 3886      00000000 
 3887 086d C9020000 		.quad	.LFE3009
 3887      00000000 
 3888 0875 0400     		.word	0x4
 3889 0877 F3       		.byte	0xf3
 3890 0878 01       		.uleb128 0x1
 3891 0879 59       		.byte	0x59
 3892 087a 9F       		.byte	0x9f
 3893 087b 00000000 		.quad	0
 3893      00000000 
 3894 0883 00000000 		.quad	0
 3894      00000000 
 3895              	.LLST30:
 3896 088b 7C020000 		.quad	.LVL37
 3896      00000000 
 3897 0893 85020000 		.quad	.LVL38
 3897      00000000 
 3898 089b 0100     		.word	0x1
 3899 089d 58       		.byte	0x58
 3900 089e 85020000 		.quad	.LVL38
 3900      00000000 
 3901 08a6 C9020000 		.quad	.LFE3009
 3901      00000000 
 3902 08ae 0400     		.word	0x4
 3903 08b0 F3       		.byte	0xf3
 3904 08b1 01       		.uleb128 0x1
 3905 08b2 58       		.byte	0x58
 3906 08b3 9F       		.byte	0x9f
 3907 08b4 00000000 		.quad	0
 3907      00000000 
 3908 08bc 00000000 		.quad	0
 3908      00000000 
 3909              	.LLST31:
 3910 08c4 7C020000 		.quad	.LVL37
 3910      00000000 
 3911 08cc 9F020000 		.quad	.LVL39
 3911      00000000 
 3912 08d4 0100     		.word	0x1
 3913 08d6 51       		.byte	0x51
 3914 08d7 9F020000 		.quad	.LVL39
 3914      00000000 
 3915 08df BC020000 		.quad	.LVL41
 3915      00000000 
 3916 08e7 0100     		.word	0x1
 3917 08e9 55       		.byte	0x55
 3918 08ea BC020000 		.quad	.LVL41
 3918      00000000 
 3919 08f2 C9020000 		.quad	.LFE3009
 3919      00000000 
 3920 08fa 0400     		.word	0x4
 3921 08fc F3       		.byte	0xf3
 3922 08fd 01       		.uleb128 0x1
 3923 08fe 51       		.byte	0x51
 3924 08ff 9F       		.byte	0x9f
 3925 0900 00000000 		.quad	0
 3925      00000000 
 3926 0908 00000000 		.quad	0
 3926      00000000 
 3927              	.LLST32:
 3928 0910 7C020000 		.quad	.LVL37
 3928      00000000 
 3929 0918 9F020000 		.quad	.LVL39
 3929      00000000 
 3930 0920 0100     		.word	0x1
 3931 0922 52       		.byte	0x52
 3932 0923 9F020000 		.quad	.LVL39
 3932      00000000 
 3933 092b BC020000 		.quad	.LVL41
 3933      00000000 
 3934 0933 0100     		.word	0x1
 3935 0935 54       		.byte	0x54
 3936 0936 BC020000 		.quad	.LVL41
 3936      00000000 
 3937 093e C9020000 		.quad	.LFE3009
 3937      00000000 
 3938 0946 0400     		.word	0x4
 3939 0948 F3       		.byte	0xf3
 3940 0949 01       		.uleb128 0x1
 3941 094a 52       		.byte	0x52
 3942 094b 9F       		.byte	0x9f
 3943 094c 00000000 		.quad	0
 3943      00000000 
 3944 0954 00000000 		.quad	0
 3944      00000000 
 3945              	.LLST33:
 3946 095c 7C020000 		.quad	.LVL37
 3946      00000000 
 3947 0964 9F020000 		.quad	.LVL39
 3947      00000000 
 3948 096c 0200     		.word	0x2
 3949 096e 30       		.byte	0x30
 3950 096f 9F       		.byte	0x9f
 3951 0970 00000000 		.quad	0
 3951      00000000 
 3952 0978 00000000 		.quad	0
 3952      00000000 
 3953              	.LLST34:
 3954 0980 D0020000 		.quad	.LVL42
 3954      00000000 
 3955 0988 DB020000 		.quad	.LVL43-1
 3955      00000000 
 3956 0990 0100     		.word	0x1
 3957 0992 52       		.byte	0x52
 3958 0993 DB020000 		.quad	.LVL43-1
 3958      00000000 
 3959 099b DC020000 		.quad	.LFE3010
 3959      00000000 
 3960 09a3 0400     		.word	0x4
 3961 09a5 F3       		.byte	0xf3
 3962 09a6 01       		.uleb128 0x1
 3963 09a7 52       		.byte	0x52
 3964 09a8 9F       		.byte	0x9f
 3965 09a9 00000000 		.quad	0
 3965      00000000 
 3966 09b1 00000000 		.quad	0
 3966      00000000 
 3967              	.LLST35:
 3968 09b9 D0020000 		.quad	.LVL42
 3968      00000000 
 3969 09c1 DB020000 		.quad	.LVL43-1
 3969      00000000 
 3970 09c9 0100     		.word	0x1
 3971 09cb 51       		.byte	0x51
 3972 09cc DB020000 		.quad	.LVL43-1
 3972      00000000 
 3973 09d4 DC020000 		.quad	.LFE3010
 3973      00000000 
 3974 09dc 0400     		.word	0x4
 3975 09de F3       		.byte	0xf3
 3976 09df 01       		.uleb128 0x1
 3977 09e0 51       		.byte	0x51
 3978 09e1 9F       		.byte	0x9f
 3979 09e2 00000000 		.quad	0
 3979      00000000 
 3980 09ea 00000000 		.quad	0
 3980      00000000 
 3981              	.LLST36:
 3982 09f2 C2010000 		.quad	.LVL64
 3982      00000000 
 3983 09fa D6010000 		.quad	.LVL65
 3983      00000000 
 3984 0a02 0100     		.word	0x1
 3985 0a04 62       		.byte	0x62
 3986 0a05 D6010000 		.quad	.LVL65
 3986      00000000 
 3987 0a0d F1010000 		.quad	.LVL66-1
 3987      00000000 
 3988 0a15 1F00     		.word	0x1f
 3989 0a17 F4       		.byte	0xf4
 3990 0a18 8601     		.uleb128 0x86
 3991 0a1a 08       		.byte	0x8
 3992 0a1b 00000000 		.long	0
 3993 0a1f 00000442 		.long	0x42040000
 3994 0a23 F5       		.byte	0xf5
 3995 0a24 01       		.uleb128 0x1
 3996 0a25 8601     		.uleb128 0x86
 3997 0a27 F4       		.byte	0xf4
 3998 0a28 8601     		.uleb128 0x86
 3999 0a2a 08       		.byte	0x8
 4000 0a2b 00000000 		.long	0
 4001 0a2f 00408F40 		.long	0x408f4000
 4002 0a33 1B       		.byte	0x1b
 4003 0a34 1B       		.byte	0x1b
 4004 0a35 9F       		.byte	0x9f
 4005 0a36 00000000 		.quad	0
 4005      00000000 
 4006 0a3e 00000000 		.quad	0
 4006      00000000 
 4007              	.LLST37:
 4008 0a46 67000000 		.quad	.LVL49
 4008      00000000 
 4009 0a4e 03020000 		.quad	.LVL67
 4009      00000000 
 4010 0a56 0100     		.word	0x1
 4011 0a58 53       		.byte	0x53
 4012 0a59 03020000 		.quad	.LVL67
 4012      00000000 
 4013 0a61 09020000 		.quad	.LFE3011
 4013      00000000 
 4014 0a69 0400     		.word	0x4
 4015 0a6b 91       		.byte	0x91
 4016 0a6c 907F     		.sleb128 -112
 4017 0a6e 9F       		.byte	0x9f
 4018 0a6f 00000000 		.quad	0
 4018      00000000 
 4019 0a77 00000000 		.quad	0
 4019      00000000 
 4020              	.LLST38:
 4021 0a7f 39000000 		.quad	.LVL45
 4021      00000000 
 4022 0a87 03020000 		.quad	.LVL67
 4022      00000000 
 4023 0a8f 0100     		.word	0x1
 4024 0a91 53       		.byte	0x53
 4025 0a92 03020000 		.quad	.LVL67
 4025      00000000 
 4026 0a9a 09020000 		.quad	.LFE3011
 4026      00000000 
 4027 0aa2 0400     		.word	0x4
 4028 0aa4 91       		.byte	0x91
 4029 0aa5 907F     		.sleb128 -112
 4030 0aa7 9F       		.byte	0x9f
 4031 0aa8 00000000 		.quad	0
 4031      00000000 
 4032 0ab0 00000000 		.quad	0
 4032      00000000 
 4033              	.LLST39:
 4034 0ab8 43000000 		.quad	.LVL46
 4034      00000000 
 4035 0ac0 03020000 		.quad	.LVL67
 4035      00000000 
 4036 0ac8 0100     		.word	0x1
 4037 0aca 53       		.byte	0x53
 4038 0acb 03020000 		.quad	.LVL67
 4038      00000000 
 4039 0ad3 09020000 		.quad	.LFE3011
 4039      00000000 
 4040 0adb 0400     		.word	0x4
 4041 0add 91       		.byte	0x91
 4042 0ade 907F     		.sleb128 -112
 4043 0ae0 9F       		.byte	0x9f
 4044 0ae1 00000000 		.quad	0
 4044      00000000 
 4045 0ae9 00000000 		.quad	0
 4045      00000000 
 4046              	.LLST41:
 4047 0af1 4F000000 		.quad	.LVL47
 4047      00000000 
 4048 0af9 03020000 		.quad	.LVL67
 4048      00000000 
 4049 0b01 0100     		.word	0x1
 4050 0b03 53       		.byte	0x53
 4051 0b04 03020000 		.quad	.LVL67
 4051      00000000 
 4052 0b0c 09020000 		.quad	.LFE3011
 4052      00000000 
 4053 0b14 0400     		.word	0x4
 4054 0b16 91       		.byte	0x91
 4055 0b17 907F     		.sleb128 -112
 4056 0b19 9F       		.byte	0x9f
 4057 0b1a 00000000 		.quad	0
 4057      00000000 
 4058 0b22 00000000 		.quad	0
 4058      00000000 
 4059              	.LLST42:
 4060 0b2a 69000000 		.quad	.LVL50
 4060      00000000 
 4061 0b32 77000000 		.quad	.LVL51
 4061      00000000 
 4062 0b3a 0200     		.word	0x2
 4063 0b3c 30       		.byte	0x30
 4064 0b3d 9F       		.byte	0x9f
 4065 0b3e 77000000 		.quad	.LVL51
 4065      00000000 
 4066 0b46 08020000 		.quad	.LVL68
 4066      00000000 
 4067 0b4e 0100     		.word	0x1
 4068 0b50 5C       		.byte	0x5c
 4069 0b51 00000000 		.quad	0
 4069      00000000 
 4070 0b59 00000000 		.quad	0
 4070      00000000 
 4071              	.LLST43:
 4072 0b61 7E000000 		.quad	.LVL52
 4072      00000000 
 4073 0b69 8D000000 		.quad	.LVL53
 4073      00000000 
 4074 0b71 0200     		.word	0x2
 4075 0b73 30       		.byte	0x30
 4076 0b74 9F       		.byte	0x9f
 4077 0b75 8D000000 		.quad	.LVL53
 4077      00000000 
 4078 0b7d 52010000 		.quad	.LVL59
 4078      00000000 
 4079 0b85 0100     		.word	0x1
 4080 0b87 5A       		.byte	0x5a
 4081 0b88 00000000 		.quad	0
 4081      00000000 
 4082 0b90 00000000 		.quad	0
 4082      00000000 
 4083              	.LLST44:
 4084 0b98 7E000000 		.quad	.LVL52
 4084      00000000 
 4085 0ba0 8D000000 		.quad	.LVL53
 4085      00000000 
 4086 0ba8 0200     		.word	0x2
 4087 0baa 30       		.byte	0x30
 4088 0bab 9F       		.byte	0x9f
 4089 0bac 8D000000 		.quad	.LVL53
 4089      00000000 
 4090 0bb4 17010000 		.quad	.LVL55
 4090      00000000 
 4091 0bbc 0100     		.word	0x1
 4092 0bbe 59       		.byte	0x59
 4093 0bbf 17010000 		.quad	.LVL55
 4093      00000000 
 4094 0bc7 3A010000 		.quad	.LVL57
 4094      00000000 
 4095 0bcf 0300     		.word	0x3
 4096 0bd1 79       		.byte	0x79
 4097 0bd2 7F       		.sleb128 -1
 4098 0bd3 9F       		.byte	0x9f
 4099 0bd4 3A010000 		.quad	.LVL57
 4099      00000000 
 4100 0bdc 6E010000 		.quad	.LVL63-1
 4100      00000000 
 4101 0be4 0100     		.word	0x1
 4102 0be6 59       		.byte	0x59
 4103 0be7 00000000 		.quad	0
 4103      00000000 
 4104 0bef 00000000 		.quad	0
 4104      00000000 
 4105              	.LLST45:
 4106 0bf7 7E000000 		.quad	.LVL52
 4106      00000000 
 4107 0bff 8D000000 		.quad	.LVL53
 4107      00000000 
 4108 0c07 0A00     		.word	0xa
 4109 0c09 03       		.byte	0x3
 4110 0c0a 00000000 		.quad	_ZZ4mainE4data
 4110      00000000 
 4111 0c12 9F       		.byte	0x9f
 4112 0c13 8D000000 		.quad	.LVL53
 4112      00000000 
 4113 0c1b 6D010000 		.quad	.LVL62
 4113      00000000 
 4114 0c23 0100     		.word	0x1
 4115 0c25 52       		.byte	0x52
 4116 0c26 00000000 		.quad	0
 4116      00000000 
 4117 0c2e 00000000 		.quad	0
 4117      00000000 
 4118              	.LLST46:
 4119 0c36 7E000000 		.quad	.LVL52
 4119      00000000 
 4120 0c3e 6E010000 		.quad	.LVL63-1
 4120      00000000 
 4121 0c46 0100     		.word	0x1
 4122 0c48 5B       		.byte	0x5b
 4123 0c49 6E010000 		.quad	.LVL63-1
 4123      00000000 
 4124 0c51 09020000 		.quad	.LFE3011
 4124      00000000 
 4125 0c59 0A00     		.word	0xa
 4126 0c5b 03       		.byte	0x3
 4127 0c5c 00700000 		.quad	_ZZ4mainE4data+28672
 4127      00000000 
 4128 0c64 9F       		.byte	0x9f
 4129 0c65 00000000 		.quad	0
 4129      00000000 
 4130 0c6d 00000000 		.quad	0
 4130      00000000 
 4131              	.LLST47:
 4132 0c75 8D000000 		.quad	.LVL53
 4132      00000000 
 4133 0c7d 9E000000 		.quad	.LVL54
 4133      00000000 
 4134 0c85 0200     		.word	0x2
 4135 0c87 30       		.byte	0x30
 4136 0c88 9F       		.byte	0x9f
 4137 0c89 00000000 		.quad	0
 4137      00000000 
 4138 0c91 00000000 		.quad	0
 4138      00000000 
 4139              	.LLST49:
 4140 0c99 69010000 		.quad	.LVL61
 4140      00000000 
 4141 0ca1 03020000 		.quad	.LVL67
 4141      00000000 
 4142 0ca9 0100     		.word	0x1
 4143 0cab 53       		.byte	0x53
 4144 0cac 03020000 		.quad	.LVL67
 4144      00000000 
 4145 0cb4 09020000 		.quad	.LFE3011
 4145      00000000 
 4146 0cbc 0400     		.word	0x4
 4147 0cbe 91       		.byte	0x91
 4148 0cbf 907F     		.sleb128 -112
 4149 0cc1 9F       		.byte	0x9f
 4150 0cc2 00000000 		.quad	0
 4150      00000000 
 4151 0cca 00000000 		.quad	0
 4151      00000000 
 4152              	.LLST50:
 4153 0cd2 6F010000 		.quad	.LVL63
 4153      00000000 
 4154 0cda 03020000 		.quad	.LVL67
 4154      00000000 
 4155 0ce2 0100     		.word	0x1
 4156 0ce4 53       		.byte	0x53
 4157 0ce5 03020000 		.quad	.LVL67
 4157      00000000 
 4158 0ced 09020000 		.quad	.LFE3011
 4158      00000000 
 4159 0cf5 0400     		.word	0x4
 4160 0cf7 91       		.byte	0x91
 4161 0cf8 907F     		.sleb128 -112
 4162 0cfa 9F       		.byte	0x9f
 4163 0cfb 00000000 		.quad	0
 4163      00000000 
 4164 0d03 00000000 		.quad	0
 4164      00000000 
 4165              		.section	.debug_aranges,"dr"
 4166 0000 3C000000 		.long	0x3c
 4167 0004 0200     		.word	0x2
 4168 0006 00000000 		.secrel32	.Ldebug_info0
 4169 000a 08       		.byte	0x8
 4170 000b 00       		.byte	0
 4171 000c 0000     		.word	0
 4172 000e 0000     		.word	0
 4173 0010 00000000 		.quad	.Ltext0
 4173      00000000 
 4174 0018 DC020000 		.quad	.Letext0-.Ltext0
 4174      00000000 
 4175 0020 00000000 		.quad	.LFB3011
 4175      00000000 
 4176 0028 09020000 		.quad	.LFE3011-.LFB3011
 4176      00000000 
 4177 0030 00000000 		.quad	0
 4177      00000000 
 4178 0038 00000000 		.quad	0
 4178      00000000 
 4179              		.section	.debug_ranges,"dr"
 4180              	.Ldebug_ranges0:
 4181 0000 15000000 		.quad	.LBB40
 4181      00000000 
 4182 0008 19000000 		.quad	.LBE40
 4182      00000000 
 4183 0010 1F000000 		.quad	.LBB53
 4183      00000000 
 4184 0018 38010000 		.quad	.LBE53
 4184      00000000 
 4185 0020 50010000 		.quad	.LBB54
 4185      00000000 
 4186 0028 0F020000 		.quad	.LBE54
 4186      00000000 
 4187 0030 00000000 		.quad	0
 4187      00000000 
 4188 0038 00000000 		.quad	0
 4188      00000000 
 4189 0040 49000000 		.quad	.LBB41
 4189      00000000 
 4190 0048 26010000 		.quad	.LBE41
 4190      00000000 
 4191 0050 50010000 		.quad	.LBB52
 4191      00000000 
 4192 0058 08020000 		.quad	.LBE52
 4192      00000000 
 4193 0060 00000000 		.quad	0
 4193      00000000 
 4194 0068 00000000 		.quad	0
 4194      00000000 
 4195 0070 49000000 		.quad	.LBB42
 4195      00000000 
 4196 0078 05010000 		.quad	.LBE42
 4196      00000000 
 4197 0080 50010000 		.quad	.LBB51
 4197      00000000 
 4198 0088 08020000 		.quad	.LBE51
 4198      00000000 
 4199 0090 00000000 		.quad	0
 4199      00000000 
 4200 0098 00000000 		.quad	0
 4200      00000000 
 4201 00a0 A6000000 		.quad	.LBB44
 4201      00000000 
 4202 00a8 05010000 		.quad	.LBE44
 4202      00000000 
 4203 00b0 E5010000 		.quad	.LBB49
 4203      00000000 
 4204 00b8 00020000 		.quad	.LBE49
 4204      00000000 
 4205 00c0 00000000 		.quad	0
 4205      00000000 
 4206 00c8 00000000 		.quad	0
 4206      00000000 
 4207 00d0 1B000000 		.quad	.LBB92
 4207      00000000 
 4208 00d8 1E000000 		.quad	.LBE92
 4208      00000000 
 4209 00e0 23000000 		.quad	.LBB141
 4209      00000000 
 4210 00e8 F2010000 		.quad	.LBE141
 4210      00000000 
 4211 00f0 00000000 		.quad	0
 4211      00000000 
 4212 00f8 00000000 		.quad	0
 4212      00000000 
 4213 0100 1B000000 		.quad	.LBB93
 4213      00000000 
 4214 0108 1E000000 		.quad	.LBE93
 4214      00000000 
 4215 0110 5A000000 		.quad	.LBB111
 4215      00000000 
 4216 0118 5D000000 		.quad	.LBE111
 4216      00000000 
 4217 0120 67000000 		.quad	.LBB113
 4217      00000000 
 4218 0128 77000000 		.quad	.LBE113
 4218      00000000 
 4219 0130 9A000000 		.quad	.LBB133
 4219      00000000 
 4220 0138 A0000000 		.quad	.LBE133
 4220      00000000 
 4221 0140 00000000 		.quad	0
 4221      00000000 
 4222 0148 00000000 		.quad	0
 4222      00000000 
 4223 0150 23000000 		.quad	.LBB98
 4223      00000000 
 4224 0158 28000000 		.quad	.LBE98
 4224      00000000 
 4225 0160 39000000 		.quad	.LBB110
 4225      00000000 
 4226 0168 5A000000 		.quad	.LBE110
 4226      00000000 
 4227 0170 5D000000 		.quad	.LBB112
 4227      00000000 
 4228 0178 67000000 		.quad	.LBE112
 4228      00000000 
 4229 0180 00000000 		.quad	0
 4229      00000000 
 4230 0188 00000000 		.quad	0
 4230      00000000 
 4231 0190 43000000 		.quad	.LBB100
 4231      00000000 
 4232 0198 5A000000 		.quad	.LBE100
 4232      00000000 
 4233 01a0 5D000000 		.quad	.LBB107
 4233      00000000 
 4234 01a8 62000000 		.quad	.LBE107
 4234      00000000 
 4235 01b0 00000000 		.quad	0
 4235      00000000 
 4236 01b8 00000000 		.quad	0
 4236      00000000 
 4237 01c0 77000000 		.quad	.LBB114
 4237      00000000 
 4238 01c8 9A000000 		.quad	.LBE114
 4238      00000000 
 4239 01d0 A0000000 		.quad	.LBB134
 4239      00000000 
 4240 01d8 69010000 		.quad	.LBE134
 4240      00000000 
 4241 01e0 00000000 		.quad	0
 4241      00000000 
 4242 01e8 00000000 		.quad	0
 4242      00000000 
 4243 01f0 77000000 		.quad	.LBB115
 4243      00000000 
 4244 01f8 9A000000 		.quad	.LBE115
 4244      00000000 
 4245 0200 A0000000 		.quad	.LBB132
 4245      00000000 
 4246 0208 58010000 		.quad	.LBE132
 4246      00000000 
 4247 0210 00000000 		.quad	0
 4247      00000000 
 4248 0218 00000000 		.quad	0
 4248      00000000 
 4249 0220 7E000000 		.quad	.LBB116
 4249      00000000 
 4250 0228 9A000000 		.quad	.LBE116
 4250      00000000 
 4251 0230 A0000000 		.quad	.LBB131
 4251      00000000 
 4252 0238 52010000 		.quad	.LBE131
 4252      00000000 
 4253 0240 00000000 		.quad	0
 4253      00000000 
 4254 0248 00000000 		.quad	0
 4254      00000000 
 4255 0250 84000000 		.quad	.LBB119
 4255      00000000 
 4256 0258 86000000 		.quad	.LBE119
 4256      00000000 
 4257 0260 A0000000 		.quad	.LBB128
 4257      00000000 
 4258 0268 45010000 		.quad	.LBE128
 4258      00000000 
 4259 0270 00000000 		.quad	0
 4259      00000000 
 4260 0278 00000000 		.quad	0
 4260      00000000 
 4261 0280 A0000000 		.quad	.LBB120
 4261      00000000 
 4262 0288 0C010000 		.quad	.LBE120
 4262      00000000 
 4263 0290 2F010000 		.quad	.LBB127
 4263      00000000 
 4264 0298 33010000 		.quad	.LBE127
 4264      00000000 
 4265 02a0 00000000 		.quad	0
 4265      00000000 
 4266 02a8 00000000 		.quad	0
 4266      00000000 
 4267 02b0 6F010000 		.quad	.LBB137
 4267      00000000 
 4268 02b8 81010000 		.quad	.LBE137
 4268      00000000 
 4269 02c0 88010000 		.quad	.LBB140
 4269      00000000 
 4270 02c8 A9010000 		.quad	.LBE140
 4270      00000000 
 4271 02d0 00000000 		.quad	0
 4271      00000000 
 4272 02d8 00000000 		.quad	0
 4272      00000000 
 4273 02e0 00000000 		.quad	.Ltext0
 4273      00000000 
 4274 02e8 DC020000 		.quad	.Letext0
 4274      00000000 
 4275 02f0 00000000 		.quad	.LFB3011
 4275      00000000 
 4276 02f8 09020000 		.quad	.LFE3011
 4276      00000000 
 4277 0300 00000000 		.quad	0
 4277      00000000 
 4278 0308 00000000 		.quad	0
 4278      00000000 
 4279              		.section	.debug_line,"dr"
 4280              	.Ldebug_line0:
 4281 0000 C6010000 		.section	.debug_str,"dr"
 4281      0200B100 
 4281      00000101 
 4281      FB0E0D00 
 4281      01010101 
 4282              	.LASF0:
 4283 0000 48696768 		.ascii "HighPart\0"
 4283      50617274 
 4283      00
 4284              	.LASF3:
 4285 0009 656C656D 		.ascii "elements\0"
 4285      656E7473 
 4285      00
 4286              	.LASF2:
 4287 0012 62797465 		.ascii "bytes\0"
 4287      7300
 4288              	.LASF1:
 4289 0018 64617461 		.ascii "data_ptr\0"
 4289      5F707472 
 4289      00
 4290              		.ident	"GCC: (i686-posix-sjlj-rev2, Built by MinGW-W64 project) 4.9.2"
DEFINED SYMBOLS
                            *ABS*:0000000000000000 main.cpp
  M:\Temp\ccCpL0mu.s:9      .text:0000000000000000 _Z11farsh_keyedPKvyPKj
  M:\Temp\ccCpL0mu.s:319    .text:0000000000000210 _Z13farsh_keyed_nPKvyPKjiPj
  M:\Temp\ccCpL0mu.s:412    .text:0000000000000270 _Z7farsh_nPKvyiPj
  M:\Temp\ccCpL0mu.s:875    .rdata:0000000000000080 _ZL9farsh_key
  M:\Temp\ccCpL0mu.s:506    .text:00000000000002d0 _Z5farshPKvy
  M:\Temp\ccCpL0mu.s:533    .text.startup:0000000000000000 main
  M:\Temp\ccCpL0mu.s:872    .bss:0000000000000000 _ZZ4mainE4data

UNDEFINED SYMBOLS
__main
__imp_QueryPerformanceFrequency
__imp_QueryPerformanceCounter
memcpy
printf
