   1              		.file	"main.cpp"
   2              		.text
   3              	.Ltext0:
   4              		.cfi_sections	.debug_frame
   5              		.p2align 4,,15
   6              		.globl	_Z11farsh_keyedPKvyPKj
   8              		.seh_proc	_Z11farsh_keyedPKvyPKj
   9              	_Z11farsh_keyedPKvyPKj:
  10              	.LFB3007:
  11              		.file 1 "farsh.c"
   1:farsh.c       **** #include <stdlib.h>
   2:farsh.c       **** #include <memory.h>
   3:farsh.c       **** 
   4:farsh.c       **** #define UINT  /*uint32_t*/ unsigned
   5:farsh.c       **** #define ULONG /*uint64_t*/ unsigned long long
   6:farsh.c       **** 
   7:farsh.c       **** #define STRIPE          1024
   8:farsh.c       **** #define STRIPE_ELEMENTS (STRIPE/sizeof(UINT))
   9:farsh.c       **** static const UINT farsh_key[STRIPE_ELEMENTS+1024/32-1] = {  /* STRIPE bytes of key material plus ex
  10:farsh.c       ****     0xb8fe6c39,0x23a44bbe,0x7c01812c,0xf721ad1c,0xded46de9,0x839097db,0x7240a4a4,0xb7b3671f,0xcb79e
  11:farsh.c       ****     0xe3bc0197,0x55079913,0x9f72c696,0x363e00c8,0x53153947,0xebfd127f,0x00f60519,0x46a6b62a,0x93b83
  12:farsh.c       ****     };
  13:farsh.c       **** 
  14:farsh.c       **** /* Hash exactly STRIPE bytes */
  15:farsh.c       **** static UINT farsh_fast (const UINT *data, const UINT *key)
  16:farsh.c       **** {
  17:farsh.c       ****     ULONG sum = 0;  int i;
  18:farsh.c       ****     for (i=0; i < STRIPE_ELEMENTS; i+=2)
  19:farsh.c       ****         sum += (data[i] + key[i]) * (ULONG)(data[i+1] + key[i+1]);
  20:farsh.c       ****     return (UINT)(sum >> 32);
  21:farsh.c       **** }
  22:farsh.c       **** 
  23:farsh.c       **** /* Hash up to STRIPE bytes, consisting of whole UINT pairs, including optional
  24:farsh.c       ****    UINT pair in the extra[] */
  25:farsh.c       **** static UINT farsh_pairs (const UINT *data, size_t elements, const UINT* extra, const UINT *key)
  26:farsh.c       **** {
  27:farsh.c       ****     ULONG sum = 0;  int i;
  28:farsh.c       ****     for (i=0; i < elements; i+=2)
  29:farsh.c       ****         sum += (data[i] + key[i]) * (ULONG)(data[i+1] + key[i+1]);
  30:farsh.c       ****     if (extra)
  31:farsh.c       ****         sum += (extra[0] + key[i]) * (ULONG)(extra[1] + key[i+1]);
  32:farsh.c       ****     return (UINT)(sum >> 32);
  33:farsh.c       **** }
  34:farsh.c       **** 
  35:farsh.c       **** /* Hash up to STRIPE bytes, with special optimization for exactly STRIPE input
  36:farsh.c       ****    bytes and careful handling of partial UINT pair at the end of buffer */
  37:farsh.c       **** static UINT farsh_block (const void *data_ptr, size_t bytes, const UINT *key)
  38:farsh.c       **** {
  39:farsh.c       ****     const UINT *data = (const UINT*) data_ptr;
  40:farsh.c       ****     if (bytes == STRIPE)  return farsh_fast (data, key);
  41:farsh.c       ****     size_t elements = (bytes/sizeof(UINT)) & (~1);
  42:farsh.c       ****     UINT extra_data[2] = {0};
  43:farsh.c       ****     size_t extra_bytes = bytes - elements*sizeof(UINT);
  44:farsh.c       ****     memcpy (extra_data, data+elements, extra_bytes);
  45:farsh.c       ****     return farsh_pairs (data, elements, extra_bytes?extra_data:NULL, key);
  46:farsh.c       **** }
  47:farsh.c       **** 
  48:farsh.c       **** /* Hash the buffer of arbitrary size */
  49:farsh.c       **** UINT farsh_keyed (const void *data_ptr, size_t bytes, const UINT *key)
  50:farsh.c       **** {
  12              		.loc 1 50 0
  13              		.cfi_startproc
  14              	.LVL0:
  15 0000 4157     		pushq	%r15
  16              		.seh_pushreg	%r15
  17              		.cfi_def_cfa_offset 16
  18              		.cfi_offset 15, -16
  19 0002 4156     		pushq	%r14
  20              		.seh_pushreg	%r14
  21              		.cfi_def_cfa_offset 24
  22              		.cfi_offset 14, -24
  23 0004 4155     		pushq	%r13
  24              		.seh_pushreg	%r13
  25              		.cfi_def_cfa_offset 32
  26              		.cfi_offset 13, -32
  27 0006 4154     		pushq	%r12
  28              		.seh_pushreg	%r12
  29              		.cfi_def_cfa_offset 40
  30              		.cfi_offset 12, -40
  31 0008 55       		pushq	%rbp
  32              		.seh_pushreg	%rbp
  33              		.cfi_def_cfa_offset 48
  34              		.cfi_offset 6, -48
  35 0009 57       		pushq	%rdi
  36              		.seh_pushreg	%rdi
  37              		.cfi_def_cfa_offset 56
  38              		.cfi_offset 5, -56
  39 000a 56       		pushq	%rsi
  40              		.seh_pushreg	%rsi
  41              		.cfi_def_cfa_offset 64
  42              		.cfi_offset 4, -64
  43 000b 53       		pushq	%rbx
  44              		.seh_pushreg	%rbx
  45              		.cfi_def_cfa_offset 72
  46              		.cfi_offset 3, -72
  47 000c 4883EC58 		subq	$88, %rsp
  48              		.seh_stackalloc	88
  49              		.cfi_def_cfa_offset 160
  50 0010 0F297424 		movaps	%xmm6, 64(%rsp)
  50      40
  51              		.seh_savexmm	%xmm6, 64
  52              		.cfi_offset 23, -96
  53              		.seh_endprologue
  54              	.LVL1:
  55              	.LBB40:
  51:farsh.c       ****     ULONG sum = 0;  int i = 0;
  52:farsh.c       ****     const char *data = (const char*) data_ptr,  *end = data+bytes;
  56              		.loc 1 52 0
  57 0015 488D0411 		leaq	(%rcx,%rdx), %rax
  58              	.LBE40:
  50:farsh.c       ****     ULONG sum = 0;  int i = 0;
  59              		.loc 1 50 0
  60 0019 4889CB   		movq	%rcx, %rbx
  61 001c 4C89C6   		movq	%r8, %rsi
  62              	.LBB53:
  53:farsh.c       ****     while (data < end)
  63              		.loc 1 53 0
  64 001f 4839C1   		cmpq	%rax, %rcx
  52:farsh.c       ****     while (data < end)
  65              		.loc 1 52 0
  66 0022 48894424 		movq	%rax, 32(%rsp)
  66      20
  67              	.LVL2:
  68              		.loc 1 53 0
  69 0027 0F83DB01 		jae	.L14
  69      0000
  70 002d 4881FA00 		cmpq	$1024, %rdx
  70      040000
  71 0034 41BF0004 		movl	$1024, %r15d
  71      0000
  72 003a 41BC0000 		movl	$0, %r12d
  72      0000
  73 0040 4C0F46FA 		cmovbe	%rdx, %r15
  74 0044 4C8D5424 		leaq	48(%rsp), %r10
  74      30
  75              	.LBB41:
  76              	.LBB42:
  77              	.LBB43:
  41:farsh.c       ****     UINT extra_data[2] = {0};
  78              		.loc 1 41 0
  79 0049 4C89FF   		movq	%r15, %rdi
  80 004c 4D89FD   		movq	%r15, %r13
  81 004f 48C1EF02 		shrq	$2, %rdi
  82 0053 4883E7FE 		andq	$-2, %rdi
  43:farsh.c       ****     memcpy (extra_data, data+elements, extra_bytes);
  83              		.loc 1 43 0
  84 0057 488D04BD 		leaq	0(,%rdi,4), %rax
  84      00000000 
  85              	.LVL3:
  86 005f 4929C5   		subq	%rax, %r13
  87 0062 48894424 		movq	%rax, 40(%rsp)
  87      28
  88 0067 4D0F45E2 		cmovne	%r10, %r12
  89 006b 31ED     		xorl	%ebp, %ebp
  90 006d 4531F6   		xorl	%r14d, %r14d
  91              	.LVL4:
  92              		.p2align 4,,10
  93              	.L12:
  40:farsh.c       ****     size_t elements = (bytes/sizeof(UINT)) & (~1);
  94              		.loc 1 40 0
  95 0070 4981FF00 		cmpq	$1024, %r15
  95      040000
  96 0077 0F84D300 		je	.L28
  96      0000
  97              	.LVL5:
  98 007d 488B4424 		movq	40(%rsp), %rax
  98      28
  44:farsh.c       ****     return farsh_pairs (data, elements, extra_bytes?extra_data:NULL, key);
  99              		.loc 1 44 0
 100 0082 4C89D1   		movq	%r10, %rcx
 101 0085 4D89E8   		movq	%r13, %r8
  42:farsh.c       ****     size_t extra_bytes = bytes - elements*sizeof(UINT);
 102              		.loc 1 42 0
 103 0088 48C74424 		movq	$0, 48(%rsp)
 103      30000000 
 103      00
 104              	.LVL6:
 105 0091 488D1403 		leaq	(%rbx,%rax), %rdx
  44:farsh.c       ****     return farsh_pairs (data, elements, extra_bytes?extra_data:NULL, key);
 106              		.loc 1 44 0
 107 0095 E8000000 		call	memcpy
 107      00
 108              	.LVL7:
  45:farsh.c       **** }
 109              		.loc 1 45 0
 110 009a 4D85ED   		testq	%r13, %r13
  44:farsh.c       ****     return farsh_pairs (data, elements, extra_bytes?extra_data:NULL, key);
 111              		.loc 1 44 0
 112 009d 4989C2   		movq	%rax, %r10
  45:farsh.c       **** }
 113              		.loc 1 45 0
 114 00a0 0F843F01 		je	.L29
 114      0000
 115              	.LVL8:
 116              	.LBB44:
 117              	.LBB45:
  28:farsh.c       ****         sum += (data[i] + key[i]) * (ULONG)(data[i+1] + key[i+1]);
 118              		.loc 1 28 0
 119 00a6 31D2     		xorl	%edx, %edx
 120 00a8 31C0     		xorl	%eax, %eax
 121 00aa 4885FF   		testq	%rdi, %rdi
 122 00ad 0F844401 		je	.L30
 122      0000
 123              	.LVL9:
 124              		.p2align 4,,10
 125              	.L17:
  29:farsh.c       ****     if (extra)
 126              		.loc 1 29 0
 127 00b3 8B4C8304 		movl	4(%rbx,%rax,4), %ecx
 128 00b7 4189C8   		movl	%ecx, %r8d
 129 00ba 8B0C83   		movl	(%rbx,%rax,4), %ecx
 130 00bd 44034486 		addl	4(%rsi,%rax,4), %r8d
 130      04
 131 00c2 030C86   		addl	(%rsi,%rax,4), %ecx
 132 00c5 4883C002 		addq	$2, %rax
 133              	.LVL10:
 134 00c9 490FAFC8 		imulq	%r8, %rcx
 135 00cd 4801CA   		addq	%rcx, %rdx
 136              	.LVL11:
  28:farsh.c       ****         sum += (data[i] + key[i]) * (ULONG)(data[i+1] + key[i+1]);
 137              		.loc 1 28 0
 138 00d0 4839C7   		cmpq	%rax, %rdi
 139 00d3 77DE     		ja	.L17
 140 00d5 48C1E002 		salq	$2, %rax
  30:farsh.c       ****         sum += (extra[0] + key[i]) * (ULONG)(extra[1] + key[i+1]);
 141              		.loc 1 30 0
 142 00d9 4D85E4   		testq	%r12, %r12
 143 00dc 4D89E0   		movq	%r12, %r8
 144 00df 4C8D5804 		leaq	4(%rax), %r11
 145 00e3 741C     		je	.L25
 146              	.LVL12:
 147              	.L13:
  31:farsh.c       ****     return (UINT)(sum >> 32);
 148              		.loc 1 31 0
 149 00e5 418B4804 		movl	4(%r8), %ecx
 150 00e9 458B00   		movl	(%r8), %r8d
 151              	.LVL13:
 152 00ec 42030C1E 		addl	(%rsi,%r11), %ecx
 153              	.LVL14:
 154 00f0 4589C1   		movl	%r8d, %r9d
 155 00f3 44030C06 		addl	(%rsi,%rax), %r9d
 156 00f7 4C89C8   		movq	%r9, %rax
 157 00fa 480FAFC1 		imulq	%rcx, %rax
 158 00fe 4801C2   		addq	%rax, %rdx
 159              	.L25:
 160 0101 48C1EA20 		shrq	$32, %rdx
 161              	.LVL15:
 162              	.L5:
 163              	.LBE45:
 164              	.LBE44:
 165              	.LBE43:
 166              	.LBE42:
  54:farsh.c       ****     {
  55:farsh.c       ****         size_t minbytes = (bytes<STRIPE? bytes : STRIPE);
  56:farsh.c       ****         UINT h = farsh_block (data, minbytes, key);
  57:farsh.c       ****         data += minbytes;
  58:farsh.c       ****         sum += h*(ULONG)key[i];
 167              		.loc 1 58 0
 168 0105 4863C5   		movslq	%ebp, %rax
  59:farsh.c       ****         if (++i == STRIPE_ELEMENTS)
 169              		.loc 1 59 0
 170 0108 83C501   		addl	$1, %ebp
 171              	.LVL16:
  57:farsh.c       ****         sum += h*(ULONG)key[i];
 172              		.loc 1 57 0
 173 010b 4C01FB   		addq	%r15, %rbx
 174              	.LVL17:
  58:farsh.c       ****         if (++i == STRIPE_ELEMENTS)
 175              		.loc 1 58 0
 176 010e 8B0486   		movl	(%rsi,%rax,4), %eax
 177 0111 480FAFD0 		imulq	%rax, %rdx
  60:farsh.c       ****             i = 0;/*to do*/
 178              		.loc 1 60 0
 179 0115 B8000000 		movl	$0, %eax
 179      00
  58:farsh.c       ****         if (++i == STRIPE_ELEMENTS)
 180              		.loc 1 58 0
 181 011a 4901D6   		addq	%rdx, %r14
 182              	.LVL18:
 183              		.loc 1 60 0
 184 011d 81FD0001 		cmpl	$256, %ebp
 184      0000
 185 0123 0F44E8   		cmove	%eax, %ebp
 186              	.LVL19:
 187              	.LBE41:
  53:farsh.c       ****     {
 188              		.loc 1 53 0
 189 0126 48395C24 		cmpq	%rbx, 32(%rsp)
 189      20
 190 012b 0F873FFF 		ja	.L12
 190      FFFF
 191 0131 49C1EE20 		shrq	$32, %r14
 192              	.LVL20:
 193 0135 4C89F0   		movq	%r14, %rax
 194              	.LVL21:
 195              	.L22:
 196              	.LBE53:
  61:farsh.c       ****     }
  62:farsh.c       ****     return (UINT)(sum >> 32);
  63:farsh.c       **** }
 197              		.loc 1 63 0
 198 0138 0F287424 		movaps	64(%rsp), %xmm6
 198      40
 199 013d 4883C458 		addq	$88, %rsp
 200              		.cfi_remember_state
 201              		.cfi_restore 23
 202              		.cfi_def_cfa_offset 72
 203 0141 5B       		popq	%rbx
 204              		.cfi_restore 3
 205              		.cfi_def_cfa_offset 64
 206              	.LVL22:
 207 0142 5E       		popq	%rsi
 208              		.cfi_restore 4
 209              		.cfi_def_cfa_offset 56
 210              	.LVL23:
 211 0143 5F       		popq	%rdi
 212              		.cfi_restore 5
 213              		.cfi_def_cfa_offset 48
 214 0144 5D       		popq	%rbp
 215              		.cfi_restore 6
 216              		.cfi_def_cfa_offset 40
 217 0145 415C     		popq	%r12
 218              		.cfi_restore 12
 219              		.cfi_def_cfa_offset 32
 220 0147 415D     		popq	%r13
 221              		.cfi_restore 13
 222              		.cfi_def_cfa_offset 24
 223 0149 415E     		popq	%r14
 224              		.cfi_restore 14
 225              		.cfi_def_cfa_offset 16
 226 014b 415F     		popq	%r15
 227              		.cfi_restore 15
 228              		.cfi_def_cfa_offset 8
 229 014d C3       		ret
 230              	.LVL24:
 231 014e 6690     		.p2align 4,,10
 232              	.L28:
 233              		.cfi_restore_state
 234              	.LBB54:
 235              	.LBB52:
 236              	.LBB51:
 237              	.LBB50:
  40:farsh.c       ****     size_t elements = (bytes/sizeof(UINT)) & (~1);
 238              		.loc 1 40 0
 239 0150 31C0     		xorl	%eax, %eax
 240 0152 660FEFDB 		pxor	%xmm3, %xmm3
 241 0156 662E0F1F 		.p2align 4,,10
 241      84000000 
 241      0000
 242              	.L4:
 243              	.LBB47:
 244              	.LBB48:
  19:farsh.c       ****     return (UINT)(sum >> 32);
 245              		.loc 1 19 0
 246 0160 F30F6F14 		movdqu	(%rbx,%rax), %xmm2
 246      03
 247 0165 F30F6F0C 		movdqu	(%rsi,%rax), %xmm1
 247      06
 248 016a F30F6F6C 		movdqu	16(%rbx,%rax), %xmm5
 248      0310
 249 0170 660F6FC2 		movdqa	%xmm2, %xmm0
 250 0174 F30F6F74 		movdqu	16(%rsi,%rax), %xmm6
 250      0610
 251 017a 660F6FE1 		movdqa	%xmm1, %xmm4
 252 017e 4883C020 		addq	$32, %rax
 253 0182 0FC6D5DD 		shufps	$221, %xmm5, %xmm2
 254 0186 0FC6C588 		shufps	$136, %xmm5, %xmm0
 255 018a 483D0004 		cmpq	$1024, %rax
 255      0000
 256 0190 0FC6E688 		shufps	$136, %xmm6, %xmm4
 257 0194 0FC6CEDD 		shufps	$221, %xmm6, %xmm1
 258 0198 660FFEC4 		paddd	%xmm4, %xmm0
 259 019c 660FFECA 		paddd	%xmm2, %xmm1
 260 01a0 660F6FE1 		movdqa	%xmm1, %xmm4
 261 01a4 660F6FD0 		movdqa	%xmm0, %xmm2
 262 01a8 660F62E1 		punpckldq	%xmm1, %xmm4
 263 01ac 660F62D0 		punpckldq	%xmm0, %xmm2
 264 01b0 660FF4D4 		pmuludq	%xmm4, %xmm2
 265 01b4 660F6AC9 		punpckhdq	%xmm1, %xmm1
 266 01b8 660F6AC0 		punpckhdq	%xmm0, %xmm0
 267 01bc 660FF4C1 		pmuludq	%xmm1, %xmm0
 268 01c0 660FD4DA 		paddq	%xmm2, %xmm3
 269 01c4 660FD4D8 		paddq	%xmm0, %xmm3
 270              	.LVL25:
 271 01c8 7596     		jne	.L4
 272 01ca 660F6FC3 		movdqa	%xmm3, %xmm0
 273 01ce 660F73D8 		psrldq	$8, %xmm0
 273      08
 274 01d3 660FD4D8 		paddq	%xmm0, %xmm3
 275 01d7 66480F7E 		movq	%xmm3, %rdx
 275      DA
  20:farsh.c       **** }
 276              		.loc 1 20 0
 277 01dc 48C1EA20 		shrq	$32, %rdx
 278 01e0 E920FFFF 		jmp	.L5
 278      FF
 279              	.LVL26:
 280              		.p2align 4,,10
 281              	.L29:
 282              	.LBE48:
 283              	.LBE47:
 284              	.LBB49:
 285              	.LBB46:
  28:farsh.c       ****         sum += (data[i] + key[i]) * (ULONG)(data[i+1] + key[i+1]);
 286              		.loc 1 28 0
 287 01e5 31D2     		xorl	%edx, %edx
 288 01e7 31C0     		xorl	%eax, %eax
 289 01e9 4885FF   		testq	%rdi, %rdi
 290 01ec 0F85C1FE 		jne	.L17
 290      FFFF
 291 01f2 E90EFFFF 		jmp	.L5
 291      FF
 292              	.LVL27:
 293              	.L30:
 294 01f7 41BB0400 		movl	$4, %r11d
 294      0000
  27:farsh.c       ****     for (i=0; i < elements; i+=2)
 295              		.loc 1 27 0
 296 01fd 4889FA   		movq	%rdi, %rdx
 297              	.LBE46:
 298              	.LBE49:
  45:farsh.c       **** }
 299              		.loc 1 45 0
 300 0200 4D89D0   		movq	%r10, %r8
 301 0203 E9DDFEFF 		jmp	.L13
 301      FF
 302              	.LVL28:
 303              	.L14:
 304              	.LBE50:
 305              	.LBE51:
 306              	.LBE52:
  53:farsh.c       ****     {
 307              		.loc 1 53 0
 308 0208 31C0     		xorl	%eax, %eax
 309              	.LVL29:
 310 020a E929FFFF 		jmp	.L22
 310      FF
 311              	.LBE54:
 312              		.cfi_endproc
 313              	.LFE3007:
 314              		.seh_endproc
 315 020f 90       		.p2align 4,,15
 316              		.globl	_Z13farsh_keyed_nPKvyPKjiPj
 318              		.seh_proc	_Z13farsh_keyed_nPKvyPKjiPj
 319              	_Z13farsh_keyed_nPKvyPKjiPj:
 320              	.LFB3008:
  64:farsh.c       **** 
  65:farsh.c       **** /* Hash the buffer of arbitrary size */
  66:farsh.c       **** void farsh_keyed_n (const void *data_ptr, size_t bytes, const UINT *key, int n, UINT *hash)
  67:farsh.c       **** {
 321              		.loc 1 67 0
 322              		.cfi_startproc
 323              	.LVL30:
 324 0210 4155     		pushq	%r13
 325              		.seh_pushreg	%r13
 326              		.cfi_def_cfa_offset 16
 327              		.cfi_offset 13, -16
 328 0212 4154     		pushq	%r12
 329              		.seh_pushreg	%r12
 330              		.cfi_def_cfa_offset 24
 331              		.cfi_offset 12, -24
 332 0214 55       		pushq	%rbp
 333              		.seh_pushreg	%rbp
 334              		.cfi_def_cfa_offset 32
 335              		.cfi_offset 6, -32
 336 0215 57       		pushq	%rdi
 337              		.seh_pushreg	%rdi
 338              		.cfi_def_cfa_offset 40
 339              		.cfi_offset 5, -40
 340 0216 56       		pushq	%rsi
 341              		.seh_pushreg	%rsi
 342              		.cfi_def_cfa_offset 48
 343              		.cfi_offset 4, -48
 344 0217 53       		pushq	%rbx
 345              		.seh_pushreg	%rbx
 346              		.cfi_def_cfa_offset 56
 347              		.cfi_offset 3, -56
 348 0218 4883EC28 		subq	$40, %rsp
 349              		.seh_stackalloc	40
 350              		.cfi_def_cfa_offset 96
 351              		.seh_endprologue
 352              	.LVL31:
 353              		.loc 1 67 0
 354 021c 4C8BA424 		movq	128(%rsp), %r12
 354      80000000 
 355              	.LBB56:
  68:farsh.c       ****     int i;
  69:farsh.c       ****     for (i=0; i < n; i++)
 356              		.loc 1 69 0
 357 0224 4585C9   		testl	%r9d, %r9d
 358 0227 7E34     		jle	.L31
 359 0229 4183E901 		subl	$1, %r9d
 360              	.LVL32:
 361 022d 4C89C5   		movq	%r8, %rbp
 362 0230 4889D7   		movq	%rdx, %rdi
 363 0233 4E8D2C8D 		leaq	4(,%r9,4), %r13
 363      04000000 
 364 023b 4889CE   		movq	%rcx, %rsi
 365 023e 31DB     		xorl	%ebx, %ebx
 366              	.LVL33:
 367              		.p2align 4,,10
 368              	.L33:
  70:farsh.c       ****         hash[i] = farsh_keyed (data_ptr, bytes, key+i);
 369              		.loc 1 70 0 discriminator 3
 370 0240 4C8D441D 		leaq	0(%rbp,%rbx), %r8
 370      00
 371 0245 4889FA   		movq	%rdi, %rdx
 372 0248 4889F1   		movq	%rsi, %rcx
 373 024b E8B0FDFF 		call	_Z11farsh_keyedPKvyPKj
 373      FF
 374              	.LVL34:
 375 0250 4189041C 		movl	%eax, (%r12,%rbx)
 376 0254 4883C304 		addq	$4, %rbx
  69:farsh.c       ****         hash[i] = farsh_keyed (data_ptr, bytes, key+i);
 377              		.loc 1 69 0 discriminator 3
 378 0258 4C39EB   		cmpq	%r13, %rbx
 379 025b 75E3     		jne	.L33
 380              	.LVL35:
 381              	.L31:
 382              	.LBE56:
  71:farsh.c       **** }
 383              		.loc 1 71 0
 384 025d 4883C428 		addq	$40, %rsp
 385              		.cfi_def_cfa_offset 56
 386 0261 5B       		popq	%rbx
 387              		.cfi_restore 3
 388              		.cfi_def_cfa_offset 48
 389 0262 5E       		popq	%rsi
 390              		.cfi_restore 4
 391              		.cfi_def_cfa_offset 40
 392 0263 5F       		popq	%rdi
 393              		.cfi_restore 5
 394              		.cfi_def_cfa_offset 32
 395 0264 5D       		popq	%rbp
 396              		.cfi_restore 6
 397              		.cfi_def_cfa_offset 24
 398 0265 415C     		popq	%r12
 399              		.cfi_restore 12
 400              		.cfi_def_cfa_offset 16
 401 0267 415D     		popq	%r13
 402              		.cfi_restore 13
 403              		.cfi_def_cfa_offset 8
 404 0269 C3       		ret
 405              		.cfi_endproc
 406              	.LFE3008:
 407              		.seh_endproc
 408 026a 660F1F44 		.p2align 4,,15
 408      0000
 409              		.globl	_Z7farsh_nPKvyiPj
 411              		.seh_proc	_Z7farsh_nPKvyiPj
 412              	_Z7farsh_nPKvyiPj:
 413              	.LFB3009:
  72:farsh.c       **** 
  73:farsh.c       **** /* Hash the buffer of arbitrary size */
  74:farsh.c       **** void farsh_n (const void *data_ptr, size_t bytes, int n, UINT *hash)
  75:farsh.c       **** {
 414              		.loc 1 75 0
 415              		.cfi_startproc
 416              	.LVL36:
 417 0270 4155     		pushq	%r13
 418              		.seh_pushreg	%r13
 419              		.cfi_def_cfa_offset 16
 420              		.cfi_offset 13, -16
 421 0272 4154     		pushq	%r12
 422              		.seh_pushreg	%r12
 423              		.cfi_def_cfa_offset 24
 424              		.cfi_offset 12, -24
 425 0274 55       		pushq	%rbp
 426              		.seh_pushreg	%rbp
 427              		.cfi_def_cfa_offset 32
 428              		.cfi_offset 6, -32
 429 0275 57       		pushq	%rdi
 430              		.seh_pushreg	%rdi
 431              		.cfi_def_cfa_offset 40
 432              		.cfi_offset 5, -40
 433 0276 56       		pushq	%rsi
 434              		.seh_pushreg	%rsi
 435              		.cfi_def_cfa_offset 48
 436              		.cfi_offset 4, -48
 437 0277 53       		pushq	%rbx
 438              		.seh_pushreg	%rbx
 439              		.cfi_def_cfa_offset 56
 440              		.cfi_offset 3, -56
 441 0278 4883EC28 		subq	$40, %rsp
 442              		.seh_stackalloc	40
 443              		.cfi_def_cfa_offset 96
 444              		.seh_endprologue
 445              	.LVL37:
 446              	.LBB60:
 447              	.LBB61:
  69:farsh.c       ****         hash[i] = farsh_keyed (data_ptr, bytes, key+i);
 448              		.loc 1 69 0
 449 027c 4585C0   		testl	%r8d, %r8d
 450 027f 7E3B     		jle	.L36
 451 0281 4183E801 		subl	$1, %r8d
 452              	.LVL38:
 453 0285 4C89CD   		movq	%r9, %rbp
 454 0288 4889D7   		movq	%rdx, %rdi
 455 028b 4E8D2C85 		leaq	4(,%r8,4), %r13
 455      04000000 
 456 0293 4889CE   		movq	%rcx, %rsi
 457 0296 31DB     		xorl	%ebx, %ebx
 458 0298 4C8D2580 		leaq	_ZL9farsh_key(%rip), %r12
 458      000000
 459              	.LVL39:
 460 029f 90       		.p2align 4,,10
 461              	.L38:
  70:farsh.c       **** }
 462              		.loc 1 70 0
 463 02a0 4D8D041C 		leaq	(%r12,%rbx), %r8
 464 02a4 4889FA   		movq	%rdi, %rdx
 465 02a7 4889F1   		movq	%rsi, %rcx
 466 02aa E851FDFF 		call	_Z11farsh_keyedPKvyPKj
 466      FF
 467              	.LVL40:
 468 02af 89441D00 		movl	%eax, 0(%rbp,%rbx)
 469 02b3 4883C304 		addq	$4, %rbx
  69:farsh.c       ****         hash[i] = farsh_keyed (data_ptr, bytes, key+i);
 470              		.loc 1 69 0
 471 02b7 4C39EB   		cmpq	%r13, %rbx
 472 02ba 75E4     		jne	.L38
 473              	.LVL41:
 474              	.L36:
 475              	.LBE61:
 476              	.LBE60:
  76:farsh.c       ****     farsh_keyed_n (data_ptr, bytes, farsh_key, n, hash);
  77:farsh.c       **** }
 477              		.loc 1 77 0
 478 02bc 4883C428 		addq	$40, %rsp
 479              		.cfi_def_cfa_offset 56
 480 02c0 5B       		popq	%rbx
 481              		.cfi_restore 3
 482              		.cfi_def_cfa_offset 48
 483 02c1 5E       		popq	%rsi
 484              		.cfi_restore 4
 485              		.cfi_def_cfa_offset 40
 486 02c2 5F       		popq	%rdi
 487              		.cfi_restore 5
 488              		.cfi_def_cfa_offset 32
 489 02c3 5D       		popq	%rbp
 490              		.cfi_restore 6
 491              		.cfi_def_cfa_offset 24
 492 02c4 415C     		popq	%r12
 493              		.cfi_restore 12
 494              		.cfi_def_cfa_offset 16
 495 02c6 415D     		popq	%r13
 496              		.cfi_restore 13
 497              		.cfi_def_cfa_offset 8
 498 02c8 C3       		ret
 499              		.cfi_endproc
 500              	.LFE3009:
 501              		.seh_endproc
 502 02c9 0F1F8000 		.p2align 4,,15
 502      000000
 503              		.globl	_Z5farshPKvy
 505              		.seh_proc	_Z5farshPKvy
 506              	_Z5farshPKvy:
 507              	.LFB3010:
  78:farsh.c       **** 
  79:farsh.c       **** /* Hash the buffer of arbitrary size */
  80:farsh.c       **** UINT farsh (const void *data_ptr, size_t bytes)
  81:farsh.c       **** {
 508              		.loc 1 81 0
 509              		.cfi_startproc
 510              	.LVL42:
 511              		.seh_endprologue
  82:farsh.c       ****     return farsh_keyed (data_ptr, bytes, farsh_key);
 512              		.loc 1 82 0
 513 02d0 4C8D0580 		leaq	_ZL9farsh_key(%rip), %r8
 513      000000
  83:farsh.c       **** }
 514              		.loc 1 83 0
  82:farsh.c       ****     return farsh_keyed (data_ptr, bytes, farsh_key);
 515              		.loc 1 82 0
 516 02d7 E924FDFF 		jmp	_Z11farsh_keyedPKvyPKj
 516      FF
 517              	.LVL43:
 518              		.cfi_endproc
 519              	.LFE3010:
 520              		.seh_endproc
 522              		.section .rdata,"dr"
 523              	.LC0:
 524 0000 48617368 		.ascii "Hashing %d GiB\0"
 524      696E6720 
 524      25642047 
 524      694200
 525 000f 00       		.align 8
 526              	.LC5:
 527 0010 3A20252E 		.ascii ": %.3lf milliseconds = %.3lf GB/s = %.3lf GiB/s\12\0"
 527      336C6620 
 527      6D696C6C 
 527      69736563 
 527      6F6E6473 
 528              		.section	.text.startup,"x"
 529              		.p2align 4,,15
 530              		.globl	main
 532              		.seh_proc	main
 533              	main:
 534              	.LFB3011:
 535              		.file 2 "main.cpp"
   1:main.cpp      **** #include <stdio.h>
   2:main.cpp      **** #include <stdint.h>
   3:main.cpp      **** #include "timer.h"
   4:main.cpp      **** #include "farsh.c"
   5:main.cpp      **** 
   6:main.cpp      **** int main()
   7:main.cpp      **** {
 536              		.loc 2 7 0
 537              		.cfi_startproc
 538 0000 4154     		pushq	%r12
 539              		.seh_pushreg	%r12
 540              		.cfi_def_cfa_offset 16
 541              		.cfi_offset 12, -16
 542 0002 55       		pushq	%rbp
 543              		.seh_pushreg	%rbp
 544              		.cfi_def_cfa_offset 24
 545              		.cfi_offset 6, -24
 546 0003 57       		pushq	%rdi
 547              		.seh_pushreg	%rdi
 548              		.cfi_def_cfa_offset 32
 549              		.cfi_offset 5, -32
 550 0004 56       		pushq	%rsi
 551              		.seh_pushreg	%rsi
 552              		.cfi_def_cfa_offset 40
 553              		.cfi_offset 4, -40
 554 0005 53       		pushq	%rbx
 555              		.seh_pushreg	%rbx
 556              		.cfi_def_cfa_offset 48
 557              		.cfi_offset 3, -48
 558 0006 4883EC60 		subq	$96, %rsp
 559              		.seh_stackalloc	96
 560              		.cfi_def_cfa_offset 144
 561 000a 0F297424 		movaps	%xmm6, 64(%rsp)
 561      40
 562              		.seh_savexmm	%xmm6, 64
 563 000f 0F297C24 		movaps	%xmm7, 80(%rsp)
 563      50
 564              		.seh_savexmm	%xmm7, 80
 565              		.cfi_offset 23, -80
 566              		.cfi_offset 24, -64
 567              		.seh_endprologue
 568 0014 488D3D80 		leaq	_ZL9farsh_key(%rip), %rdi
 568      000000
 569              	.LBB92:
 570              	.LBB93:
 571              	.LBB94:
 572              		.file 3 "timer.h"
   1:timer.h       **** //--------------------------------------------------------------------------------------
   2:timer.h       **** // Copyright (c) Microsoft Corp.
   3:timer.h       **** //
   4:timer.h       **** // File: timer.h
   5:timer.h       **** //
   6:timer.h       **** // Licensed under the Apache License, Version 2.0 (the "License"); you may not use this
   7:timer.h       **** // file except in compliance with the License. You may obtain a copy of the License at
   8:timer.h       **** // http://www.apache.org/licenses/LICENSE-2.0
   9:timer.h       **** //
  10:timer.h       **** // THIS CODE IS PROVIDED *AS IS* BASIS, WITHOUT WARRANTIES OR CONDITIONS OF ANY KIND,
  11:timer.h       **** // EITHER EXPRESS OR IMPLIED, INCLUDING WITHOUT LIMITATION ANY IMPLIED WARRANTIES OR
  12:timer.h       **** // CONDITIONS OF TITLE, FITNESS FOR A PARTICULAR PURPOSE, MERCHANTABLITY OR NON-INFRINGEMENT.
  13:timer.h       **** //
  14:timer.h       **** // See the Apache Version 2.0 License for specific language governing permissions and
  15:timer.h       **** // limitations under the License.
  16:timer.h       **** //--------------------------------------------------------------------------------------
  17:timer.h       **** 
  18:timer.h       **** #pragma once
  19:timer.h       **** #include <windows.h>
  20:timer.h       **** 
  21:timer.h       **** struct Timer
  22:timer.h       **** {
  23:timer.h       ****     void Start()
  24:timer.h       ****     {
  25:timer.h       ****         QueryPerformanceCounter(&m_start);
 573              		.loc 3 25 0
 574 001b 4531E4   		xorl	%r12d, %r12d
 575              	.LBE94:
 576              	.LBE93:
 577              	.LBE92:
 578              		.loc 2 7 0
 579 001e E8000000 		call	__main
 579      00
 580              	.LVL44:
 581              	.LBB141:
 582              	.LBB98:
 583              	.LBB99:
  26:timer.h       ****     }
  27:timer.h       **** 
  28:timer.h       ****     void Stop()
  29:timer.h       ****     {
  30:timer.h       ****         QueryPerformanceCounter(&m_stop);
  31:timer.h       ****     }
  32:timer.h       **** 
  33:timer.h       ****     // Returns elapsed time in milliseconds (ms)
  34:timer.h       ****     double Elapsed()
  35:timer.h       ****     {
  36:timer.h       ****         return (m_stop.QuadPart - m_start.QuadPart - m_overhead) \
  37:timer.h       ****                                           * 1000.0 / m_freq.QuadPart;
  38:timer.h       ****     }
  39:timer.h       **** 
  40:timer.h       ****     Timer()
  41:timer.h       ****     {
  42:timer.h       ****         // Initialize the resolution of the timer
  43:timer.h       ****         QueryPerformanceFrequency(&m_freq);
 584              		.loc 3 43 0
 585 0023 488D5C24 		leaq	32(%rsp), %rbx
 585      20
 586              	.LBE99:
 587              	.LBE98:
   8:main.cpp      ****     const size_t DATASIZE = 28*1024;
   9:main.cpp      ****     const uint64_t DATASET = uint64_t(10)<<30;
  10:main.cpp      ****     printf("Hashing %d GiB", int(DATASET>>30));
 588              		.loc 2 10 0
 589 0028 BA0A0000 		movl	$10, %edx
 589      00
 590 002d 488D0D00 		leaq	.LC0(%rip), %rcx
 590      000000
 591 0034 E8000000 		call	printf
 591      00
 592              	.LVL45:
 593              	.LBB110:
 594              	.LBB108:
 595              		.loc 3 43 0
 596 0039 488D4B10 		leaq	16(%rbx), %rcx
 597 003d FF150000 		call	*__imp_QueryPerformanceFrequency(%rip)
 597      0000
 598              	.LVL46:
 599              	.LBB100:
 600              	.LBB101:
 601              	.LBB102:
 602              	.LBB103:
  25:timer.h       ****     }
 603              		.loc 3 25 0
 604 0043 488B3500 		movq	__imp_QueryPerformanceCounter(%rip), %rsi
 604      000000
 605 004a 4889D9   		movq	%rbx, %rcx
 606 004d FFD6     		call	*%rsi
 607              	.LVL47:
 608              	.LBE103:
 609              	.LBE102:
 610              	.LBB104:
 611              	.LBB105:
  30:timer.h       ****     }
 612              		.loc 3 30 0
 613 004f 488D4B08 		leaq	8(%rbx), %rcx
 614 0053 FFD6     		call	*%rsi
 615              	.LVL48:
 616              	.LBE105:
 617              	.LBE104:
  44:timer.h       **** 
  45:timer.h       ****         // Calculate the overhead of the timer
  46:timer.h       ****         m_overhead = Timer::GetOverhead();
  47:timer.h       ****     }
  48:timer.h       **** 
  49:timer.h       **** private:
  50:timer.h       **** 
  51:timer.h       ****     // Returns the overhead of the timer in ticks
  52:timer.h       ****     LONGLONG GetOverhead()
  53:timer.h       ****     {
  54:timer.h       ****         Start();
  55:timer.h       ****         Stop();
  56:timer.h       ****         return m_stop.QuadPart - m_start.QuadPart;
 618              		.loc 3 56 0
 619 0055 488B4424 		movq	40(%rsp), %rax
 619      28
 620              	.LBE101:
 621              	.LBE100:
 622              	.LBE108:
 623              	.LBE110:
 624              	.LBB111:
 625              	.LBB95:
  25:timer.h       ****     }
 626              		.loc 3 25 0
 627 005a 4889D9   		movq	%rbx, %rcx
 628              	.LBE95:
 629              	.LBE111:
 630              	.LBB112:
 631              	.LBB109:
 632              	.LBB107:
 633              	.LBB106:
 634              		.loc 3 56 0
 635 005d 482B4424 		subq	32(%rsp), %rax
 635      20
 636              	.LBE106:
 637              	.LBE107:
  46:timer.h       ****     }
 638              		.loc 3 46 0
 639 0062 48894424 		movq	%rax, 56(%rsp)
 639      38
 640              	.LVL49:
 641              	.LBE109:
 642              	.LBE112:
 643              	.LBB113:
 644              	.LBB96:
  25:timer.h       ****     }
 645              		.loc 3 25 0
 646 0067 FFD6     		call	*%rsi
 647              	.LVL50:
 648 0069 4C8D1D00 		leaq	28672+_ZZ4mainE4data(%rip), %r11
 648      700000
 649 0070 4C8D0580 		leaq	1024+_ZL9farsh_key(%rip), %r8
 649      040000
 650              	.LVL51:
 651              	.L48:
 652              	.LBE96:
 653              	.LBE113:
 654              	.LBB114:
 655              	.LBB115:
  11:main.cpp      ****     Timer t;  t.Start();
  12:main.cpp      **** 
  13:main.cpp      ****     for (int i=0; i<DATASET/DATASIZE; i++)
  14:main.cpp      ****     {
  15:main.cpp      ****         static char data[DATASIZE];  data[0]=(char)i;
 656              		.loc 2 15 0
 657 0077 44882500 		movb	%r12b, _ZZ4mainE4data(%rip)
 657      000000
 658              	.LVL52:
 659              	.LBB116:
 660              	.LBB117:
 661              	.LBB118:
  51:farsh.c       ****     const char *data = (const char*) data_ptr,  *end = data+bytes;
 662              		.loc 1 51 0
 663 007e 4531D2   		xorl	%r10d, %r10d
 664 0081 4531C9   		xorl	%r9d, %r9d
 665              	.LBB119:
  60:farsh.c       ****     }
 666              		.loc 1 60 0
 667 0084 31ED     		xorl	%ebp, %ebp
 668              	.LBE119:
  52:farsh.c       ****     while (data < end)
 669              		.loc 1 52 0
 670 0086 488D0D00 		leaq	_ZZ4mainE4data(%rip), %rcx
 670      000000
 671              	.LVL53:
 672 008d 0F1F00   		.p2align 4,,10
 673              	.L43:
 674 0090 488D0580 		leaq	_ZL9farsh_key(%rip), %rax
 674      000000
 675 0097 4889CA   		movq	%rcx, %rdx
 676              	.LBE118:
 677              	.LBE117:
 678              	.LBE116:
 679              	.LBE115:
 680              	.LBE114:
 681              	.LBB133:
 682              	.LBB97:
  25:timer.h       ****     }
 683              		.loc 3 25 0
 684 009a 660FEFED 		pxor	%xmm5, %xmm5
 685              	.LVL54:
 686 009e 6690     		.p2align 4,,10
 687              	.L44:
 688              	.LBE97:
 689              	.LBE133:
 690              	.LBB134:
 691              	.LBB132:
 692              	.LBB131:
 693              	.LBB130:
 694              	.LBB129:
 695              	.LBB128:
 696              	.LBB120:
 697              	.LBB121:
 698              	.LBB122:
 699              	.LBB123:
  19:farsh.c       ****     return (UINT)(sum >> 32);
 700              		.loc 1 19 0
 701 00a0 660F6F0A 		movdqa	(%rdx), %xmm1
 702 00a4 4883C020 		addq	$32, %rax
 703 00a8 4883C220 		addq	$32, %rdx
 704 00ac 660F6F60 		movdqa	-32(%rax), %xmm4
 704      E0
 705 00b1 660F6F72 		movdqa	-16(%rdx), %xmm6
 705      F0
 706 00b6 660F6FD9 		movdqa	%xmm1, %xmm3
 707 00ba 660F6F78 		movdqa	-16(%rax), %xmm7
 707      F0
 708 00bf 660F6FD4 		movdqa	%xmm4, %xmm2
 709 00c3 4C39C0   		cmpq	%r8, %rax
 710 00c6 0FC6DE88 		shufps	$136, %xmm6, %xmm3
 711 00ca 0FC6CEDD 		shufps	$221, %xmm6, %xmm1
 712 00ce 0FC6D788 		shufps	$136, %xmm7, %xmm2
 713 00d2 0FC6E7DD 		shufps	$221, %xmm7, %xmm4
 714 00d6 660FFED3 		paddd	%xmm3, %xmm2
 715 00da 660FFEE1 		paddd	%xmm1, %xmm4
 716 00de 660F6FDC 		movdqa	%xmm4, %xmm3
 717 00e2 660F6FCA 		movdqa	%xmm2, %xmm1
 718 00e6 660F6FC4 		movdqa	%xmm4, %xmm0
 719 00ea 660F62CA 		punpckldq	%xmm2, %xmm1
 720 00ee 660F62DC 		punpckldq	%xmm4, %xmm3
 721 00f2 660FF4CB 		pmuludq	%xmm3, %xmm1
 722 00f6 660F6AC4 		punpckhdq	%xmm4, %xmm0
 723 00fa 660F6AD2 		punpckhdq	%xmm2, %xmm2
 724 00fe 660FF4C2 		pmuludq	%xmm2, %xmm0
 725 0102 660FD4E9 		paddq	%xmm1, %xmm5
 726 0106 660FD4E8 		paddq	%xmm0, %xmm5
 727 010a 7594     		jne	.L44
 728              	.LBE123:
 729              	.LBE122:
 730              	.LBE121:
 731              	.LBE120:
  58:farsh.c       ****         if (++i == STRIPE_ELEMENTS)
 732              		.loc 1 58 0
 733 010c 4963D1   		movslq	%r9d, %rdx
 734 010f 660F6FC5 		movdqa	%xmm5, %xmm0
  59:farsh.c       ****             i = 0;/*to do*/
 735              		.loc 1 59 0
 736 0113 4183C101 		addl	$1, %r9d
 737              	.LVL55:
 738 0117 660F73D8 		psrldq	$8, %xmm0
 738      08
  58:farsh.c       ****         if (++i == STRIPE_ELEMENTS)
 739              		.loc 1 58 0
 740 011c 8B1497   		movl	(%rdi,%rdx,4), %edx
  57:farsh.c       ****         sum += h*(ULONG)key[i];
 741              		.loc 1 57 0
 742 011f 4881C100 		addq	$1024, %rcx
 742      040000
 743              	.LVL56:
 744 0126 660FD4C5 		paddq	%xmm5, %xmm0
 745 012a 66480F7E 		movq	%xmm0, %rax
 745      C0
 746              	.LBB127:
 747              	.LBB126:
 748              	.LBB125:
 749              	.LBB124:
  20:farsh.c       **** }
 750              		.loc 1 20 0
 751 012f 48C1E820 		shrq	$32, %rax
 752              	.LBE124:
 753              	.LBE125:
 754              	.LBE126:
 755              	.LBE127:
  58:farsh.c       ****         if (++i == STRIPE_ELEMENTS)
 756              		.loc 1 58 0
 757 0133 480FAFC2 		imulq	%rdx, %rax
 758 0137 4901C2   		addq	%rax, %r10
 759              	.LVL57:
  60:farsh.c       ****     }
 760              		.loc 1 60 0
 761 013a 4181F900 		cmpl	$256, %r9d
 761      010000
 762 0141 440F44CD 		cmove	%ebp, %r9d
 763              	.LVL58:
 764              	.LBE128:
  53:farsh.c       ****     {
 765              		.loc 1 53 0
 766 0145 4C39D9   		cmpq	%r11, %rcx
 767 0148 0F8242FF 		jb	.L43
 767      FFFF
  62:farsh.c       **** }
 768              		.loc 1 62 0
 769 014e 49C1EA20 		shrq	$32, %r10
 770              	.LVL59:
 771              	.LBE129:
 772              	.LBE130:
 773              	.LBE131:
  16:main.cpp      ****         auto h = farsh (data, DATASIZE);
  17:main.cpp      ****         if (h==42) break;
 774              		.loc 2 17 0
 775 0152 4983FA2A 		cmpq	$42, %r10
 776 0156 7411     		je	.L47
 777              	.LBE132:
  13:main.cpp      ****     {
 778              		.loc 2 13 0 discriminator 2
 779 0158 4183C401 		addl	$1, %r12d
 780              	.LVL60:
 781 015c 4181FCDB 		cmpl	$374491, %r12d
 781      B60500
 782 0163 0F850EFF 		jne	.L48
 782      FFFF
 783              	.L47:
 784              	.LVL61:
 785              	.LBE134:
 786              	.LBB135:
 787              	.LBB136:
  30:timer.h       ****     }
 788              		.loc 3 30 0
 789 0169 488D4B08 		leaq	8(%rbx), %rcx
 790              	.LVL62:
 791 016d FFD6     		call	*%rsi
 792              	.LVL63:
 793              	.LBE136:
 794              	.LBE135:
 795              	.LBB137:
 796              	.LBB138:
  36:timer.h       ****                                           * 1000.0 / m_freq.QuadPart;
 797              		.loc 3 36 0
 798 016f 488B4424 		movq	40(%rsp), %rax
 798      28
  37:timer.h       ****     }
 799              		.loc 3 37 0
 800 0174 660FEFC0 		pxor	%xmm0, %xmm0
 801 0178 660FEFD2 		pxor	%xmm2, %xmm2
  36:timer.h       ****                                           * 1000.0 / m_freq.QuadPart;
 802              		.loc 3 36 0
 803 017c 482B4424 		subq	32(%rsp), %rax
 803      20
 804              	.LBE138:
 805              	.LBE137:
  18:main.cpp      ****     }
  19:main.cpp      **** 
  20:main.cpp      ****     t.Stop();  auto speed = DATASET/(t.Elapsed()/1000);
  21:main.cpp      ****     printf(": %.3lf milliseconds = %.3lf GB/s = %.3lf GiB/s\n", t.Elapsed(), speed/1e9, speed/(1<<3
 806              		.loc 2 21 0
 807 0181 488D0D10 		leaq	.LC5(%rip), %rcx
 807      000000
 808              	.LBB140:
 809              	.LBB139:
  36:timer.h       ****                                           * 1000.0 / m_freq.QuadPart;
 810              		.loc 3 36 0
 811 0188 482B4424 		subq	56(%rsp), %rax
 811      38
  37:timer.h       ****     }
 812              		.loc 3 37 0
 813 018d F20F100D 		movsd	.LC1(%rip), %xmm1
 813      00050000 
 814 0195 F2480F2A 		cvtsi2sdq	48(%rsp), %xmm2
 814      542430
 815 019c F2480F2A 		cvtsi2sdq	%rax, %xmm0
 815      C0
 816 01a1 F20F59C1 		mulsd	%xmm1, %xmm0
 817 01a5 F20F5EC2 		divsd	%xmm2, %xmm0
 818              	.LBE139:
 819              	.LBE140:
  20:main.cpp      ****     printf(": %.3lf milliseconds = %.3lf GB/s = %.3lf GiB/s\n", t.Elapsed(), speed/1e9, speed/(1<<3
 820              		.loc 2 20 0
 821 01a9 660F28D0 		movapd	%xmm0, %xmm2
 822              		.loc 2 21 0
 823 01ad 66480F7E 		movq	%xmm0, %rdx
 823      C2
  20:main.cpp      ****     printf(": %.3lf milliseconds = %.3lf GB/s = %.3lf GiB/s\n", t.Elapsed(), speed/1e9, speed/(1<<3
 824              		.loc 2 20 0
 825 01b2 F20F5ED1 		divsd	%xmm1, %xmm2
 826 01b6 F20F100D 		movsd	.LC2(%rip), %xmm1
 826      08050000 
 827 01be F20F5ECA 		divsd	%xmm2, %xmm1
 828              	.LVL64:
 829              		.loc 2 21 0
 830 01c2 F20F1015 		movsd	.LC3(%rip), %xmm2
 830      10050000 
 831 01ca F20F59D1 		mulsd	%xmm1, %xmm2
 832 01ce F20F5E0D 		divsd	.LC4(%rip), %xmm1
 832      18050000 
 833              	.LVL65:
 834 01d6 66490F7E 		movq	%xmm1, %r8
 834      C8
 835 01db 660F28DA 		movapd	%xmm2, %xmm3
 836 01df 66490F7E 		movq	%xmm2, %r9
 836      D1
 837 01e4 660F28D1 		movapd	%xmm1, %xmm2
 838 01e8 660F28C8 		movapd	%xmm0, %xmm1
 839 01ec E8000000 		call	printf
 839      00
 840 01f1 90       		nop
 841              	.LVL66:
 842              	.LBE141:
  22:main.cpp      ****     return 0;
  23:main.cpp      **** }
 843              		.loc 2 23 0
 844 01f2 0F287424 		movaps	64(%rsp), %xmm6
 844      40
 845 01f7 31C0     		xorl	%eax, %eax
 846 01f9 0F287C24 		movaps	80(%rsp), %xmm7
 846      50
 847 01fe 4883C460 		addq	$96, %rsp
 848              		.cfi_restore 24
 849              		.cfi_restore 23
 850              		.cfi_def_cfa_offset 48
 851 0202 5B       		popq	%rbx
 852              		.cfi_restore 3
 853              		.cfi_def_cfa_offset 40
 854              	.LVL67:
 855 0203 5E       		popq	%rsi
 856              		.cfi_restore 4
 857              		.cfi_def_cfa_offset 32
 858 0204 5F       		popq	%rdi
 859              		.cfi_restore 5
 860              		.cfi_def_cfa_offset 24
 861 0205 5D       		popq	%rbp
 862              		.cfi_restore 6
 863              		.cfi_def_cfa_offset 16
 864 0206 415C     		popq	%r12
 865              		.cfi_restore 12
 866              		.cfi_def_cfa_offset 8
 867              	.LVL68:
 868 0208 C3       		ret
 869              		.cfi_endproc
 870              	.LFE3011:
 871              		.seh_endproc
 872              	.lcomm _ZZ4mainE4data,28672,64
 873 0209 90909090 		.section .rdata,"dr"
 873      909090
 874 0041 00000000 		.align 64
 874      00000000 
 874      00000000 
 874      00000000 
 874      00000000 
 875              	_ZL9farsh_key:
 876 0080 396CFEB8 		.long	-1191285703
 877 0084 BE4BA423 		.long	597969854
 878 0088 2C81017C 		.long	2080473388
 879 008c 1CAD21F7 		.long	-148787940
 880 0090 E96DD4DE 		.long	-556503575
 881 0094 DB979083 		.long	-2087675941
 882 0098 A4A44072 		.long	1916839076
 883 009c 1F67B3B7 		.long	-1212979425
 884 00a0 4EE679CB 		.long	-881203634
 885 00a4 78E5C0CC 		.long	-859773576
 886 00a8 7DD05A82 		.long	-2107977603
 887 00ac 2172FFCC 		.long	-855674335
 888 00b0 744608B8 		.long	-1207417228
 889 00b4 8E2443F7 		.long	-146594674
 890 00b8 E69035E0 		.long	-533360410
 891 00bc 4C263A81 		.long	-2126895540
 892 00c0 BB52283C 		.long	1009275579
 893 00c4 CB00C391 		.long	-1849491253
 894 00c8 8B65D088 		.long	-1999608437
 895 00cc A32E531B 		.long	458436259
 896 00d0 97486471 		.long	1902397591
 897 00d4 4EF90DA2 		.long	-1576142514
 898 00d8 46EF1938 		.long	941223750
 899 00dc D8ACDEA9 		.long	-1445024552
 900 00e0 3F76FAA8 		.long	-1459980737
 901 00e4 3F349CE3 		.long	-476302273
 902 00e8 C7BBDCF9 		.long	-102974521
 903 00ec 1D4F0BC7 		.long	-955560163
 904 00f0 4BE0518A 		.long	-1974345653
 905 00f4 3159B4CD 		.long	-843818703
 906 00f8 C97E9FC8 		.long	-929071415
 907 00fc 647378D9 		.long	-646417564
 908 0100 52076A4F 		.long	1332348754
 909 0104 9C079BA7 		.long	-1483012196
 910 0108 9994C48F 		.long	-1882942311
 911 010c A9B7C98E 		.long	-1899382871
 912 0110 4922C933 		.long	868819529
 913 0114 4F40B64E 		.long	1320566863
 914 0118 4EFB2AFB 		.long	-81069234
 915 011c 554281A4 		.long	-1535032747
 916 0120 981B0E2F 		.long	789453720
 917 0124 243BE9AC 		.long	-1394001116
 918 0128 CD508818 		.long	411586765
 919 012c A7745C6C 		.long	1817998503
 920 0130 0444FA66 		.long	1727677444
 921 0134 83ACC5EA 		.long	-356143997
 922 0138 C3EBD334 		.long	886303683
 923 013c FFA081C5 		.long	-981360385
 924 0140 EB6313FA 		.long	-99392533
 925 0144 51DD0D17 		.long	386784593
 926 0148 49DAF0B7 		.long	-1208952247
 927 014c 265516D3 		.long	-753511130
 928 0150 9E68D429 		.long	701786270
 929 0154 58BE162B 		.long	722910808
 930 0158 FCA1477D 		.long	2101846524
 931 015c D1B8F88F 		.long	-1879525167
 932 0160 CE31D07A 		.long	2060464590
 933 0164 8F3ACB45 		.long	1170946703
 934 0168 28041695 		.long	-1793719256
 935 016c CAFBD7AF 		.long	-1344799798
 936 0170 7E404BBB 		.long	-1152696194
 937 0174 A4745299 		.long	-1722649436
 938 0178 932D9AEB 		.long	-342217325
 939 017c 0889E73B 		.long	1005029640
 940 0180 6C5F47ED 		.long	-314089620
 941 0184 F2D89C91 		.long	-1851991822
 942 0188 5A1E86D3 		.long	-746185126
 943 018c 0C39316E 		.long	1848719628
 944 0190 493A6AFE 		.long	-26592695
 945 0194 1409ADDC 		.long	-592639724
 946 0198 EB8B5006 		.long	105941995
 947 019c F39983A8 		.long	-1467770381
 948 01a0 2F1158B0 		.long	-1336405713
 949 01a4 79FAB0E8 		.long	-391054727
 950 01a8 06DAB429 		.long	699718150
 951 01ac FB53C2ED 		.long	-306031621
 952 01b0 AD6DE9C3 		.long	-1008112211
 953 01b4 832B376E 		.long	1849109379
 954 01b8 53B1784F 		.long	1333309779
 955 01bc 866EFAFF 		.long	-364922
 956 01c0 ECEEBE21 		.long	566161132
 957 01c4 02EACA01 		.long	30075394
 958 01c8 0DE56712 		.long	308798733
 959 01cc 2F09E611 		.long	300288303
 960 01d0 98D219E8 		.long	-400960872
 961 01d4 DD802F83 		.long	-2094038819
 962 01d8 77244E0C 		.long	206447735
 963 01dc EB8678BC 		.long	-1132951829
 964 01e0 37665001 		.long	22046263
 965 01e4 6896A88B 		.long	-1951885720
 966 01e8 A0E7116D 		.long	1829889952
 967 01ec 15FD12FC 		.long	-65864427
 968 01f0 194CA586 		.long	-2035987431
 969 01f4 DDE33C59 		.long	1497162717
 970 01f8 E53FB1D2 		.long	-760135707
 971 01fc 532B778E 		.long	-1904792749
 972 0200 CC604AAE 		.long	-1370857268
 973 0204 1B3B7A64 		.long	1685732123
 974 0208 E0867754 		.long	1417119456
 975 020c 8E37C43E 		.long	1053046670
 976 0210 89CF7A8D 		.long	-1921331319
 977 0214 47F936CA 		.long	-902366905
 978 0218 EFD5890E 		.long	243914223
 979 021c 3C6ADAAA 		.long	-1428526532
 980 0220 09A1A46D 		.long	1839505673
 981 0224 1CE1C69A 		.long	-1698242276
 982 0228 EF916668 		.long	1751552495
 983 022c 2BBD57A3 		.long	-1554531029
 984 0230 9A1B6FD1 		.long	-781247590
 985 0234 0303C738 		.long	952566531
 986 0238 B322467D 		.long	2101748403
 987 023c 8FFA6829 		.long	694745743
 988 0240 B9BCA58C 		.long	-1935295303
 989 0244 0510D6FC 		.long	-53080059
 990 0248 965E8B22 		.long	579559062
 991 024c 19CC9D2C 		.long	748538905
 992 0250 3C24CF57 		.long	1473193020
 993 0254 C1F9533C 		.long	1012136385
 994 0258 2C95C70C 		.long	214406444
 995 025c F0E46D68 		.long	1752032496
 996 0260 B547A793 		.long	-1817753675
 997 0264 10A5874E 		.long	1317512464
 998 0268 AE915E97 		.long	-1755410002
 999 026c 8EB9104C 		.long	1276164494
 1000 0270 8C067F8A 		.long	-1971386740
 1001 0274 AB196B34 		.long	879434155
 1002 0278 25A63C35 		.long	893167141
 1003 027c E0500AF2 		.long	-234204960
 1004 0280 F62199CE 		.long	-828825098
 1005 0284 14E066DF 		.long	-546906092
 1006 0288 4BEF110A 		.long	168947531
 1007 028c DF4DC88B 		.long	-1949807137
 1008 0290 225DD284 		.long	-2066588382
 1009 0294 6D9323C8 		.long	-937192595
 1010 0298 C31E7494 		.long	-1804329277
 1011 029c 608A2788 		.long	-2010674592
 1012 02a0 319364B8 		.long	-1201368271
 1013 02a4 107A707A 		.long	2054191632
 1014 02a8 D6CA9272 		.long	1922222806
 1015 02ac C244C6A7 		.long	-1480178494
 1016 02b0 FA6B15BD 		.long	-1122669574
 1017 02b4 78956C64 		.long	1684837752
 1018 02b8 D5DFF4B7 		.long	-1208688683
 1019 02bc A777829F 		.long	-1618839641
 1020 02c0 4E921370 		.long	1880330830
 1021 02c4 C34C67AD 		.long	-1385739069
 1022 02c8 059DAE2C 		.long	749640965
 1023 02cc 229A2A91 		.long	-1859479006
 1024 02d0 FA537CF6 		.long	-159624198
 1025 02d4 A9227E8D 		.long	-1921113431
 1026 02d8 2B37AE59 		.long	1504589611
 1027 02dc F3990185 		.long	-2063492621
 1028 02e0 2C10A263 		.long	1671565356
 1029 02e4 6112FFD6 		.long	-687926687
 1030 02e8 E18E7356 		.long	1450413793
 1031 02ec 5B1495AA 		.long	-1433070501
 1032 02f0 3228D1FD 		.long	-36624334
 1033 02f4 EB4D685B 		.long	1533562347
 1034 02f8 94DE8407 		.long	126148244
 1035 02fc 0E3962AA 		.long	-1436403442
 1036 0300 19CF7CBB 		.long	-1149448423
 1037 0304 72D5EF0F 		.long	267375986
 1038 0308 CA415B56 		.long	1448821194
 1039 030c 02D20622 		.long	570872322
 1040 0310 7984602D 		.long	761300089
 1041 0314 3DCD0F4C 		.long	1276103997
 1042 0318 E33B6DD3 		.long	-747815965
 1043 031c 659A5A15 		.long	358259301
 1044 0320 32E7F910 		.long	284813106
 1045 0324 1E0F9BAC 		.long	-1399124194
 1046 0328 3BA0721F 		.long	527605819
 1047 032c AE4094EA 		.long	-359382866
 1048 0330 4F4B675B 		.long	1533496143
 1049 0334 D127A831 		.long	833103825
 1050 0338 4F95CAEC 		.long	-322267825
 1051 033c 1ED62C3D 		.long	1026348574
 1052 0340 A43D8D76 		.long	1988967844
 1053 0344 C15A7493 		.long	-1821091135
 1054 0348 CB585D1D 		.long	492656843
 1055 034c B6F3864B 		.long	1267135414
 1056 0350 3A92BA2A 		.long	716870202
 1057 0354 4C81650E 		.long	241533260
 1058 0358 D963E08A 		.long	-1965005863
 1059 035c B06969CD 		.long	-848729680
 1060 0360 85156436 		.long	912528773
 1061 0364 9DF52A74 		.long	1948972445
 1062 0368 16133A61 		.long	1631195926
 1063 036c 71A48E33 		.long	864986225
 1064 0370 F31A8647 		.long	1199971059
 1065 0374 C39D4730 		.long	809999811
 1066 0378 81A47012 		.long	309372033
 1067 037c 69107708 		.long	142020713
 1068 0380 D2F0C4E3 		.long	-473632558
 1069 0384 4C872902 		.long	36276044
 1070 0388 C13B8A5A 		.long	1519008705
 1071 038c 33970DE3 		.long	-485648589
 1072 0390 A2E55BD0 		.long	-799283806
 1073 0394 BA31AFE2 		.long	-491834950
 1074 0398 F9492022 		.long	572541433
 1075 039c 6A3B929F 		.long	-1617806486
 1076 03a0 EC643F03 		.long	54486252
 1077 03a4 2BB628E5 		.long	-450316757
 1078 03a8 BDEF0182 		.long	-2113802307
 1079 03ac 77D80721 		.long	554162295
 1080 03b0 F12E31D8 		.long	-667865359
 1081 03b4 999F67A5 		.long	-1519935591
 1082 03b8 1BB53017 		.long	389068059
 1083 03bc D2162675 		.long	1965430482
 1084 03c0 09593005 		.long	87054601
 1085 03c4 0B44CA0D 		.long	231359499
 1086 03c8 D9CD9320 		.long	546557401
 1087 03cc 50AB0964 		.long	1678355280
 1088 03d0 CC8E5CBA 		.long	-1168339252
 1089 03d4 EA08478D 		.long	-1924724502
 1090 03d8 17099F42 		.long	1117718807
 1091 03dc B0FA62B7 		.long	-1218250064
 1092 03e0 75EA6151 		.long	1365371509
 1093 03e4 EBA0EB45 		.long	1173070059
 1094 03e8 414BF3B6 		.long	-1225569471
 1095 03ec 23710452 		.long	1376022819
 1096 03f0 231518E4 		.long	-468183773
 1097 03f4 0AE9748D 		.long	-1921718006
 1098 03f8 1C40FA54 		.long	1425686556
 1099 03fc C70CDADD 		.long	-572912441
 1100 0400 2A18DF63 		.long	1675565098
 1101 0404 F63E40C6 		.long	-968868106
 1102 0408 E8C68E34 		.long	881772264
 1103 040c F557FFB9 		.long	-1174448139
 1104 0410 BDB852F6 		.long	-162350915
 1105 0414 F3B0860F 		.long	260485363
 1106 0418 8A083AFB 		.long	-80082806
 1107 041c 3315C74D 		.long	1304892723
 1108 0420 D217367B 		.long	2067142610
 1109 0424 EB874EA3 		.long	-1555134485
 1110 0428 DD9B2ABA 		.long	-1171612707
 1111 042c 061338E3 		.long	-482864378
 1112 0430 BBD6BA14 		.long	347788987
 1113 0434 C2C76DC9 		.long	-915552318
 1114 0438 B6543B33 		.long	859526326
 1115 043c FA7CE49B 		.long	-1679524614
 1116 0440 9992CF1D 		.long	500142745
 1117 0444 995FEAE7 		.long	-404070503
 1118 0448 CDEA8FB3 		.long	-1282413875
 1119 044c F7E2CFC3 		.long	-1009786121
 1120 0450 22E8875B 		.long	1535633442
 1121 0454 56ABC539 		.long	969255766
 1122 0458 8FA1F418 		.long	418685327
 1123 045c 9C4D482D 		.long	759713180
 1124 0460 19D56341 		.long	1097061657
 1125 0464 989E7679 		.long	2037816984
 1126 0468 F0678AF5 		.long	-175478800
 1127 046c 020C5940 		.long	1079577602
 1128 0470 C0719631 		.long	831943104
 1129 0474 3A136B26 		.long	644551482
 1130 0478 87B281AF 		.long	-1350454649
 1131 047c 37F7316A 		.long	1781659447
 1132 0480 9701BCE3 		.long	-474218089
 1133 0484 13990755 		.long	1426561299
 1134 0488 96C6729F 		.long	-1619868010
 1135 048c C8003E36 		.long	910033096
 1136 0490 47391553 		.long	1393899847
 1137 0494 7F12FDEB 		.long	-335736193
 1138 0498 1905F600 		.long	16123161
 1139 049c 2AB6A646 		.long	1185330730
 1140 04a0 8033B893 		.long	-1816644736
 1141 04a4 2493E23F 		.long	1071813412
 1142 04a8 9170C6DF 		.long	-540643183
 1143 04ac 6D38620F 		.long	258095213
 1144 04b0 795E37DC 		.long	-600351111
 1145 04b4 3E3FEA8F 		.long	-1880473794
 1146 04b8 D06384DF 		.long	-544971824
 1147 04bc 7BFA0237 		.long	922942075
 1148 04c0 5E435439 		.long	961823582
 1149 04c4 48A6CA87 		.long	-2016762296
 1150 04c8 EE8B15A9 		.long	-1458205714
 1151 04cc 250CF308 		.long	150146085
 1152 04d0 3629B866 		.long	1723345206
 1153 04d4 EB3FFCE7 		.long	-402898965
 1154 04d8 50543C18 		.long	406606928
 1155 04dc 4543EFD7 		.long	-672185531
 1156 04e0 63798C79 		.long	2039249251
 1157 04e4 57F52CC0 		.long	-1070795433
 1158 04e8 D1538509 		.long	159732689
 1159 04ec AA1243FA 		.long	-96267606
 1160 04f0 83F89EE2 		.long	-492898173
 1161 04f4 8D12AF7C 		.long	2091848333
 1162 04f8 7DA0B374 		.long	1957929085
 1163 04fc 00000000 		.align 8
 1164              	.LC1:
 1165 0500 00000000 		.long	0
 1166 0504 00408F40 		.long	1083129856
 1167              		.align 8
 1168              	.LC2:
 1169 0508 00000000 		.long	0
 1170 050c 00000442 		.long	1107558400
 1171              		.align 8
 1172              	.LC3:
 1173 0510 00000000 		.long	0
 1174 0514 0000103E 		.long	1041235968
 1175              		.align 8
 1176              	.LC4:
 1177 0518 00000000 		.long	0
 1178 051c 65CDCD41 		.long	1104006501
 1179 0520 00000000 		.text
 1179      00000000 
 1179      00000000 
 1179      00000000 
 1179      00000000 
 1180              	.Letext0:
 1181              		.file 4 "C:/Base/Compiler/MinGW-4.9.2/mingw32/i686-w64-mingw32/include/crtdefs.h"
 1182              		.file 5 "C:/Base/Compiler/MinGW-4.9.2/mingw32/i686-w64-mingw32/include/stdint.h"
 1183              		.file 6 "C:/Base/Compiler/MinGW-4.9.2/mingw32/i686-w64-mingw32/include/minwindef.h"
 1184              		.file 7 "C:/Base/Compiler/MinGW-4.9.2/mingw32/i686-w64-mingw32/include/winnt.h"
 1185              		.file 8 "C:/Base/Compiler/MinGW-4.9.2/mingw32/i686-w64-mingw32/include/stdio.h"