   1              		.file	"main.cpp"
   2              		.text
   3              	.Ltext0:
   4              		.cfi_sections	.debug_frame
   5              		.p2align 4,,15
   6              		.globl	_Z11farsh_keyedPKvyPKj
   8              		.seh_proc	_Z11farsh_keyedPKvyPKj
   9              	_Z11farsh_keyedPKvyPKj:
  10              	.LFB3006:
  11              		.file 1 "farsh.c"
   1:farsh.c       **** #include <stdlib.h>
   2:farsh.c       **** #include <memory.h>
   3:farsh.c       **** 
   4:farsh.c       **** #define UINT  /*uint32_t*/ unsigned
   5:farsh.c       **** #define ULONG /*uint64_t*/ unsigned long long
   6:farsh.c       **** 
   7:farsh.c       **** #define STRIPE          1024
   8:farsh.c       **** #define STRIPE_ELEMENTS (STRIPE/sizeof(UINT))
   9:farsh.c       **** static const UINT farsh_key[STRIPE_ELEMENTS+1024/32-1] = {  /* STRIPE bytes of key material plus ex
  10:farsh.c       ****     0xb8fe6c39,0x23a44bbe,0x7c01812c,0xf721ad1c,0xded46de9,0x839097db,0x7240a4a4,0xb7b3671f,0xcb79e
  11:farsh.c       ****     0xe3bc0197,0x55079913,0x9f72c696,0x363e00c8,0x53153947,0xebfd127f,0x00f60519,0x46a6b62a,0x93b83
  12:farsh.c       ****     };
  13:farsh.c       **** 
  14:farsh.c       **** /* Hash up to STRIPE bytes, consisting of whole UINT pairs, including optional
  15:farsh.c       ****    UINT pair in the extra[] */
  16:farsh.c       **** #if (__GNUC__>0) || defined(__clang__)
  17:farsh.c       **** __attribute__((always_inline)) inline
  18:farsh.c       **** #else
  19:farsh.c       **** __forceinline
  20:farsh.c       **** #endif
  21:farsh.c       **** static UINT farsh_pairs (const UINT *data, size_t elements, const UINT* extra, const UINT *farsh_ke
  22:farsh.c       **** {
  23:farsh.c       ****     ULONG sum = 0;  int i;
  24:farsh.c       ****     for (i=0; i < elements; i+=2)
  25:farsh.c       ****         sum += (data[i] + farsh_key[i]) * (ULONG)(data[i+1] + farsh_key[i+1]);
  26:farsh.c       ****     if (extra)
  27:farsh.c       ****         sum += (extra[0] + farsh_key[i]) * (ULONG)(extra[1] + farsh_key[i+1]);
  28:farsh.c       ****     return (UINT)(sum >> 32);
  29:farsh.c       **** }
  30:farsh.c       **** 
  31:farsh.c       **** /* Hash up to STRIPE bytes, with special optimization for exactly STRIPE input
  32:farsh.c       ****    bytes and careful handling of partial UINT pair at the end of buffer */
  33:farsh.c       **** static UINT farsh_block (const void *data_ptr, size_t bytes, const UINT *farsh_key)
  34:farsh.c       **** {
  35:farsh.c       ****     const UINT *data = (const UINT*) data_ptr;
  36:farsh.c       ****     if (bytes == STRIPE)  return farsh_pairs (data, STRIPE_ELEMENTS, NULL, farsh_key);
  37:farsh.c       ****     size_t elements = (bytes/sizeof(UINT)) & (~1);
  38:farsh.c       ****     UINT extra_data[2] = {0};
  39:farsh.c       ****     size_t extra_bytes = bytes - elements*sizeof(UINT);
  40:farsh.c       ****     memcpy (extra_data, data+elements, extra_bytes);
  41:farsh.c       ****     return farsh_pairs (data, elements, extra_bytes?extra_data:NULL, farsh_key);
  42:farsh.c       **** }
  43:farsh.c       **** 
  44:farsh.c       **** /* Hash the buffer of arbitrary size */
  45:farsh.c       **** UINT farsh_keyed (const void *data_ptr, size_t bytes, const UINT *farsh_key)
  46:farsh.c       **** {
  12              		.loc 1 46 0
  13              		.cfi_startproc
  14              	.LVL0:
  15 0000 4157     		pushq	%r15
  16              		.seh_pushreg	%r15
  17              		.cfi_def_cfa_offset 16
  18              		.cfi_offset 15, -16
  19 0002 4156     		pushq	%r14
  20              		.seh_pushreg	%r14
  21              		.cfi_def_cfa_offset 24
  22              		.cfi_offset 14, -24
  23 0004 4155     		pushq	%r13
  24              		.seh_pushreg	%r13
  25              		.cfi_def_cfa_offset 32
  26              		.cfi_offset 13, -32
  27 0006 4154     		pushq	%r12
  28              		.seh_pushreg	%r12
  29              		.cfi_def_cfa_offset 40
  30              		.cfi_offset 12, -40
  31 0008 55       		pushq	%rbp
  32              		.seh_pushreg	%rbp
  33              		.cfi_def_cfa_offset 48
  34              		.cfi_offset 6, -48
  35 0009 57       		pushq	%rdi
  36              		.seh_pushreg	%rdi
  37              		.cfi_def_cfa_offset 56
  38              		.cfi_offset 5, -56
  39 000a 56       		pushq	%rsi
  40              		.seh_pushreg	%rsi
  41              		.cfi_def_cfa_offset 64
  42              		.cfi_offset 4, -64
  43 000b 53       		pushq	%rbx
  44              		.seh_pushreg	%rbx
  45              		.cfi_def_cfa_offset 72
  46              		.cfi_offset 3, -72
  47 000c 4883EC58 		subq	$88, %rsp
  48              		.seh_stackalloc	88
  49              		.cfi_def_cfa_offset 160
  50 0010 0F297424 		movaps	%xmm6, 64(%rsp)
  50      40
  51              		.seh_savexmm	%xmm6, 64
  52              		.cfi_offset 23, -96
  53              		.seh_endprologue
  54              	.LVL1:
  55              	.LBB49:
  47:farsh.c       ****     ULONG sum = 0;  int i = 0;
  48:farsh.c       ****     const char *data = (const char*) data_ptr,  *end = data+bytes;
  56              		.loc 1 48 0
  57 0015 488D2C11 		leaq	(%rcx,%rdx), %rbp
  58              	.LVL2:
  59              	.LBE49:
  46:farsh.c       ****     ULONG sum = 0;  int i = 0;
  60              		.loc 1 46 0
  61 0019 4889CB   		movq	%rcx, %rbx
  62 001c 4C89C6   		movq	%r8, %rsi
  63              	.LBB62:
  49:farsh.c       ****     while (data < end)
  64              		.loc 1 49 0
  65 001f 4839E9   		cmpq	%rbp, %rcx
  66 0022 0F83E401 		jae	.L14
  66      0000
  67 0028 4881FA00 		cmpq	$1024, %rdx
  67      040000
  68 002f 41B90004 		movl	$1024, %r9d
  68      0000
  69 0035 4C0F46CA 		cmovbe	%rdx, %r9
  70 0039 4C8D5424 		leaq	48(%rsp), %r10
  70      30
  71              	.LBB50:
  72              	.LBB51:
  73              	.LBB52:
  37:farsh.c       ****     UINT extra_data[2] = {0};
  74              		.loc 1 37 0
  75 003e 4D89CF   		movq	%r9, %r15
  76 0041 4D89CD   		movq	%r9, %r13
  77 0044 49C1EF02 		shrq	$2, %r15
  78 0048 4983E7FE 		andq	$-2, %r15
  39:farsh.c       ****     memcpy (extra_data, data+elements, extra_bytes);
  79              		.loc 1 39 0
  80 004c 4A8D04BD 		leaq	0(,%r15,4), %rax
  80      00000000 
  81 0054 4929C5   		subq	%rax, %r13
  82 0057 48894424 		movq	%rax, 40(%rsp)
  82      28
  83 005c B8000000 		movl	$0, %eax
  83      00
  84 0061 490F45C2 		cmovne	%r10, %rax
  85 0065 4531E4   		xorl	%r12d, %r12d
  86 0068 31FF     		xorl	%edi, %edi
  87              	.LBE52:
  88              	.LBE51:
  50:farsh.c       ****     {
  51:farsh.c       ****         size_t minbytes = (bytes<STRIPE? bytes : STRIPE);
  52:farsh.c       ****         UINT h = farsh_block (data, minbytes, farsh_key);
  53:farsh.c       ****         data += minbytes;
  54:farsh.c       ****         sum += h*(ULONG)farsh_key[i];
  55:farsh.c       ****         if (++i == STRIPE_ELEMENTS)
  56:farsh.c       ****             i = 0;/*to do*/
  89              		.loc 1 56 0
  90 006a 4D89E6   		movq	%r12, %r14
  91 006d 4D89CC   		movq	%r9, %r12
  92 0070 48894424 		movq	%rax, 32(%rsp)
  92      20
  93              	.LVL3:
  94              		.p2align 4,,10
  95              	.L12:
  96              	.LBB59:
  97              	.LBB57:
  36:farsh.c       ****     size_t elements = (bytes/sizeof(UINT)) & (~1);
  98              		.loc 1 36 0
  99 0075 4981FC00 		cmpq	$1024, %r12
  99      040000
 100 007c 0F85DE00 		jne	.L3
 100      0000
 101 0082 31C0     		xorl	%eax, %eax
 102 0084 660FEFDB 		pxor	%xmm3, %xmm3
 103 0088 0F1F8400 		.p2align 4,,10
 103      00000000 
 104              	.L4:
 105              	.LBB53:
 106              	.LBB54:
  25:farsh.c       ****     if (extra)
 107              		.loc 1 25 0
 108 0090 F30F6F14 		movdqu	(%rbx,%rax), %xmm2
 108      03
 109 0095 F30F6F0C 		movdqu	(%rsi,%rax), %xmm1
 109      06
 110 009a F30F6F6C 		movdqu	16(%rbx,%rax), %xmm5
 110      0310
 111 00a0 660F6FC2 		movdqa	%xmm2, %xmm0
 112 00a4 F30F6F74 		movdqu	16(%rsi,%rax), %xmm6
 112      0610
 113 00aa 660F6FE1 		movdqa	%xmm1, %xmm4
 114 00ae 4883C020 		addq	$32, %rax
 115 00b2 0FC6D5DD 		shufps	$221, %xmm5, %xmm2
 116 00b6 0FC6C588 		shufps	$136, %xmm5, %xmm0
 117 00ba 483D0004 		cmpq	$1024, %rax
 117      0000
 118 00c0 0FC6E688 		shufps	$136, %xmm6, %xmm4
 119 00c4 0FC6CEDD 		shufps	$221, %xmm6, %xmm1
 120 00c8 660FFEC4 		paddd	%xmm4, %xmm0
 121 00cc 660FFECA 		paddd	%xmm2, %xmm1
 122 00d0 660F6FE1 		movdqa	%xmm1, %xmm4
 123 00d4 660F6FD0 		movdqa	%xmm0, %xmm2
 124 00d8 660F62E1 		punpckldq	%xmm1, %xmm4
 125 00dc 660F62D0 		punpckldq	%xmm0, %xmm2
 126 00e0 660FF4D4 		pmuludq	%xmm4, %xmm2
 127 00e4 660F6AC9 		punpckhdq	%xmm1, %xmm1
 128 00e8 660F6AC0 		punpckhdq	%xmm0, %xmm0
 129 00ec 660FF4C1 		pmuludq	%xmm1, %xmm0
 130 00f0 660FD4DA 		paddq	%xmm2, %xmm3
 131 00f4 660FD4D8 		paddq	%xmm0, %xmm3
 132              	.LVL4:
 133 00f8 7596     		jne	.L4
 134 00fa 660F6FC3 		movdqa	%xmm3, %xmm0
 135 00fe 660F73D8 		psrldq	$8, %xmm0
 135      08
 136              	.LVL5:
 137 0103 660FD4D8 		paddq	%xmm0, %xmm3
 138              	.LVL6:
 139 0107 66480F7E 		movq	%xmm3, %rdx
 139      DA
  28:farsh.c       **** }
 140              		.loc 1 28 0
 141 010c 48C1EA20 		shrq	$32, %rdx
 142              	.L5:
 143              	.LBE54:
 144              	.LBE53:
 145              	.LBE57:
 146              	.LBE59:
  54:farsh.c       ****         if (++i == STRIPE_ELEMENTS)
 147              		.loc 1 54 0
 148 0110 4863C7   		movslq	%edi, %rax
  55:farsh.c       ****             i = 0;/*to do*/
 149              		.loc 1 55 0
 150 0113 83C701   		addl	$1, %edi
 151              	.LVL7:
  53:farsh.c       ****         sum += h*(ULONG)farsh_key[i];
 152              		.loc 1 53 0
 153 0116 4C01E3   		addq	%r12, %rbx
 154              	.LVL8:
  54:farsh.c       ****         if (++i == STRIPE_ELEMENTS)
 155              		.loc 1 54 0
 156 0119 8B0486   		movl	(%rsi,%rax,4), %eax
 157 011c 480FAFD0 		imulq	%rax, %rdx
 158              		.loc 1 56 0
 159 0120 B8000000 		movl	$0, %eax
 159      00
  54:farsh.c       ****         if (++i == STRIPE_ELEMENTS)
 160              		.loc 1 54 0
 161 0125 4901D6   		addq	%rdx, %r14
 162              	.LVL9:
 163              		.loc 1 56 0
 164 0128 81FF0001 		cmpl	$256, %edi
 164      0000
 165 012e 0F44F8   		cmove	%eax, %edi
 166              	.LVL10:
 167              	.LBE50:
  49:farsh.c       ****     {
 168              		.loc 1 49 0
 169 0131 4839DD   		cmpq	%rbx, %rbp
 170 0134 0F873BFF 		ja	.L12
 170      FFFF
 171 013a 4D89F4   		movq	%r14, %r12
 172              	.LVL11:
 173 013d 49C1EC20 		shrq	$32, %r12
 174 0141 4C89E0   		movq	%r12, %rax
 175              	.LVL12:
 176              	.L22:
 177              	.LBE62:
  57:farsh.c       ****     }
  58:farsh.c       ****     return (UINT)(sum >> 32);
  59:farsh.c       **** }
 178              		.loc 1 59 0
 179 0144 0F287424 		movaps	64(%rsp), %xmm6
 179      40
 180 0149 4883C458 		addq	$88, %rsp
 181              		.cfi_remember_state
 182              		.cfi_restore 23
 183              		.cfi_def_cfa_offset 72
 184 014d 5B       		popq	%rbx
 185              		.cfi_restore 3
 186              		.cfi_def_cfa_offset 64
 187              	.LVL13:
 188 014e 5E       		popq	%rsi
 189              		.cfi_restore 4
 190              		.cfi_def_cfa_offset 56
 191              	.LVL14:
 192 014f 5F       		popq	%rdi
 193              		.cfi_restore 5
 194              		.cfi_def_cfa_offset 48
 195 0150 5D       		popq	%rbp
 196              		.cfi_restore 6
 197              		.cfi_def_cfa_offset 40
 198              	.LVL15:
 199 0151 415C     		popq	%r12
 200              		.cfi_restore 12
 201              		.cfi_def_cfa_offset 32
 202 0153 415D     		popq	%r13
 203              		.cfi_restore 13
 204              		.cfi_def_cfa_offset 24
 205 0155 415E     		popq	%r14
 206              		.cfi_restore 14
 207              		.cfi_def_cfa_offset 16
 208 0157 415F     		popq	%r15
 209              		.cfi_restore 15
 210              		.cfi_def_cfa_offset 8
 211 0159 C3       		ret
 212              	.LVL16:
 213 015a 660F1F44 		.p2align 4,,10
 213      0000
 214              	.L3:
 215              		.cfi_restore_state
 216 0160 488B4424 		movq	40(%rsp), %rax
 216      28
 217              	.LBB63:
 218              	.LBB61:
 219              	.LBB60:
 220              	.LBB58:
  40:farsh.c       ****     return farsh_pairs (data, elements, extra_bytes?extra_data:NULL, farsh_key);
 221              		.loc 1 40 0
 222 0165 4C89D1   		movq	%r10, %rcx
 223 0168 4D89E8   		movq	%r13, %r8
  38:farsh.c       ****     size_t extra_bytes = bytes - elements*sizeof(UINT);
 224              		.loc 1 38 0
 225 016b 48C74424 		movq	$0, 48(%rsp)
 225      30000000 
 225      00
 226              	.LVL17:
 227 0174 488D1403 		leaq	(%rbx,%rax), %rdx
  40:farsh.c       ****     return farsh_pairs (data, elements, extra_bytes?extra_data:NULL, farsh_key);
 228              		.loc 1 40 0
 229 0178 E8000000 		call	memcpy
 229      00
 230              	.LVL18:
  41:farsh.c       **** }
 231              		.loc 1 41 0
 232 017d 4D85ED   		testq	%r13, %r13
  40:farsh.c       ****     return farsh_pairs (data, elements, extra_bytes?extra_data:NULL, farsh_key);
 233              		.loc 1 40 0
 234 0180 4989C2   		movq	%rax, %r10
  41:farsh.c       **** }
 235              		.loc 1 41 0
 236 0183 746B     		je	.L28
 237              	.LVL19:
 238              	.LBB55:
 239              	.LBB56:
  24:farsh.c       ****         sum += (data[i] + farsh_key[i]) * (ULONG)(data[i+1] + farsh_key[i+1]);
 240              		.loc 1 24 0
 241 0185 31D2     		xorl	%edx, %edx
 242 0187 31C0     		xorl	%eax, %eax
 243 0189 4D85FF   		testq	%r15, %r15
 244 018c 7470     		je	.L29
 245              	.LVL20:
 246 018e 6690     		.p2align 4,,10
 247              	.L17:
  25:farsh.c       ****     if (extra)
 248              		.loc 1 25 0
 249 0190 8B4C8304 		movl	4(%rbx,%rax,4), %ecx
 250 0194 4189C8   		movl	%ecx, %r8d
 251 0197 8B0C83   		movl	(%rbx,%rax,4), %ecx
 252 019a 44034486 		addl	4(%rsi,%rax,4), %r8d
 252      04
 253 019f 030C86   		addl	(%rsi,%rax,4), %ecx
 254 01a2 4883C002 		addq	$2, %rax
 255              	.LVL21:
 256 01a6 490FAFC8 		imulq	%r8, %rcx
 257 01aa 4801CA   		addq	%rcx, %rdx
 258              	.LVL22:
  24:farsh.c       ****         sum += (data[i] + farsh_key[i]) * (ULONG)(data[i+1] + farsh_key[i+1]);
 259              		.loc 1 24 0
 260 01ad 4939C7   		cmpq	%rax, %r15
 261 01b0 77DE     		ja	.L17
  26:farsh.c       ****         sum += (extra[0] + farsh_key[i]) * (ULONG)(extra[1] + farsh_key[i+1]);
 262              		.loc 1 26 0
 263 01b2 48837C24 		cmpq	$0, 32(%rsp)
 263      2000
 264 01b8 7429     		je	.L25
 265 01ba 4C8B4424 		movq	32(%rsp), %r8
 265      20
 266 01bf 48C1E002 		salq	$2, %rax
 267 01c3 4C8D5804 		leaq	4(%rax), %r11
 268              	.LVL23:
 269              	.L13:
  27:farsh.c       ****     return (UINT)(sum >> 32);
 270              		.loc 1 27 0
 271 01c7 418B4804 		movl	4(%r8), %ecx
 272 01cb 458B00   		movl	(%r8), %r8d
 273              	.LVL24:
 274 01ce 42030C1E 		addl	(%rsi,%r11), %ecx
 275              	.LVL25:
 276 01d2 4589C1   		movl	%r8d, %r9d
 277 01d5 44030C06 		addl	(%rsi,%rax), %r9d
 278 01d9 4C89C8   		movq	%r9, %rax
 279 01dc 480FAFC1 		imulq	%rcx, %rax
 280 01e0 4801C2   		addq	%rax, %rdx
 281              	.L25:
 282 01e3 48C1EA20 		shrq	$32, %rdx
 283 01e7 E924FFFF 		jmp	.L5
 283      FF
 284              	.LVL26:
 285 01ec 0F1F4000 		.p2align 4,,10
 286              	.L28:
  24:farsh.c       ****         sum += (data[i] + farsh_key[i]) * (ULONG)(data[i+1] + farsh_key[i+1]);
 287              		.loc 1 24 0
 288 01f0 31D2     		xorl	%edx, %edx
 289 01f2 31C0     		xorl	%eax, %eax
 290 01f4 4D85FF   		testq	%r15, %r15
 291 01f7 7597     		jne	.L17
 292 01f9 E912FFFF 		jmp	.L5
 292      FF
 293              	.LVL27:
 294              	.L29:
 295 01fe 41BB0400 		movl	$4, %r11d
 295      0000
  23:farsh.c       ****     for (i=0; i < elements; i+=2)
 296              		.loc 1 23 0
 297 0204 4C89FA   		movq	%r15, %rdx
 298              	.LBE56:
 299              	.LBE55:
  41:farsh.c       **** }
 300              		.loc 1 41 0
 301 0207 4D89D0   		movq	%r10, %r8
 302 020a EBBB     		jmp	.L13
 303              	.LVL28:
 304              	.L14:
 305              	.LBE58:
 306              	.LBE60:
 307              	.LBE61:
  49:farsh.c       ****     {
 308              		.loc 1 49 0
 309 020c 31C0     		xorl	%eax, %eax
 310 020e E931FFFF 		jmp	.L22
 310      FF
 311              	.LBE63:
 312              		.cfi_endproc
 313              	.LFE3006:
 314              		.seh_endproc
 315 0213 66666666 		.p2align 4,,15
 315      2E0F1F84 
 315      00000000 
 315      00
 316              		.globl	_Z13farsh_keyed_nPKvyPKjiPj
 318              		.seh_proc	_Z13farsh_keyed_nPKvyPKjiPj
 319              	_Z13farsh_keyed_nPKvyPKjiPj:
 320              	.LFB3007:
  60:farsh.c       **** 
  61:farsh.c       **** /* Hash the buffer of arbitrary size */
  62:farsh.c       **** void farsh_keyed_n (const void *data_ptr, size_t bytes, const UINT *farsh_key, int n, UINT *hash)
  63:farsh.c       **** {
 321              		.loc 1 63 0
 322              		.cfi_startproc
 323              	.LVL29:
 324 0220 4155     		pushq	%r13
 325              		.seh_pushreg	%r13
 326              		.cfi_def_cfa_offset 16
 327              		.cfi_offset 13, -16
 328 0222 4154     		pushq	%r12
 329              		.seh_pushreg	%r12
 330              		.cfi_def_cfa_offset 24
 331              		.cfi_offset 12, -24
 332 0224 55       		pushq	%rbp
 333              		.seh_pushreg	%rbp
 334              		.cfi_def_cfa_offset 32
 335              		.cfi_offset 6, -32
 336 0225 57       		pushq	%rdi
 337              		.seh_pushreg	%rdi
 338              		.cfi_def_cfa_offset 40
 339              		.cfi_offset 5, -40
 340 0226 56       		pushq	%rsi
 341              		.seh_pushreg	%rsi
 342              		.cfi_def_cfa_offset 48
 343              		.cfi_offset 4, -48
 344 0227 53       		pushq	%rbx
 345              		.seh_pushreg	%rbx
 346              		.cfi_def_cfa_offset 56
 347              		.cfi_offset 3, -56
 348 0228 4883EC28 		subq	$40, %rsp
 349              		.seh_stackalloc	40
 350              		.cfi_def_cfa_offset 96
 351              		.seh_endprologue
 352              	.LVL30:
 353              		.loc 1 63 0
 354 022c 4C8BA424 		movq	128(%rsp), %r12
 354      80000000 
 355              	.LBB65:
  64:farsh.c       ****     int i;
  65:farsh.c       ****     for (i=0; i < n; i++)
 356              		.loc 1 65 0
 357 0234 4585C9   		testl	%r9d, %r9d
 358 0237 7E34     		jle	.L30
 359 0239 4183E901 		subl	$1, %r9d
 360              	.LVL31:
 361 023d 4C89C5   		movq	%r8, %rbp
 362 0240 4889D7   		movq	%rdx, %rdi
 363 0243 4E8D2C8D 		leaq	4(,%r9,4), %r13
 363      04000000 
 364 024b 4889CE   		movq	%rcx, %rsi
 365 024e 31DB     		xorl	%ebx, %ebx
 366              	.LVL32:
 367              		.p2align 4,,10
 368              	.L32:
  66:farsh.c       ****         hash[i] = farsh_keyed (data_ptr, bytes, farsh_key+i);
 369              		.loc 1 66 0 discriminator 3
 370 0250 4C8D441D 		leaq	0(%rbp,%rbx), %r8
 370      00
 371 0255 4889FA   		movq	%rdi, %rdx
 372 0258 4889F1   		movq	%rsi, %rcx
 373 025b E8A0FDFF 		call	_Z11farsh_keyedPKvyPKj
 373      FF
 374              	.LVL33:
 375 0260 4189041C 		movl	%eax, (%r12,%rbx)
 376 0264 4883C304 		addq	$4, %rbx
  65:farsh.c       ****         hash[i] = farsh_keyed (data_ptr, bytes, farsh_key+i);
 377              		.loc 1 65 0 discriminator 3
 378 0268 4C39EB   		cmpq	%r13, %rbx
 379 026b 75E3     		jne	.L32
 380              	.LVL34:
 381              	.L30:
 382              	.LBE65:
  67:farsh.c       **** }
 383              		.loc 1 67 0
 384 026d 4883C428 		addq	$40, %rsp
 385              		.cfi_def_cfa_offset 56
 386 0271 5B       		popq	%rbx
 387              		.cfi_restore 3
 388              		.cfi_def_cfa_offset 48
 389 0272 5E       		popq	%rsi
 390              		.cfi_restore 4
 391              		.cfi_def_cfa_offset 40
 392 0273 5F       		popq	%rdi
 393              		.cfi_restore 5
 394              		.cfi_def_cfa_offset 32
 395 0274 5D       		popq	%rbp
 396              		.cfi_restore 6
 397              		.cfi_def_cfa_offset 24
 398 0275 415C     		popq	%r12
 399              		.cfi_restore 12
 400              		.cfi_def_cfa_offset 16
 401 0277 415D     		popq	%r13
 402              		.cfi_restore 13
 403              		.cfi_def_cfa_offset 8
 404 0279 C3       		ret
 405              		.cfi_endproc
 406              	.LFE3007:
 407              		.seh_endproc
 408 027a 660F1F44 		.p2align 4,,15
 408      0000
 409              		.globl	_Z7farsh_nPKvyiPj
 411              		.seh_proc	_Z7farsh_nPKvyiPj
 412              	_Z7farsh_nPKvyiPj:
 413              	.LFB3008:
  68:farsh.c       **** 
  69:farsh.c       **** /* Hash the buffer of arbitrary size */
  70:farsh.c       **** void farsh_n (const void *data_ptr, size_t bytes, int n, UINT *hash)
  71:farsh.c       **** {
 414              		.loc 1 71 0
 415              		.cfi_startproc
 416              	.LVL35:
 417 0280 4155     		pushq	%r13
 418              		.seh_pushreg	%r13
 419              		.cfi_def_cfa_offset 16
 420              		.cfi_offset 13, -16
 421 0282 4154     		pushq	%r12
 422              		.seh_pushreg	%r12
 423              		.cfi_def_cfa_offset 24
 424              		.cfi_offset 12, -24
 425 0284 55       		pushq	%rbp
 426              		.seh_pushreg	%rbp
 427              		.cfi_def_cfa_offset 32
 428              		.cfi_offset 6, -32
 429 0285 57       		pushq	%rdi
 430              		.seh_pushreg	%rdi
 431              		.cfi_def_cfa_offset 40
 432              		.cfi_offset 5, -40
 433 0286 56       		pushq	%rsi
 434              		.seh_pushreg	%rsi
 435              		.cfi_def_cfa_offset 48
 436              		.cfi_offset 4, -48
 437 0287 53       		pushq	%rbx
 438              		.seh_pushreg	%rbx
 439              		.cfi_def_cfa_offset 56
 440              		.cfi_offset 3, -56
 441 0288 4883EC28 		subq	$40, %rsp
 442              		.seh_stackalloc	40
 443              		.cfi_def_cfa_offset 96
 444              		.seh_endprologue
 445              	.LVL36:
 446              	.LBB69:
 447              	.LBB70:
  65:farsh.c       ****         hash[i] = farsh_keyed (data_ptr, bytes, farsh_key+i);
 448              		.loc 1 65 0
 449 028c 4585C0   		testl	%r8d, %r8d
 450 028f 7E3B     		jle	.L35
 451 0291 4183E801 		subl	$1, %r8d
 452              	.LVL37:
 453 0295 4C89CD   		movq	%r9, %rbp
 454 0298 4889D7   		movq	%rdx, %rdi
 455 029b 4E8D2C85 		leaq	4(,%r8,4), %r13
 455      04000000 
 456 02a3 4889CE   		movq	%rcx, %rsi
 457 02a6 31DB     		xorl	%ebx, %ebx
 458 02a8 4C8D2580 		leaq	_ZL9farsh_key(%rip), %r12
 458      000000
 459              	.LVL38:
 460 02af 90       		.p2align 4,,10
 461              	.L37:
  66:farsh.c       **** }
 462              		.loc 1 66 0
 463 02b0 4D8D041C 		leaq	(%r12,%rbx), %r8
 464 02b4 4889FA   		movq	%rdi, %rdx
 465 02b7 4889F1   		movq	%rsi, %rcx
 466 02ba E841FDFF 		call	_Z11farsh_keyedPKvyPKj
 466      FF
 467              	.LVL39:
 468 02bf 89441D00 		movl	%eax, 0(%rbp,%rbx)
 469 02c3 4883C304 		addq	$4, %rbx
  65:farsh.c       ****         hash[i] = farsh_keyed (data_ptr, bytes, farsh_key+i);
 470              		.loc 1 65 0
 471 02c7 4C39EB   		cmpq	%r13, %rbx
 472 02ca 75E4     		jne	.L37
 473              	.LVL40:
 474              	.L35:
 475              	.LBE70:
 476              	.LBE69:
  72:farsh.c       ****     farsh_keyed_n (data_ptr, bytes, farsh_key, n, hash);
  73:farsh.c       **** }
 477              		.loc 1 73 0
 478 02cc 4883C428 		addq	$40, %rsp
 479              		.cfi_def_cfa_offset 56
 480 02d0 5B       		popq	%rbx
 481              		.cfi_restore 3
 482              		.cfi_def_cfa_offset 48
 483 02d1 5E       		popq	%rsi
 484              		.cfi_restore 4
 485              		.cfi_def_cfa_offset 40
 486 02d2 5F       		popq	%rdi
 487              		.cfi_restore 5
 488              		.cfi_def_cfa_offset 32
 489 02d3 5D       		popq	%rbp
 490              		.cfi_restore 6
 491              		.cfi_def_cfa_offset 24
 492 02d4 415C     		popq	%r12
 493              		.cfi_restore 12
 494              		.cfi_def_cfa_offset 16
 495 02d6 415D     		popq	%r13
 496              		.cfi_restore 13
 497              		.cfi_def_cfa_offset 8
 498 02d8 C3       		ret
 499              		.cfi_endproc
 500              	.LFE3008:
 501              		.seh_endproc
 502 02d9 0F1F8000 		.p2align 4,,15
 502      000000
 503              		.globl	_Z5farshPKvy
 505              		.seh_proc	_Z5farshPKvy
 506              	_Z5farshPKvy:
 507              	.LFB3009:
  74:farsh.c       **** 
  75:farsh.c       **** /* Hash the buffer of arbitrary size */
  76:farsh.c       **** UINT farsh (const void *data_ptr, size_t bytes)
  77:farsh.c       **** {
 508              		.loc 1 77 0
 509              		.cfi_startproc
 510              	.LVL41:
 511              		.seh_endprologue
  78:farsh.c       ****     return farsh_keyed (data_ptr, bytes, farsh_key);
 512              		.loc 1 78 0
 513 02e0 4C8D0580 		leaq	_ZL9farsh_key(%rip), %r8
 513      000000
  79:farsh.c       **** }
 514              		.loc 1 79 0
  78:farsh.c       ****     return farsh_keyed (data_ptr, bytes, farsh_key);
 515              		.loc 1 78 0
 516 02e7 E914FDFF 		jmp	_Z11farsh_keyedPKvyPKj
 516      FF
 517              	.LVL42:
 518              		.cfi_endproc
 519              	.LFE3009:
 520              		.seh_endproc
 522              		.section .rdata,"dr"
 523              	.LC0:
 524 0000 48617368 		.ascii "Hashing %d GiB\0"
 524      696E6720 
 524      25642047 
 524      694200
 525 000f 00       		.align 8
 526              	.LC5:
 527 0010 3A20252E 		.ascii ": %.3lf milliseconds = %.3lf GB/s = %.3lf GiB/s\12\0"
 527      336C6620 
 527      6D696C6C 
 527      69736563 
 527      6F6E6473 
 528              		.section	.text.startup,"x"
 529              		.p2align 4,,15
 530              		.globl	main
 532              		.seh_proc	main
 533              	main:
 534              	.LFB3010:
 535              		.file 2 "main.cpp"
   1:main.cpp      **** #include <stdio.h>
   2:main.cpp      **** #include <stdint.h>
   3:main.cpp      **** #include "timer.h"
   4:main.cpp      **** #include "farsh.c"
   5:main.cpp      **** 
   6:main.cpp      **** int main()
   7:main.cpp      **** {
 536              		.loc 2 7 0
 537              		.cfi_startproc
 538 0000 4154     		pushq	%r12
 539              		.seh_pushreg	%r12
 540              		.cfi_def_cfa_offset 16
 541              		.cfi_offset 12, -16
 542 0002 B8607000 		movl	$28768, %eax
 542      00
 543 0007 55       		pushq	%rbp
 544              		.seh_pushreg	%rbp
 545              		.cfi_def_cfa_offset 24
 546              		.cfi_offset 6, -24
 547 0008 57       		pushq	%rdi
 548              		.seh_pushreg	%rdi
 549              		.cfi_def_cfa_offset 32
 550              		.cfi_offset 5, -32
 551 0009 56       		pushq	%rsi
 552              		.seh_pushreg	%rsi
 553              		.cfi_def_cfa_offset 40
 554              		.cfi_offset 4, -40
 555 000a 53       		pushq	%rbx
 556              		.seh_pushreg	%rbx
 557              		.cfi_def_cfa_offset 48
 558              		.cfi_offset 3, -48
 559 000b E8000000 		call	___chkstk_ms
 559      00
 560 0010 4829C4   		subq	%rax, %rsp
 561              		.seh_stackalloc	28768
 562              		.cfi_def_cfa_offset 28816
 563 0013 0F29B424 		movaps	%xmm6, 28736(%rsp)
 563      40700000 
 564              		.seh_savexmm	%xmm6, 28736
 565 001b 0F29BC24 		movaps	%xmm7, 28752(%rsp)
 565      50700000 
 566              		.seh_savexmm	%xmm7, 28752
 567              		.cfi_offset 23, -80
 568              		.cfi_offset 24, -64
 569              		.seh_endprologue
 570              	.LBB102:
 571              	.LBB103:
 572              	.LBB104:
 573              		.file 3 "timer.h"
   1:timer.h       **** //--------------------------------------------------------------------------------------
   2:timer.h       **** // Copyright (c) Microsoft Corp.
   3:timer.h       **** //
   4:timer.h       **** // File: timer.h
   5:timer.h       **** //
   6:timer.h       **** // Licensed under the Apache License, Version 2.0 (the "License"); you may not use this
   7:timer.h       **** // file except in compliance with the License. You may obtain a copy of the License at
   8:timer.h       **** // http://www.apache.org/licenses/LICENSE-2.0
   9:timer.h       **** //
  10:timer.h       **** // THIS CODE IS PROVIDED *AS IS* BASIS, WITHOUT WARRANTIES OR CONDITIONS OF ANY KIND,
  11:timer.h       **** // EITHER EXPRESS OR IMPLIED, INCLUDING WITHOUT LIMITATION ANY IMPLIED WARRANTIES OR
  12:timer.h       **** // CONDITIONS OF TITLE, FITNESS FOR A PARTICULAR PURPOSE, MERCHANTABLITY OR NON-INFRINGEMENT.
  13:timer.h       **** //
  14:timer.h       **** // See the Apache Version 2.0 License for specific language governing permissions and
  15:timer.h       **** // limitations under the License.
  16:timer.h       **** //--------------------------------------------------------------------------------------
  17:timer.h       **** 
  18:timer.h       **** #pragma once
  19:timer.h       **** #include <windows.h>
  20:timer.h       **** 
  21:timer.h       **** struct Timer
  22:timer.h       **** {
  23:timer.h       ****     void Start()
  24:timer.h       ****     {
  25:timer.h       ****         QueryPerformanceCounter(&m_start);
 574              		.loc 3 25 0
 575 0023 BDDBB605 		movl	$374491, %ebp
 575      00
 576              	.LBE104:
 577              	.LBE103:
 578              	.LBE102:
 579              		.loc 2 7 0
 580 0028 E8000000 		call	__main
 580      00
 581              	.LVL43:
 582              	.LBB150:
 583              	.LBB107:
 584              	.LBB108:
  26:timer.h       ****     }
  27:timer.h       **** 
  28:timer.h       ****     void Stop()
  29:timer.h       ****     {
  30:timer.h       ****         QueryPerformanceCounter(&m_stop);
  31:timer.h       ****     }
  32:timer.h       **** 
  33:timer.h       ****     // Returns elapsed time in milliseconds (ms)
  34:timer.h       ****     double Elapsed()
  35:timer.h       ****     {
  36:timer.h       ****         return (m_stop.QuadPart - m_start.QuadPart - m_overhead) \
  37:timer.h       ****                                           * 1000.0 / m_freq.QuadPart;
  38:timer.h       ****     }
  39:timer.h       **** 
  40:timer.h       ****     Timer()
  41:timer.h       ****     {
  42:timer.h       ****         // Initialize the resolution of the timer
  43:timer.h       ****         QueryPerformanceFrequency(&m_freq);
 585              		.loc 3 43 0
 586 002d 488D5C24 		leaq	32(%rsp), %rbx
 586      20
 587              	.LBE108:
 588              	.LBE107:
   8:main.cpp      ****     const size_t DATASIZE = 28*1024;
   9:main.cpp      ****     const uint64_t DATASET = uint64_t(10)<<30;
  10:main.cpp      ****     printf("Hashing %d GiB", int(DATASET>>30));
 589              		.loc 2 10 0
 590 0032 BA0A0000 		movl	$10, %edx
 590      00
 591 0037 488D0D00 		leaq	.LC0(%rip), %rcx
 591      000000
 592 003e E8000000 		call	printf
 592      00
 593              	.LVL44:
 594              	.LBB119:
 595              	.LBB117:
 596              		.loc 3 43 0
 597 0043 488D4B10 		leaq	16(%rbx), %rcx
 598 0047 FF150000 		call	*__imp_QueryPerformanceFrequency(%rip)
 598      0000
 599              	.LVL45:
 600              	.LBB109:
 601              	.LBB110:
 602              	.LBB111:
 603              	.LBB112:
  25:timer.h       ****     }
 604              		.loc 3 25 0
 605 004d 488B3500 		movq	__imp_QueryPerformanceCounter(%rip), %rsi
 605      000000
 606 0054 4889D9   		movq	%rbx, %rcx
 607 0057 FFD6     		call	*%rsi
 608              	.LVL46:
 609              	.LBE112:
 610              	.LBE111:
 611              	.LBB113:
 612              	.LBB114:
  30:timer.h       ****     }
 613              		.loc 3 30 0
 614 0059 488D4B08 		leaq	8(%rbx), %rcx
 615 005d FFD6     		call	*%rsi
 616              	.LVL47:
 617              	.LBE114:
 618              	.LBE113:
  44:timer.h       **** 
  45:timer.h       ****         // Calculate the overhead of the timer
  46:timer.h       ****         m_overhead = Timer::GetOverhead();
  47:timer.h       ****     }
  48:timer.h       **** 
  49:timer.h       **** private:
  50:timer.h       **** 
  51:timer.h       ****     // Returns the overhead of the timer in ticks
  52:timer.h       ****     LONGLONG GetOverhead()
  53:timer.h       ****     {
  54:timer.h       ****         Start();
  55:timer.h       ****         Stop();
  56:timer.h       ****         return m_stop.QuadPart - m_start.QuadPart;
 619              		.loc 3 56 0
 620 005f 488B4424 		movq	40(%rsp), %rax
 620      28
 621 0064 4C8D6424 		leaq	64(%rsp), %r12
 621      40
 622              	.LBE110:
 623              	.LBE109:
 624              	.LBE117:
 625              	.LBE119:
 626              	.LBB120:
 627              	.LBB105:
  25:timer.h       ****     }
 628              		.loc 3 25 0
 629 0069 4889D9   		movq	%rbx, %rcx
 630              	.LBE105:
 631              	.LBE120:
 632              	.LBB121:
 633              	.LBB118:
 634              	.LBB116:
 635              	.LBB115:
 636              		.loc 3 56 0
 637 006c 482B4424 		subq	32(%rsp), %rax
 637      20
 638              	.LBE115:
 639              	.LBE116:
  46:timer.h       ****     }
 640              		.loc 3 46 0
 641 0071 48894424 		movq	%rax, 56(%rsp)
 641      38
 642              	.LVL48:
 643              	.LBE118:
 644              	.LBE121:
 645              	.LBB122:
 646              	.LBB106:
  25:timer.h       ****     }
 647              		.loc 3 25 0
 648 0076 FFD6     		call	*%rsi
 649              	.LVL49:
 650 0078 4C8D1D80 		leaq	_ZL9farsh_key(%rip), %r11
 650      000000
 651 007f 4C8D0580 		leaq	1024+_ZL9farsh_key(%rip), %r8
 651      040000
 652              	.LVL50:
 653              	.L42:
 654              	.LBE106:
 655              	.LBE122:
 656              	.LBB123:
 657              	.LBB124:
 658              	.LBB125:
 659              	.LBB126:
 660              	.LBB127:
 661              	.LBB128:
  56:farsh.c       ****     }
 662              		.loc 1 56 0
 663 0086 4531D2   		xorl	%r10d, %r10d
 664 0089 4531C9   		xorl	%r9d, %r9d
 665 008c 4C89E1   		movq	%r12, %rcx
 666 008f 31FF     		xorl	%edi, %edi
 667              	.LVL51:
 668              		.p2align 4,,10
 669              	.L48:
 670 0091 488D0580 		leaq	_ZL9farsh_key(%rip), %rax
 670      000000
 671 0098 4889CA   		movq	%rcx, %rdx
 672              	.LBE128:
 673              	.LBE127:
 674              	.LBE126:
 675              	.LBE125:
 676              	.LBE124:
 677              	.LBE123:
 678              	.LBE150:
   7:main.cpp      ****     const size_t DATASIZE = 28*1024;
 679              		.loc 2 7 0
 680 009b 660FEFED 		pxor	%xmm5, %xmm5
 681              	.LVL52:
 682 009f 90       		.p2align 4,,10
 683              	.L43:
 684              	.LBB151:
 685              	.LBB143:
 686              	.LBB142:
 687              	.LBB141:
 688              	.LBB140:
 689              	.LBB139:
 690              	.LBB137:
 691              	.LBB129:
 692              	.LBB130:
 693              	.LBB131:
 694              	.LBB132:
  25:farsh.c       ****     if (extra)
 695              		.loc 1 25 0
 696 00a0 660F6F0A 		movdqa	(%rdx), %xmm1
 697 00a4 4883C020 		addq	$32, %rax
 698 00a8 4883C220 		addq	$32, %rdx
 699 00ac 660F6F60 		movdqa	-32(%rax), %xmm4
 699      E0
 700 00b1 660F6F72 		movdqa	-16(%rdx), %xmm6
 700      F0
 701 00b6 660F6FD9 		movdqa	%xmm1, %xmm3
 702 00ba 660F6F78 		movdqa	-16(%rax), %xmm7
 702      F0
 703 00bf 660F6FD4 		movdqa	%xmm4, %xmm2
 704 00c3 4C39C0   		cmpq	%r8, %rax
 705 00c6 0FC6DE88 		shufps	$136, %xmm6, %xmm3
 706 00ca 0FC6CEDD 		shufps	$221, %xmm6, %xmm1
 707 00ce 0FC6D788 		shufps	$136, %xmm7, %xmm2
 708 00d2 0FC6E7DD 		shufps	$221, %xmm7, %xmm4
 709 00d6 660FFED3 		paddd	%xmm3, %xmm2
 710 00da 660FFEE1 		paddd	%xmm1, %xmm4
 711 00de 660F6FDC 		movdqa	%xmm4, %xmm3
 712 00e2 660F6FCA 		movdqa	%xmm2, %xmm1
 713 00e6 660F6FC4 		movdqa	%xmm4, %xmm0
 714 00ea 660F62CA 		punpckldq	%xmm2, %xmm1
 715 00ee 660F62DC 		punpckldq	%xmm4, %xmm3
 716 00f2 660FF4CB 		pmuludq	%xmm3, %xmm1
 717 00f6 660F6AC4 		punpckhdq	%xmm4, %xmm0
 718 00fa 660F6AD2 		punpckhdq	%xmm2, %xmm2
 719 00fe 660FF4C2 		pmuludq	%xmm2, %xmm0
 720 0102 660FD4E9 		paddq	%xmm1, %xmm5
 721 0106 660FD4E8 		paddq	%xmm0, %xmm5
 722 010a 7594     		jne	.L43
 723              	.LBE132:
 724              	.LBE131:
 725              	.LBE130:
 726              	.LBE129:
  54:farsh.c       ****         if (++i == STRIPE_ELEMENTS)
 727              		.loc 1 54 0
 728 010c 4963D1   		movslq	%r9d, %rdx
 729 010f 660F6FC5 		movdqa	%xmm5, %xmm0
  55:farsh.c       ****             i = 0;/*to do*/
 730              		.loc 1 55 0
 731 0113 4183C101 		addl	$1, %r9d
 732              	.LVL53:
 733 0117 660F73D8 		psrldq	$8, %xmm0
 733      08
 734              	.LVL54:
  54:farsh.c       ****         if (++i == STRIPE_ELEMENTS)
 735              		.loc 1 54 0
 736 011c 418B1493 		movl	(%r11,%rdx,4), %edx
  53:farsh.c       ****         sum += h*(ULONG)farsh_key[i];
 737              		.loc 1 53 0
 738 0120 4881C100 		addq	$1024, %rcx
 738      040000
 739              	.LVL55:
 740 0127 660FD4C5 		paddq	%xmm5, %xmm0
 741              	.LVL56:
 742 012b 66480F7E 		movq	%xmm0, %rax
 742      C0
 743              	.LBB136:
 744              	.LBB135:
 745              	.LBB134:
 746              	.LBB133:
  28:farsh.c       **** }
 747              		.loc 1 28 0
 748 0130 48C1E820 		shrq	$32, %rax
 749              	.LBE133:
 750              	.LBE134:
 751              	.LBE135:
 752              	.LBE136:
  54:farsh.c       ****         if (++i == STRIPE_ELEMENTS)
 753              		.loc 1 54 0
 754 0134 480FAFC2 		imulq	%rdx, %rax
 755 0138 4901C2   		addq	%rax, %r10
 756              	.LVL57:
  56:farsh.c       ****     }
 757              		.loc 1 56 0
 758 013b 4181F900 		cmpl	$256, %r9d
 758      010000
 759              	.LBE137:
  49:farsh.c       ****     {
 760              		.loc 1 49 0
 761 0142 488D8424 		leaq	28736(%rsp), %rax
 761      40700000 
 762              	.LBB138:
  56:farsh.c       ****     }
 763              		.loc 1 56 0
 764 014a 440F44CF 		cmove	%edi, %r9d
 765              	.LVL58:
 766              	.LBE138:
  49:farsh.c       ****     {
 767              		.loc 1 49 0
 768 014e 4839C1   		cmpq	%rax, %rcx
 769 0151 0F823AFF 		jb	.L48
 769      FFFF
  58:farsh.c       **** }
 770              		.loc 1 58 0
 771 0157 49C1EA20 		shrq	$32, %r10
 772              	.LVL59:
 773              	.LBE139:
 774              	.LBE140:
 775              	.LBE141:
  11:main.cpp      ****     Timer t;  t.Start();
  12:main.cpp      **** 
  13:main.cpp      ****     for (int i=0; i<DATASET/DATASIZE; i++)
  14:main.cpp      ****     {
  15:main.cpp      ****         char data[DATASIZE];
  16:main.cpp      ****         auto h = farsh (data, DATASIZE);
  17:main.cpp      ****         if (h==42) break;
 776              		.loc 2 17 0
 777 015b 4983FA2A 		cmpq	$42, %r10
 778 015f 7409     		je	.L47
 779              	.LBE142:
  13:main.cpp      ****     {
 780              		.loc 2 13 0
 781 0161 83ED01   		subl	$1, %ebp
 782 0164 0F851CFF 		jne	.L42
 782      FFFF
 783              	.L47:
 784              	.LVL60:
 785              	.LBE143:
 786              	.LBB144:
 787              	.LBB145:
  30:timer.h       ****     }
 788              		.loc 3 30 0
 789 016a 488D4B08 		leaq	8(%rbx), %rcx
 790              	.LVL61:
 791 016e FFD6     		call	*%rsi
 792              	.LVL62:
 793              	.LBE145:
 794              	.LBE144:
 795              	.LBB146:
 796              	.LBB147:
  36:timer.h       ****                                           * 1000.0 / m_freq.QuadPart;
 797              		.loc 3 36 0
 798 0170 488B4424 		movq	40(%rsp), %rax
 798      28
  37:timer.h       ****     }
 799              		.loc 3 37 0
 800 0175 660FEFC0 		pxor	%xmm0, %xmm0
 801 0179 660FEFD2 		pxor	%xmm2, %xmm2
  36:timer.h       ****                                           * 1000.0 / m_freq.QuadPart;
 802              		.loc 3 36 0
 803 017d 482B4424 		subq	32(%rsp), %rax
 803      20
 804              	.LBE147:
 805              	.LBE146:
  18:main.cpp      ****     }
  19:main.cpp      **** 
  20:main.cpp      ****     t.Stop();  auto speed = DATASET/(t.Elapsed()/1000);
  21:main.cpp      ****     printf(": %.3lf milliseconds = %.3lf GB/s = %.3lf GiB/s\n", t.Elapsed(), speed/1e9, speed/(1<<3
 806              		.loc 2 21 0
 807 0182 488D0D10 		leaq	.LC5(%rip), %rcx
 807      000000
 808              	.LBB149:
 809              	.LBB148:
  36:timer.h       ****                                           * 1000.0 / m_freq.QuadPart;
 810              		.loc 3 36 0
 811 0189 482B4424 		subq	56(%rsp), %rax
 811      38
  37:timer.h       ****     }
 812              		.loc 3 37 0
 813 018e F20F100D 		movsd	.LC1(%rip), %xmm1
 813      00050000 
 814 0196 F2480F2A 		cvtsi2sdq	48(%rsp), %xmm2
 814      542430
 815 019d F2480F2A 		cvtsi2sdq	%rax, %xmm0
 815      C0
 816 01a2 F20F59C1 		mulsd	%xmm1, %xmm0
 817 01a6 F20F5EC2 		divsd	%xmm2, %xmm0
 818              	.LBE148:
 819              	.LBE149:
  20:main.cpp      ****     printf(": %.3lf milliseconds = %.3lf GB/s = %.3lf GiB/s\n", t.Elapsed(), speed/1e9, speed/(1<<3
 820              		.loc 2 20 0
 821 01aa 660F28D0 		movapd	%xmm0, %xmm2
 822              		.loc 2 21 0
 823 01ae 66480F7E 		movq	%xmm0, %rdx
 823      C2
  20:main.cpp      ****     printf(": %.3lf milliseconds = %.3lf GB/s = %.3lf GiB/s\n", t.Elapsed(), speed/1e9, speed/(1<<3
 824              		.loc 2 20 0
 825 01b3 F20F5ED1 		divsd	%xmm1, %xmm2
 826 01b7 F20F100D 		movsd	.LC2(%rip), %xmm1
 826      08050000 
 827 01bf F20F5ECA 		divsd	%xmm2, %xmm1
 828              	.LVL63:
 829              		.loc 2 21 0
 830 01c3 F20F1015 		movsd	.LC3(%rip), %xmm2
 830      10050000 
 831 01cb F20F59D1 		mulsd	%xmm1, %xmm2
 832 01cf F20F5E0D 		divsd	.LC4(%rip), %xmm1
 832      18050000 
 833              	.LVL64:
 834 01d7 66490F7E 		movq	%xmm1, %r8
 834      C8
 835 01dc 660F28DA 		movapd	%xmm2, %xmm3
 836 01e0 66490F7E 		movq	%xmm2, %r9
 836      D1
 837 01e5 660F28D1 		movapd	%xmm1, %xmm2
 838 01e9 660F28C8 		movapd	%xmm0, %xmm1
 839 01ed E8000000 		call	printf
 839      00
 840 01f2 90       		nop
 841              	.LVL65:
 842              	.LBE151:
  22:main.cpp      ****     return 0;
  23:main.cpp      **** }
 843              		.loc 2 23 0
 844 01f3 0F28B424 		movaps	28736(%rsp), %xmm6
 844      40700000 
 845 01fb 31C0     		xorl	%eax, %eax
 846 01fd 0F28BC24 		movaps	28752(%rsp), %xmm7
 846      50700000 
 847 0205 4881C460 		addq	$28768, %rsp
 847      700000
 848              		.cfi_restore 24
 849              		.cfi_restore 23
 850              		.cfi_def_cfa_offset 48
 851 020c 5B       		popq	%rbx
 852              		.cfi_restore 3
 853              		.cfi_def_cfa_offset 40
 854              	.LVL66:
 855 020d 5E       		popq	%rsi
 856              		.cfi_restore 4
 857              		.cfi_def_cfa_offset 32
 858 020e 5F       		popq	%rdi
 859              		.cfi_restore 5
 860              		.cfi_def_cfa_offset 24
 861 020f 5D       		popq	%rbp
 862              		.cfi_restore 6
 863              		.cfi_def_cfa_offset 16
 864 0210 415C     		popq	%r12
 865              		.cfi_restore 12
 866              		.cfi_def_cfa_offset 8
 867 0212 C3       		ret
 868              		.cfi_endproc
 869              	.LFE3010:
 870              		.seh_endproc
 871 0213 90909090 		.section .rdata,"dr"
 871      90909090 
 871      90909090 
 871      90
 872 0041 00000000 		.align 64
 872      00000000 
 872      00000000 
 872      00000000 
 872      00000000 
 873              	_ZL9farsh_key:
 874 0080 396CFEB8 		.long	-1191285703
 875 0084 BE4BA423 		.long	597969854
 876 0088 2C81017C 		.long	2080473388
 877 008c 1CAD21F7 		.long	-148787940
 878 0090 E96DD4DE 		.long	-556503575
 879 0094 DB979083 		.long	-2087675941
 880 0098 A4A44072 		.long	1916839076
 881 009c 1F67B3B7 		.long	-1212979425
 882 00a0 4EE679CB 		.long	-881203634
 883 00a4 78E5C0CC 		.long	-859773576
 884 00a8 7DD05A82 		.long	-2107977603
 885 00ac 2172FFCC 		.long	-855674335
 886 00b0 744608B8 		.long	-1207417228
 887 00b4 8E2443F7 		.long	-146594674
 888 00b8 E69035E0 		.long	-533360410
 889 00bc 4C263A81 		.long	-2126895540
 890 00c0 BB52283C 		.long	1009275579
 891 00c4 CB00C391 		.long	-1849491253
 892 00c8 8B65D088 		.long	-1999608437
 893 00cc A32E531B 		.long	458436259
 894 00d0 97486471 		.long	1902397591
 895 00d4 4EF90DA2 		.long	-1576142514
 896 00d8 46EF1938 		.long	941223750
 897 00dc D8ACDEA9 		.long	-1445024552
 898 00e0 3F76FAA8 		.long	-1459980737
 899 00e4 3F349CE3 		.long	-476302273
 900 00e8 C7BBDCF9 		.long	-102974521
 901 00ec 1D4F0BC7 		.long	-955560163
 902 00f0 4BE0518A 		.long	-1974345653
 903 00f4 3159B4CD 		.long	-843818703
 904 00f8 C97E9FC8 		.long	-929071415
 905 00fc 647378D9 		.long	-646417564
 906 0100 52076A4F 		.long	1332348754
 907 0104 9C079BA7 		.long	-1483012196
 908 0108 9994C48F 		.long	-1882942311
 909 010c A9B7C98E 		.long	-1899382871
 910 0110 4922C933 		.long	868819529
 911 0114 4F40B64E 		.long	1320566863
 912 0118 4EFB2AFB 		.long	-81069234
 913 011c 554281A4 		.long	-1535032747
 914 0120 981B0E2F 		.long	789453720
 915 0124 243BE9AC 		.long	-1394001116
 916 0128 CD508818 		.long	411586765
 917 012c A7745C6C 		.long	1817998503
 918 0130 0444FA66 		.long	1727677444
 919 0134 83ACC5EA 		.long	-356143997
 920 0138 C3EBD334 		.long	886303683
 921 013c FFA081C5 		.long	-981360385
 922 0140 EB6313FA 		.long	-99392533
 923 0144 51DD0D17 		.long	386784593
 924 0148 49DAF0B7 		.long	-1208952247
 925 014c 265516D3 		.long	-753511130
 926 0150 9E68D429 		.long	701786270
 927 0154 58BE162B 		.long	722910808
 928 0158 FCA1477D 		.long	2101846524
 929 015c D1B8F88F 		.long	-1879525167
 930 0160 CE31D07A 		.long	2060464590
 931 0164 8F3ACB45 		.long	1170946703
 932 0168 28041695 		.long	-1793719256
 933 016c CAFBD7AF 		.long	-1344799798
 934 0170 7E404BBB 		.long	-1152696194
 935 0174 A4745299 		.long	-1722649436
 936 0178 932D9AEB 		.long	-342217325
 937 017c 0889E73B 		.long	1005029640
 938 0180 6C5F47ED 		.long	-314089620
 939 0184 F2D89C91 		.long	-1851991822
 940 0188 5A1E86D3 		.long	-746185126
 941 018c 0C39316E 		.long	1848719628
 942 0190 493A6AFE 		.long	-26592695
 943 0194 1409ADDC 		.long	-592639724
 944 0198 EB8B5006 		.long	105941995
 945 019c F39983A8 		.long	-1467770381
 946 01a0 2F1158B0 		.long	-1336405713
 947 01a4 79FAB0E8 		.long	-391054727
 948 01a8 06DAB429 		.long	699718150
 949 01ac FB53C2ED 		.long	-306031621
 950 01b0 AD6DE9C3 		.long	-1008112211
 951 01b4 832B376E 		.long	1849109379
 952 01b8 53B1784F 		.long	1333309779
 953 01bc 866EFAFF 		.long	-364922
 954 01c0 ECEEBE21 		.long	566161132
 955 01c4 02EACA01 		.long	30075394
 956 01c8 0DE56712 		.long	308798733
 957 01cc 2F09E611 		.long	300288303
 958 01d0 98D219E8 		.long	-400960872
 959 01d4 DD802F83 		.long	-2094038819
 960 01d8 77244E0C 		.long	206447735
 961 01dc EB8678BC 		.long	-1132951829
 962 01e0 37665001 		.long	22046263
 963 01e4 6896A88B 		.long	-1951885720
 964 01e8 A0E7116D 		.long	1829889952
 965 01ec 15FD12FC 		.long	-65864427
 966 01f0 194CA586 		.long	-2035987431
 967 01f4 DDE33C59 		.long	1497162717
 968 01f8 E53FB1D2 		.long	-760135707
 969 01fc 532B778E 		.long	-1904792749
 970 0200 CC604AAE 		.long	-1370857268
 971 0204 1B3B7A64 		.long	1685732123
 972 0208 E0867754 		.long	1417119456
 973 020c 8E37C43E 		.long	1053046670
 974 0210 89CF7A8D 		.long	-1921331319
 975 0214 47F936CA 		.long	-902366905
 976 0218 EFD5890E 		.long	243914223
 977 021c 3C6ADAAA 		.long	-1428526532
 978 0220 09A1A46D 		.long	1839505673
 979 0224 1CE1C69A 		.long	-1698242276
 980 0228 EF916668 		.long	1751552495
 981 022c 2BBD57A3 		.long	-1554531029
 982 0230 9A1B6FD1 		.long	-781247590
 983 0234 0303C738 		.long	952566531
 984 0238 B322467D 		.long	2101748403
 985 023c 8FFA6829 		.long	694745743
 986 0240 B9BCA58C 		.long	-1935295303
 987 0244 0510D6FC 		.long	-53080059
 988 0248 965E8B22 		.long	579559062
 989 024c 19CC9D2C 		.long	748538905
 990 0250 3C24CF57 		.long	1473193020
 991 0254 C1F9533C 		.long	1012136385
 992 0258 2C95C70C 		.long	214406444
 993 025c F0E46D68 		.long	1752032496
 994 0260 B547A793 		.long	-1817753675
 995 0264 10A5874E 		.long	1317512464
 996 0268 AE915E97 		.long	-1755410002
 997 026c 8EB9104C 		.long	1276164494
 998 0270 8C067F8A 		.long	-1971386740
 999 0274 AB196B34 		.long	879434155
 1000 0278 25A63C35 		.long	893167141
 1001 027c E0500AF2 		.long	-234204960
 1002 0280 F62199CE 		.long	-828825098
 1003 0284 14E066DF 		.long	-546906092
 1004 0288 4BEF110A 		.long	168947531
 1005 028c DF4DC88B 		.long	-1949807137
 1006 0290 225DD284 		.long	-2066588382
 1007 0294 6D9323C8 		.long	-937192595
 1008 0298 C31E7494 		.long	-1804329277
 1009 029c 608A2788 		.long	-2010674592
 1010 02a0 319364B8 		.long	-1201368271
 1011 02a4 107A707A 		.long	2054191632
 1012 02a8 D6CA9272 		.long	1922222806
 1013 02ac C244C6A7 		.long	-1480178494
 1014 02b0 FA6B15BD 		.long	-1122669574
 1015 02b4 78956C64 		.long	1684837752
 1016 02b8 D5DFF4B7 		.long	-1208688683
 1017 02bc A777829F 		.long	-1618839641
 1018 02c0 4E921370 		.long	1880330830
 1019 02c4 C34C67AD 		.long	-1385739069
 1020 02c8 059DAE2C 		.long	749640965
 1021 02cc 229A2A91 		.long	-1859479006
 1022 02d0 FA537CF6 		.long	-159624198
 1023 02d4 A9227E8D 		.long	-1921113431
 1024 02d8 2B37AE59 		.long	1504589611
 1025 02dc F3990185 		.long	-2063492621
 1026 02e0 2C10A263 		.long	1671565356
 1027 02e4 6112FFD6 		.long	-687926687
 1028 02e8 E18E7356 		.long	1450413793
 1029 02ec 5B1495AA 		.long	-1433070501
 1030 02f0 3228D1FD 		.long	-36624334
 1031 02f4 EB4D685B 		.long	1533562347
 1032 02f8 94DE8407 		.long	126148244
 1033 02fc 0E3962AA 		.long	-1436403442
 1034 0300 19CF7CBB 		.long	-1149448423
 1035 0304 72D5EF0F 		.long	267375986
 1036 0308 CA415B56 		.long	1448821194
 1037 030c 02D20622 		.long	570872322
 1038 0310 7984602D 		.long	761300089
 1039 0314 3DCD0F4C 		.long	1276103997
 1040 0318 E33B6DD3 		.long	-747815965
 1041 031c 659A5A15 		.long	358259301
 1042 0320 32E7F910 		.long	284813106
 1043 0324 1E0F9BAC 		.long	-1399124194
 1044 0328 3BA0721F 		.long	527605819
 1045 032c AE4094EA 		.long	-359382866
 1046 0330 4F4B675B 		.long	1533496143
 1047 0334 D127A831 		.long	833103825
 1048 0338 4F95CAEC 		.long	-322267825
 1049 033c 1ED62C3D 		.long	1026348574
 1050 0340 A43D8D76 		.long	1988967844
 1051 0344 C15A7493 		.long	-1821091135
 1052 0348 CB585D1D 		.long	492656843
 1053 034c B6F3864B 		.long	1267135414
 1054 0350 3A92BA2A 		.long	716870202
 1055 0354 4C81650E 		.long	241533260
 1056 0358 D963E08A 		.long	-1965005863
 1057 035c B06969CD 		.long	-848729680
 1058 0360 85156436 		.long	912528773
 1059 0364 9DF52A74 		.long	1948972445
 1060 0368 16133A61 		.long	1631195926
 1061 036c 71A48E33 		.long	864986225
 1062 0370 F31A8647 		.long	1199971059
 1063 0374 C39D4730 		.long	809999811
 1064 0378 81A47012 		.long	309372033
 1065 037c 69107708 		.long	142020713
 1066 0380 D2F0C4E3 		.long	-473632558
 1067 0384 4C872902 		.long	36276044
 1068 0388 C13B8A5A 		.long	1519008705
 1069 038c 33970DE3 		.long	-485648589
 1070 0390 A2E55BD0 		.long	-799283806
 1071 0394 BA31AFE2 		.long	-491834950
 1072 0398 F9492022 		.long	572541433
 1073 039c 6A3B929F 		.long	-1617806486
 1074 03a0 EC643F03 		.long	54486252
 1075 03a4 2BB628E5 		.long	-450316757
 1076 03a8 BDEF0182 		.long	-2113802307
 1077 03ac 77D80721 		.long	554162295
 1078 03b0 F12E31D8 		.long	-667865359
 1079 03b4 999F67A5 		.long	-1519935591
 1080 03b8 1BB53017 		.long	389068059
 1081 03bc D2162675 		.long	1965430482
 1082 03c0 09593005 		.long	87054601
 1083 03c4 0B44CA0D 		.long	231359499
 1084 03c8 D9CD9320 		.long	546557401
 1085 03cc 50AB0964 		.long	1678355280
 1086 03d0 CC8E5CBA 		.long	-1168339252
 1087 03d4 EA08478D 		.long	-1924724502
 1088 03d8 17099F42 		.long	1117718807
 1089 03dc B0FA62B7 		.long	-1218250064
 1090 03e0 75EA6151 		.long	1365371509
 1091 03e4 EBA0EB45 		.long	1173070059
 1092 03e8 414BF3B6 		.long	-1225569471
 1093 03ec 23710452 		.long	1376022819
 1094 03f0 231518E4 		.long	-468183773
 1095 03f4 0AE9748D 		.long	-1921718006
 1096 03f8 1C40FA54 		.long	1425686556
 1097 03fc C70CDADD 		.long	-572912441
 1098 0400 2A18DF63 		.long	1675565098
 1099 0404 F63E40C6 		.long	-968868106
 1100 0408 E8C68E34 		.long	881772264
 1101 040c F557FFB9 		.long	-1174448139
 1102 0410 BDB852F6 		.long	-162350915
 1103 0414 F3B0860F 		.long	260485363
 1104 0418 8A083AFB 		.long	-80082806
 1105 041c 3315C74D 		.long	1304892723
 1106 0420 D217367B 		.long	2067142610
 1107 0424 EB874EA3 		.long	-1555134485
 1108 0428 DD9B2ABA 		.long	-1171612707
 1109 042c 061338E3 		.long	-482864378
 1110 0430 BBD6BA14 		.long	347788987
 1111 0434 C2C76DC9 		.long	-915552318
 1112 0438 B6543B33 		.long	859526326
 1113 043c FA7CE49B 		.long	-1679524614
 1114 0440 9992CF1D 		.long	500142745
 1115 0444 995FEAE7 		.long	-404070503
 1116 0448 CDEA8FB3 		.long	-1282413875
 1117 044c F7E2CFC3 		.long	-1009786121
 1118 0450 22E8875B 		.long	1535633442
 1119 0454 56ABC539 		.long	969255766
 1120 0458 8FA1F418 		.long	418685327
 1121 045c 9C4D482D 		.long	759713180
 1122 0460 19D56341 		.long	1097061657
 1123 0464 989E7679 		.long	2037816984
 1124 0468 F0678AF5 		.long	-175478800
 1125 046c 020C5940 		.long	1079577602
 1126 0470 C0719631 		.long	831943104
 1127 0474 3A136B26 		.long	644551482
 1128 0478 87B281AF 		.long	-1350454649
 1129 047c 37F7316A 		.long	1781659447
 1130 0480 9701BCE3 		.long	-474218089
 1131 0484 13990755 		.long	1426561299
 1132 0488 96C6729F 		.long	-1619868010
 1133 048c C8003E36 		.long	910033096
 1134 0490 47391553 		.long	1393899847
 1135 0494 7F12FDEB 		.long	-335736193
 1136 0498 1905F600 		.long	16123161
 1137 049c 2AB6A646 		.long	1185330730
 1138 04a0 8033B893 		.long	-1816644736
 1139 04a4 2493E23F 		.long	1071813412
 1140 04a8 9170C6DF 		.long	-540643183
 1141 04ac 6D38620F 		.long	258095213
 1142 04b0 795E37DC 		.long	-600351111
 1143 04b4 3E3FEA8F 		.long	-1880473794
 1144 04b8 D06384DF 		.long	-544971824
 1145 04bc 7BFA0237 		.long	922942075
 1146 04c0 5E435439 		.long	961823582
 1147 04c4 48A6CA87 		.long	-2016762296
 1148 04c8 EE8B15A9 		.long	-1458205714
 1149 04cc 250CF308 		.long	150146085
 1150 04d0 3629B866 		.long	1723345206
 1151 04d4 EB3FFCE7 		.long	-402898965
 1152 04d8 50543C18 		.long	406606928
 1153 04dc 4543EFD7 		.long	-672185531
 1154 04e0 63798C79 		.long	2039249251
 1155 04e4 57F52CC0 		.long	-1070795433
 1156 04e8 D1538509 		.long	159732689
 1157 04ec AA1243FA 		.long	-96267606
 1158 04f0 83F89EE2 		.long	-492898173
 1159 04f4 8D12AF7C 		.long	2091848333
 1160 04f8 7DA0B374 		.long	1957929085
 1161 04fc 00000000 		.align 8
 1162              	.LC1:
 1163 0500 00000000 		.long	0
 1164 0504 00408F40 		.long	1083129856
 1165              		.align 8
 1166              	.LC2:
 1167 0508 00000000 		.long	0
 1168 050c 00000442 		.long	1107558400
 1169              		.align 8
 1170              	.LC3:
 1171 0510 00000000 		.long	0
 1172 0514 0000103E 		.long	1041235968
 1173              		.align 8
 1174              	.LC4:
 1175 0518 00000000 		.long	0
 1176 051c 65CDCD41 		.long	1104006501
 1177 0520 00000000 		.text
 1177      00000000 
 1177      00000000 
 1177      00000000 
 1177      00000000 
 1178              	.Letext0:
 1179              		.file 4 "C:/Base/Compiler/MinGW-4.9.2/mingw32/i686-w64-mingw32/include/crtdefs.h"
 1180              		.file 5 "C:/Base/Compiler/MinGW-4.9.2/mingw32/i686-w64-mingw32/include/stdint.h"
 1181              		.file 6 "C:/Base/Compiler/MinGW-4.9.2/mingw32/i686-w64-mingw32/include/minwindef.h"
 1182              		.file 7 "C:/Base/Compiler/MinGW-4.9.2/mingw32/i686-w64-mingw32/include/winnt.h"
 1183              		.file 8 "C:/Base/Compiler/MinGW-4.9.2/mingw32/i686-w64-mingw32/include/stdio.h"