   1              		.file	"main.cpp"
   2              		.text
   3              	.Ltext0:
   4              		.cfi_sections	.debug_frame
   5              		.p2align 4,,15
   6              		.globl	_Z11farsh_keyedPKvyPKj
   8              		.seh_proc	_Z11farsh_keyedPKvyPKj
   9              	_Z11farsh_keyedPKvyPKj:
  10              	.LFB3006:
  11              		.file 1 "farsh.c"
   1:farsh.c       **** #include <stdlib.h>
   2:farsh.c       **** #include <memory.h>
   3:farsh.c       **** 
   4:farsh.c       **** #define UINT  /*uint32_t*/ unsigned
   5:farsh.c       **** #define ULONG /*uint64_t*/ unsigned long long
   6:farsh.c       **** 
   7:farsh.c       **** #define STRIPE          1024
   8:farsh.c       **** #define STRIPE_ELEMENTS (STRIPE/sizeof(UINT))
   9:farsh.c       **** static const UINT farsh_key[STRIPE_ELEMENTS+1024/32-1] = {  /* STRIPE bytes of key material plus ex
  10:farsh.c       ****     0xb8fe6c39,0x23a44bbe,0x7c01812c,0xf721ad1c,0xded46de9,0x839097db,0x7240a4a4,0xb7b3671f,0xcb79e
  11:farsh.c       ****     0xe3bc0197,0x55079913,0x9f72c696,0x363e00c8,0x53153947,0xebfd127f,0x00f60519,0x46a6b62a,0x93b83
  12:farsh.c       ****     };
  13:farsh.c       **** 
  14:farsh.c       **** /* Hash up to STRIPE bytes, consisting of whole UINT pairs, including optional
  15:farsh.c       ****    UINT pair in the extra[] */
  16:farsh.c       **** static UINT farsh_pairs (const UINT *data, size_t elements, const UINT* extra, const UINT *farsh_ke
  17:farsh.c       **** {
  18:farsh.c       ****     ULONG sum = 0;  int i;
  19:farsh.c       ****     for (i=0; i < elements; i+=2)
  20:farsh.c       ****         sum += (data[i] + farsh_key[i]) * (ULONG)(data[i+1] + farsh_key[i+1]);
  21:farsh.c       ****     if (extra)
  22:farsh.c       ****         sum += (extra[0] + farsh_key[i]) * (ULONG)(extra[1] + farsh_key[i+1]);
  23:farsh.c       ****     return (UINT)(sum >> 32);
  24:farsh.c       **** }
  25:farsh.c       **** 
  26:farsh.c       **** /* Hash up to STRIPE bytes, with special optimization for exactly STRIPE input
  27:farsh.c       ****    bytes and careful handling of partial UINT pair at the end of buffer */
  28:farsh.c       **** static UINT farsh_block (const void *data_ptr, size_t bytes, const UINT *farsh_key)
  29:farsh.c       **** {
  30:farsh.c       ****     const UINT *data = (const UINT*) data_ptr;
  31:farsh.c       ****     if (bytes == STRIPE)  return farsh_pairs (data, STRIPE_ELEMENTS, NULL, farsh_key);
  32:farsh.c       ****     size_t elements = (bytes/sizeof(UINT)) & (~1);
  33:farsh.c       ****     UINT extra_data[2] = {0};
  34:farsh.c       ****     size_t extra_bytes = bytes - elements*sizeof(UINT);
  35:farsh.c       ****     memcpy (extra_data, data+elements, extra_bytes);
  36:farsh.c       ****     return farsh_pairs (data, elements, extra_bytes?extra_data:NULL, farsh_key);
  37:farsh.c       **** }
  38:farsh.c       **** 
  39:farsh.c       **** /* Hash the buffer of arbitrary size */
  40:farsh.c       **** UINT farsh_keyed (const void *data_ptr, size_t bytes, const UINT *farsh_key)
  41:farsh.c       **** {
  12              		.loc 1 41 0
  13              		.cfi_startproc
  14              	.LVL0:
  15 0000 4157     		pushq	%r15
  16              		.seh_pushreg	%r15
  17              		.cfi_def_cfa_offset 16
  18              		.cfi_offset 15, -16
  19 0002 4156     		pushq	%r14
  20              		.seh_pushreg	%r14
  21              		.cfi_def_cfa_offset 24
  22              		.cfi_offset 14, -24
  23 0004 4155     		pushq	%r13
  24              		.seh_pushreg	%r13
  25              		.cfi_def_cfa_offset 32
  26              		.cfi_offset 13, -32
  27 0006 4154     		pushq	%r12
  28              		.seh_pushreg	%r12
  29              		.cfi_def_cfa_offset 40
  30              		.cfi_offset 12, -40
  31 0008 55       		pushq	%rbp
  32              		.seh_pushreg	%rbp
  33              		.cfi_def_cfa_offset 48
  34              		.cfi_offset 6, -48
  35 0009 57       		pushq	%rdi
  36              		.seh_pushreg	%rdi
  37              		.cfi_def_cfa_offset 56
  38              		.cfi_offset 5, -56
  39 000a 56       		pushq	%rsi
  40              		.seh_pushreg	%rsi
  41              		.cfi_def_cfa_offset 64
  42              		.cfi_offset 4, -64
  43 000b 53       		pushq	%rbx
  44              		.seh_pushreg	%rbx
  45              		.cfi_def_cfa_offset 72
  46              		.cfi_offset 3, -72
  47 000c 4883EC58 		subq	$88, %rsp
  48              		.seh_stackalloc	88
  49              		.cfi_def_cfa_offset 160
  50 0010 0F297424 		movaps	%xmm6, 64(%rsp)
  50      40
  51              		.seh_savexmm	%xmm6, 64
  52              		.cfi_offset 23, -96
  53              		.seh_endprologue
  54              	.LVL1:
  55              	.LBB41:
  42:farsh.c       ****     ULONG sum = 0;  int i = 0;
  43:farsh.c       ****     const char *data = (const char*) data_ptr,  *end = data+bytes;
  56              		.loc 1 43 0
  57 0015 488D0411 		leaq	(%rcx,%rdx), %rax
  58              	.LBE41:
  41:farsh.c       ****     ULONG sum = 0;  int i = 0;
  59              		.loc 1 41 0
  60 0019 4889CB   		movq	%rcx, %rbx
  61 001c 4C89C6   		movq	%r8, %rsi
  62              	.LBB54:
  44:farsh.c       ****     while (data < end)
  63              		.loc 1 44 0
  64 001f 4839C1   		cmpq	%rax, %rcx
  43:farsh.c       ****     while (data < end)
  65              		.loc 1 43 0
  66 0022 48894424 		movq	%rax, 32(%rsp)
  66      20
  67              	.LVL2:
  68              		.loc 1 44 0
  69 0027 0F83D601 		jae	.L14
  69      0000
  70 002d 4881FA00 		cmpq	$1024, %rdx
  70      040000
  71 0034 41BF0004 		movl	$1024, %r15d
  71      0000
  72 003a 41BC0000 		movl	$0, %r12d
  72      0000
  73 0040 4C0F46FA 		cmovbe	%rdx, %r15
  74 0044 4C8D5424 		leaq	48(%rsp), %r10
  74      30
  75              	.LBB42:
  76              	.LBB43:
  77              	.LBB44:
  32:farsh.c       ****     UINT extra_data[2] = {0};
  78              		.loc 1 32 0
  79 0049 4C89FF   		movq	%r15, %rdi
  80 004c 4D89FD   		movq	%r15, %r13
  81 004f 48C1EF02 		shrq	$2, %rdi
  82 0053 4883E7FE 		andq	$-2, %rdi
  34:farsh.c       ****     memcpy (extra_data, data+elements, extra_bytes);
  83              		.loc 1 34 0
  84 0057 488D04BD 		leaq	0(,%rdi,4), %rax
  84      00000000 
  85              	.LVL3:
  86 005f 4929C5   		subq	%rax, %r13
  87 0062 48894424 		movq	%rax, 40(%rsp)
  87      28
  88 0067 4D0F45E2 		cmovne	%r10, %r12
  89 006b 31ED     		xorl	%ebp, %ebp
  90 006d 4531F6   		xorl	%r14d, %r14d
  91              	.LVL4:
  92              		.p2align 4,,10
  93              	.L12:
  31:farsh.c       ****     size_t elements = (bytes/sizeof(UINT)) & (~1);
  94              		.loc 1 31 0
  95 0070 4981FF00 		cmpq	$1024, %r15
  95      040000
  96 0077 0F84D300 		je	.L28
  96      0000
  97              	.LVL5:
  98 007d 488B4424 		movq	40(%rsp), %rax
  98      28
  35:farsh.c       ****     return farsh_pairs (data, elements, extra_bytes?extra_data:NULL, farsh_key);
  99              		.loc 1 35 0
 100 0082 4C89D1   		movq	%r10, %rcx
 101 0085 4D89E8   		movq	%r13, %r8
  33:farsh.c       ****     size_t extra_bytes = bytes - elements*sizeof(UINT);
 102              		.loc 1 33 0
 103 0088 48C74424 		movq	$0, 48(%rsp)
 103      30000000 
 103      00
 104              	.LVL6:
 105 0091 488D1403 		leaq	(%rbx,%rax), %rdx
  35:farsh.c       ****     return farsh_pairs (data, elements, extra_bytes?extra_data:NULL, farsh_key);
 106              		.loc 1 35 0
 107 0095 E8000000 		call	memcpy
 107      00
 108              	.LVL7:
  36:farsh.c       **** }
 109              		.loc 1 36 0
 110 009a 4D85ED   		testq	%r13, %r13
  35:farsh.c       ****     return farsh_pairs (data, elements, extra_bytes?extra_data:NULL, farsh_key);
 111              		.loc 1 35 0
 112 009d 4989C2   		movq	%rax, %r10
  36:farsh.c       **** }
 113              		.loc 1 36 0
 114 00a0 0F843A01 		je	.L29
 114      0000
 115              	.LVL8:
 116              	.LBB45:
 117              	.LBB46:
  19:farsh.c       ****         sum += (data[i] + farsh_key[i]) * (ULONG)(data[i+1] + farsh_key[i+1]);
 118              		.loc 1 19 0
 119 00a6 31D2     		xorl	%edx, %edx
 120 00a8 31C0     		xorl	%eax, %eax
 121 00aa 4885FF   		testq	%rdi, %rdi
 122 00ad 0F843F01 		je	.L30
 122      0000
 123              	.LVL9:
 124              		.p2align 4,,10
 125              	.L17:
  20:farsh.c       ****     if (extra)
 126              		.loc 1 20 0
 127 00b3 8B4C8304 		movl	4(%rbx,%rax,4), %ecx
 128 00b7 4189C8   		movl	%ecx, %r8d
 129 00ba 8B0C83   		movl	(%rbx,%rax,4), %ecx
 130 00bd 44034486 		addl	4(%rsi,%rax,4), %r8d
 130      04
 131 00c2 030C86   		addl	(%rsi,%rax,4), %ecx
 132 00c5 4883C002 		addq	$2, %rax
 133              	.LVL10:
 134 00c9 490FAFC8 		imulq	%r8, %rcx
 135 00cd 4801CA   		addq	%rcx, %rdx
 136              	.LVL11:
  19:farsh.c       ****         sum += (data[i] + farsh_key[i]) * (ULONG)(data[i+1] + farsh_key[i+1]);
 137              		.loc 1 19 0
 138 00d0 4839C7   		cmpq	%rax, %rdi
 139 00d3 77DE     		ja	.L17
 140 00d5 48C1E002 		salq	$2, %rax
  21:farsh.c       ****         sum += (extra[0] + farsh_key[i]) * (ULONG)(extra[1] + farsh_key[i+1]);
 141              		.loc 1 21 0
 142 00d9 4D85E4   		testq	%r12, %r12
 143 00dc 4D89E0   		movq	%r12, %r8
 144 00df 4C8D5804 		leaq	4(%rax), %r11
 145 00e3 7419     		je	.L25
 146              	.LVL12:
 147              	.L13:
  22:farsh.c       ****     return (UINT)(sum >> 32);
 148              		.loc 1 22 0
 149 00e5 418B4804 		movl	4(%r8), %ecx
 150 00e9 458B00   		movl	(%r8), %r8d
 151              	.LVL13:
 152 00ec 42030C1E 		addl	(%rsi,%r11), %ecx
 153              	.LVL14:
 154 00f0 4589C1   		movl	%r8d, %r9d
 155 00f3 44030C06 		addl	(%rsi,%rax), %r9d
 156 00f7 490FAFC9 		imulq	%r9, %rcx
 157 00fb 4801CA   		addq	%rcx, %rdx
 158              	.L25:
 159 00fe 48C1EA20 		shrq	$32, %rdx
 160              	.LVL15:
 161              	.L5:
 162              	.LBE46:
 163              	.LBE45:
 164              	.LBE44:
 165              	.LBE43:
  45:farsh.c       ****     {
  46:farsh.c       ****         size_t minbytes = (bytes<STRIPE? bytes : STRIPE);
  47:farsh.c       ****         UINT h = farsh_block (data, minbytes, farsh_key);
  48:farsh.c       ****         data += minbytes;
  49:farsh.c       ****         sum += h*(ULONG)farsh_key[i];
 166              		.loc 1 49 0
 167 0102 4863C5   		movslq	%ebp, %rax
  50:farsh.c       ****         if (++i == STRIPE_ELEMENTS)
 168              		.loc 1 50 0
 169 0105 83C501   		addl	$1, %ebp
 170              	.LVL16:
  48:farsh.c       ****         sum += h*(ULONG)farsh_key[i];
 171              		.loc 1 48 0
 172 0108 4C01FB   		addq	%r15, %rbx
 173              	.LVL17:
  49:farsh.c       ****         if (++i == STRIPE_ELEMENTS)
 174              		.loc 1 49 0
 175 010b 8B0486   		movl	(%rsi,%rax,4), %eax
 176 010e 480FAFD0 		imulq	%rax, %rdx
  51:farsh.c       ****             i = 0;/*to do*/
 177              		.loc 1 51 0
 178 0112 B8000000 		movl	$0, %eax
 178      00
  49:farsh.c       ****         if (++i == STRIPE_ELEMENTS)
 179              		.loc 1 49 0
 180 0117 4901D6   		addq	%rdx, %r14
 181              	.LVL18:
 182              		.loc 1 51 0
 183 011a 81FD0001 		cmpl	$256, %ebp
 183      0000
 184 0120 0F44E8   		cmove	%eax, %ebp
 185              	.LVL19:
 186              	.LBE42:
  44:farsh.c       ****     {
 187              		.loc 1 44 0
 188 0123 48395C24 		cmpq	%rbx, 32(%rsp)
 188      20
 189 0128 0F8742FF 		ja	.L12
 189      FFFF
 190 012e 49C1EE20 		shrq	$32, %r14
 191              	.LVL20:
 192 0132 4C89F0   		movq	%r14, %rax
 193              	.LVL21:
 194              	.L22:
 195              	.LBE54:
  52:farsh.c       ****     }
  53:farsh.c       ****     return (UINT)(sum >> 32);
  54:farsh.c       **** }
 196              		.loc 1 54 0
 197 0135 0F287424 		movaps	64(%rsp), %xmm6
 197      40
 198 013a 4883C458 		addq	$88, %rsp
 199              		.cfi_remember_state
 200              		.cfi_restore 23
 201              		.cfi_def_cfa_offset 72
 202 013e 5B       		popq	%rbx
 203              		.cfi_restore 3
 204              		.cfi_def_cfa_offset 64
 205              	.LVL22:
 206 013f 5E       		popq	%rsi
 207              		.cfi_restore 4
 208              		.cfi_def_cfa_offset 56
 209              	.LVL23:
 210 0140 5F       		popq	%rdi
 211              		.cfi_restore 5
 212              		.cfi_def_cfa_offset 48
 213 0141 5D       		popq	%rbp
 214              		.cfi_restore 6
 215              		.cfi_def_cfa_offset 40
 216 0142 415C     		popq	%r12
 217              		.cfi_restore 12
 218              		.cfi_def_cfa_offset 32
 219 0144 415D     		popq	%r13
 220              		.cfi_restore 13
 221              		.cfi_def_cfa_offset 24
 222 0146 415E     		popq	%r14
 223              		.cfi_restore 14
 224              		.cfi_def_cfa_offset 16
 225 0148 415F     		popq	%r15
 226              		.cfi_restore 15
 227              		.cfi_def_cfa_offset 8
 228 014a C3       		ret
 229              	.LVL24:
 230 014b 0F1F4400 		.p2align 4,,10
 230      00
 231              	.L28:
 232              		.cfi_restore_state
 233              	.LBB55:
 234              	.LBB53:
 235              	.LBB52:
 236              	.LBB51:
  31:farsh.c       ****     size_t elements = (bytes/sizeof(UINT)) & (~1);
 237              		.loc 1 31 0
 238 0150 31C0     		xorl	%eax, %eax
 239 0152 660FEFD2 		pxor	%xmm2, %xmm2
 240              	.L4:
 241              	.LBB48:
 242              	.LBB49:
  20:farsh.c       ****     if (extra)
 243              		.loc 1 20 0
 244 0156 F30F6F1C 		movdqu	(%rbx,%rax), %xmm3
 244      03
 245 015b F30F6F0C 		movdqu	(%rsi,%rax), %xmm1
 245      06
 246 0160 F30F6F6C 		movdqu	16(%rbx,%rax), %xmm5
 246      0310
 247 0166 660F6FC3 		movdqa	%xmm3, %xmm0
 248 016a F30F6F74 		movdqu	16(%rsi,%rax), %xmm6
 248      0610
 249 0170 660F6FE1 		movdqa	%xmm1, %xmm4
 250 0174 4883C020 		addq	$32, %rax
 251 0178 0FC6DDDD 		shufps	$221, %xmm5, %xmm3
 252 017c 0FC6C588 		shufps	$136, %xmm5, %xmm0
 253 0180 483D0004 		cmpq	$1024, %rax
 253      0000
 254 0186 0FC6E688 		shufps	$136, %xmm6, %xmm4
 255 018a 0FC6CEDD 		shufps	$221, %xmm6, %xmm1
 256 018e 660FFEC4 		paddd	%xmm4, %xmm0
 257 0192 660FFECB 		paddd	%xmm3, %xmm1
 258 0196 660F6FE1 		movdqa	%xmm1, %xmm4
 259 019a 660F6FD8 		movdqa	%xmm0, %xmm3
 260 019e 660F62E1 		punpckldq	%xmm1, %xmm4
 261 01a2 660F62D8 		punpckldq	%xmm0, %xmm3
 262 01a6 660FF4DC 		pmuludq	%xmm4, %xmm3
 263 01aa 660F6AC9 		punpckhdq	%xmm1, %xmm1
 264 01ae 660F6AC0 		punpckhdq	%xmm0, %xmm0
 265 01b2 660FF4C1 		pmuludq	%xmm1, %xmm0
 266 01b6 660FD4D3 		paddq	%xmm3, %xmm2
 267 01ba 660FD4D0 		paddq	%xmm0, %xmm2
 268              	.LVL25:
 269 01be 7596     		jne	.L4
 270 01c0 660F6FCA 		movdqa	%xmm2, %xmm1
 271 01c4 660F73D9 		psrldq	$8, %xmm1
 271      08
 272              	.LVL26:
 273 01c9 660FD4D1 		paddq	%xmm1, %xmm2
 274              	.LVL27:
 275 01cd 66480F7E 		movq	%xmm2, %rdx
 275      D2
  23:farsh.c       **** }
 276              		.loc 1 23 0
 277 01d2 48C1EA20 		shrq	$32, %rdx
 278 01d6 E927FFFF 		jmp	.L5
 278      FF
 279              	.LVL28:
 280 01db 0F1F4400 		.p2align 4,,10
 280      00
 281              	.L29:
 282              	.LBE49:
 283              	.LBE48:
 284              	.LBB50:
 285              	.LBB47:
  19:farsh.c       ****         sum += (data[i] + farsh_key[i]) * (ULONG)(data[i+1] + farsh_key[i+1]);
 286              		.loc 1 19 0
 287 01e0 31D2     		xorl	%edx, %edx
 288 01e2 31C0     		xorl	%eax, %eax
 289 01e4 4885FF   		testq	%rdi, %rdi
 290 01e7 0F85C6FE 		jne	.L17
 290      FFFF
 291 01ed E910FFFF 		jmp	.L5
 291      FF
 292              	.LVL29:
 293              	.L30:
 294 01f2 41BB0400 		movl	$4, %r11d
 294      0000
  18:farsh.c       ****     for (i=0; i < elements; i+=2)
 295              		.loc 1 18 0
 296 01f8 4889FA   		movq	%rdi, %rdx
 297              	.LBE47:
 298              	.LBE50:
  36:farsh.c       **** }
 299              		.loc 1 36 0
 300 01fb 4D89D0   		movq	%r10, %r8
 301 01fe E9E2FEFF 		jmp	.L13
 301      FF
 302              	.LVL30:
 303              	.L14:
 304              	.LBE51:
 305              	.LBE52:
 306              	.LBE53:
  44:farsh.c       ****     {
 307              		.loc 1 44 0
 308 0203 31C0     		xorl	%eax, %eax
 309              	.LVL31:
 310 0205 E92BFFFF 		jmp	.L22
 310      FF
 311              	.LBE55:
 312              		.cfi_endproc
 313              	.LFE3006:
 314              		.seh_endproc
 315 020a 660F1F44 		.p2align 4,,15
 315      0000
 316              		.globl	_Z13farsh_keyed_nPKvyPKjiPj
 318              		.seh_proc	_Z13farsh_keyed_nPKvyPKjiPj
 319              	_Z13farsh_keyed_nPKvyPKjiPj:
 320              	.LFB3007:
  55:farsh.c       **** 
  56:farsh.c       **** /* Hash the buffer of arbitrary size */
  57:farsh.c       **** void farsh_keyed_n (const void *data_ptr, size_t bytes, const UINT *farsh_key, int n, UINT *hash)
  58:farsh.c       **** {
 321              		.loc 1 58 0
 322              		.cfi_startproc
 323              	.LVL32:
 324 0210 4155     		pushq	%r13
 325              		.seh_pushreg	%r13
 326              		.cfi_def_cfa_offset 16
 327              		.cfi_offset 13, -16
 328 0212 4154     		pushq	%r12
 329              		.seh_pushreg	%r12
 330              		.cfi_def_cfa_offset 24
 331              		.cfi_offset 12, -24
 332 0214 55       		pushq	%rbp
 333              		.seh_pushreg	%rbp
 334              		.cfi_def_cfa_offset 32
 335              		.cfi_offset 6, -32
 336 0215 57       		pushq	%rdi
 337              		.seh_pushreg	%rdi
 338              		.cfi_def_cfa_offset 40
 339              		.cfi_offset 5, -40
 340 0216 56       		pushq	%rsi
 341              		.seh_pushreg	%rsi
 342              		.cfi_def_cfa_offset 48
 343              		.cfi_offset 4, -48
 344 0217 53       		pushq	%rbx
 345              		.seh_pushreg	%rbx
 346              		.cfi_def_cfa_offset 56
 347              		.cfi_offset 3, -56
 348 0218 4883EC28 		subq	$40, %rsp
 349              		.seh_stackalloc	40
 350              		.cfi_def_cfa_offset 96
 351              		.seh_endprologue
 352              	.LVL33:
 353              		.loc 1 58 0
 354 021c 4C8BA424 		movq	128(%rsp), %r12
 354      80000000 
 355              	.LBB57:
  59:farsh.c       ****     int i;
  60:farsh.c       ****     for (i=0; i < n; i++)
 356              		.loc 1 60 0
 357 0224 4585C9   		testl	%r9d, %r9d
 358 0227 7E34     		jle	.L31
 359 0229 4183E901 		subl	$1, %r9d
 360              	.LVL34:
 361 022d 4C89C5   		movq	%r8, %rbp
 362 0230 4889D7   		movq	%rdx, %rdi
 363 0233 4E8D2C8D 		leaq	4(,%r9,4), %r13
 363      04000000 
 364 023b 4889CE   		movq	%rcx, %rsi
 365 023e 31DB     		xorl	%ebx, %ebx
 366              	.LVL35:
 367              		.p2align 4,,10
 368              	.L33:
  61:farsh.c       ****         hash[i] = farsh_keyed (data_ptr, bytes, farsh_key+i);
 369              		.loc 1 61 0 discriminator 3
 370 0240 4C8D441D 		leaq	0(%rbp,%rbx), %r8
 370      00
 371 0245 4889FA   		movq	%rdi, %rdx
 372 0248 4889F1   		movq	%rsi, %rcx
 373 024b E8B0FDFF 		call	_Z11farsh_keyedPKvyPKj
 373      FF
 374              	.LVL36:
 375 0250 4189041C 		movl	%eax, (%r12,%rbx)
 376 0254 4883C304 		addq	$4, %rbx
  60:farsh.c       ****         hash[i] = farsh_keyed (data_ptr, bytes, farsh_key+i);
 377              		.loc 1 60 0 discriminator 3
 378 0258 4C39EB   		cmpq	%r13, %rbx
 379 025b 75E3     		jne	.L33
 380              	.LVL37:
 381              	.L31:
 382              	.LBE57:
  62:farsh.c       **** }
 383              		.loc 1 62 0
 384 025d 4883C428 		addq	$40, %rsp
 385              		.cfi_def_cfa_offset 56
 386 0261 5B       		popq	%rbx
 387              		.cfi_restore 3
 388              		.cfi_def_cfa_offset 48
 389 0262 5E       		popq	%rsi
 390              		.cfi_restore 4
 391              		.cfi_def_cfa_offset 40
 392 0263 5F       		popq	%rdi
 393              		.cfi_restore 5
 394              		.cfi_def_cfa_offset 32
 395 0264 5D       		popq	%rbp
 396              		.cfi_restore 6
 397              		.cfi_def_cfa_offset 24
 398 0265 415C     		popq	%r12
 399              		.cfi_restore 12
 400              		.cfi_def_cfa_offset 16
 401 0267 415D     		popq	%r13
 402              		.cfi_restore 13
 403              		.cfi_def_cfa_offset 8
 404 0269 C3       		ret
 405              		.cfi_endproc
 406              	.LFE3007:
 407              		.seh_endproc
 408 026a 660F1F44 		.p2align 4,,15
 408      0000
 409              		.globl	_Z7farsh_nPKvyiPj
 411              		.seh_proc	_Z7farsh_nPKvyiPj
 412              	_Z7farsh_nPKvyiPj:
 413              	.LFB3008:
  63:farsh.c       **** 
  64:farsh.c       **** /* Hash the buffer of arbitrary size */
  65:farsh.c       **** void farsh_n (const void *data_ptr, size_t bytes, int n, UINT *hash)
  66:farsh.c       **** {
 414              		.loc 1 66 0
 415              		.cfi_startproc
 416              	.LVL38:
 417 0270 4155     		pushq	%r13
 418              		.seh_pushreg	%r13
 419              		.cfi_def_cfa_offset 16
 420              		.cfi_offset 13, -16
 421 0272 4154     		pushq	%r12
 422              		.seh_pushreg	%r12
 423              		.cfi_def_cfa_offset 24
 424              		.cfi_offset 12, -24
 425 0274 55       		pushq	%rbp
 426              		.seh_pushreg	%rbp
 427              		.cfi_def_cfa_offset 32
 428              		.cfi_offset 6, -32
 429 0275 57       		pushq	%rdi
 430              		.seh_pushreg	%rdi
 431              		.cfi_def_cfa_offset 40
 432              		.cfi_offset 5, -40
 433 0276 56       		pushq	%rsi
 434              		.seh_pushreg	%rsi
 435              		.cfi_def_cfa_offset 48
 436              		.cfi_offset 4, -48
 437 0277 53       		pushq	%rbx
 438              		.seh_pushreg	%rbx
 439              		.cfi_def_cfa_offset 56
 440              		.cfi_offset 3, -56
 441 0278 4883EC28 		subq	$40, %rsp
 442              		.seh_stackalloc	40
 443              		.cfi_def_cfa_offset 96
 444              		.seh_endprologue
 445              	.LVL39:
 446              	.LBB61:
 447              	.LBB62:
  60:farsh.c       ****         hash[i] = farsh_keyed (data_ptr, bytes, farsh_key+i);
 448              		.loc 1 60 0
 449 027c 4585C0   		testl	%r8d, %r8d
 450 027f 7E3B     		jle	.L36
 451 0281 4183E801 		subl	$1, %r8d
 452              	.LVL40:
 453 0285 4C89CD   		movq	%r9, %rbp
 454 0288 4889D7   		movq	%rdx, %rdi
 455 028b 4E8D2C85 		leaq	4(,%r8,4), %r13
 455      04000000 
 456 0293 4889CE   		movq	%rcx, %rsi
 457 0296 31DB     		xorl	%ebx, %ebx
 458 0298 4C8D2580 		leaq	_ZL9farsh_key(%rip), %r12
 458      000000
 459              	.LVL41:
 460 029f 90       		.p2align 4,,10
 461              	.L38:
  61:farsh.c       **** }
 462              		.loc 1 61 0
 463 02a0 4D8D041C 		leaq	(%r12,%rbx), %r8
 464 02a4 4889FA   		movq	%rdi, %rdx
 465 02a7 4889F1   		movq	%rsi, %rcx
 466 02aa E851FDFF 		call	_Z11farsh_keyedPKvyPKj
 466      FF
 467              	.LVL42:
 468 02af 89441D00 		movl	%eax, 0(%rbp,%rbx)
 469 02b3 4883C304 		addq	$4, %rbx
  60:farsh.c       ****         hash[i] = farsh_keyed (data_ptr, bytes, farsh_key+i);
 470              		.loc 1 60 0
 471 02b7 4C39EB   		cmpq	%r13, %rbx
 472 02ba 75E4     		jne	.L38
 473              	.LVL43:
 474              	.L36:
 475              	.LBE62:
 476              	.LBE61:
  67:farsh.c       ****     farsh_keyed_n (data_ptr, bytes, farsh_key, n, hash);
  68:farsh.c       **** }
 477              		.loc 1 68 0
 478 02bc 4883C428 		addq	$40, %rsp
 479              		.cfi_def_cfa_offset 56
 480 02c0 5B       		popq	%rbx
 481              		.cfi_restore 3
 482              		.cfi_def_cfa_offset 48
 483 02c1 5E       		popq	%rsi
 484              		.cfi_restore 4
 485              		.cfi_def_cfa_offset 40
 486 02c2 5F       		popq	%rdi
 487              		.cfi_restore 5
 488              		.cfi_def_cfa_offset 32
 489 02c3 5D       		popq	%rbp
 490              		.cfi_restore 6
 491              		.cfi_def_cfa_offset 24
 492 02c4 415C     		popq	%r12
 493              		.cfi_restore 12
 494              		.cfi_def_cfa_offset 16
 495 02c6 415D     		popq	%r13
 496              		.cfi_restore 13
 497              		.cfi_def_cfa_offset 8
 498 02c8 C3       		ret
 499              		.cfi_endproc
 500              	.LFE3008:
 501              		.seh_endproc
 502 02c9 0F1F8000 		.p2align 4,,15
 502      000000
 503              		.globl	_Z5farshPKvy
 505              		.seh_proc	_Z5farshPKvy
 506              	_Z5farshPKvy:
 507              	.LFB3009:
  69:farsh.c       **** 
  70:farsh.c       **** /* Hash the buffer of arbitrary size */
  71:farsh.c       **** UINT farsh (const void *data_ptr, size_t bytes)
  72:farsh.c       **** {
 508              		.loc 1 72 0
 509              		.cfi_startproc
 510              	.LVL44:
 511              		.seh_endprologue
  73:farsh.c       ****     return farsh_keyed (data_ptr, bytes, farsh_key);
 512              		.loc 1 73 0
 513 02d0 4C8D0580 		leaq	_ZL9farsh_key(%rip), %r8
 513      000000
  74:farsh.c       **** }
 514              		.loc 1 74 0
  73:farsh.c       ****     return farsh_keyed (data_ptr, bytes, farsh_key);
 515              		.loc 1 73 0
 516 02d7 E924FDFF 		jmp	_Z11farsh_keyedPKvyPKj
 516      FF
 517              	.LVL45:
 518              		.cfi_endproc
 519              	.LFE3009:
 520              		.seh_endproc
 522              		.section .rdata,"dr"
 523              	.LC0:
 524 0000 48617368 		.ascii "Hashing %d GiB\0"
 524      696E6720 
 524      25642047 
 524      694200
 525 000f 00       		.align 8
 526              	.LC5:
 527 0010 3A20252E 		.ascii ": %.3lf milliseconds = %.3lf GB/s = %.3lf GiB/s\12\0"
 527      336C6620 
 527      6D696C6C 
 527      69736563 
 527      6F6E6473 
 528              		.section	.text.startup,"x"
 529              		.p2align 4,,15
 530              		.globl	main
 532              		.seh_proc	main
 533              	main:
 534              	.LFB3010:
 535              		.file 2 "main.cpp"
   1:main.cpp      **** #include <stdio.h>
   2:main.cpp      **** #include <stdint.h>
   3:main.cpp      **** #include "timer.h"
   4:main.cpp      **** #include "farsh.c"
   5:main.cpp      **** 
   6:main.cpp      **** int main()
   7:main.cpp      **** {
 536              		.loc 2 7 0
 537              		.cfi_startproc
 538 0000 4154     		pushq	%r12
 539              		.seh_pushreg	%r12
 540              		.cfi_def_cfa_offset 16
 541              		.cfi_offset 12, -16
 542 0002 55       		pushq	%rbp
 543              		.seh_pushreg	%rbp
 544              		.cfi_def_cfa_offset 24
 545              		.cfi_offset 6, -24
 546 0003 57       		pushq	%rdi
 547              		.seh_pushreg	%rdi
 548              		.cfi_def_cfa_offset 32
 549              		.cfi_offset 5, -32
 550 0004 56       		pushq	%rsi
 551              		.seh_pushreg	%rsi
 552              		.cfi_def_cfa_offset 40
 553              		.cfi_offset 4, -40
 554 0005 53       		pushq	%rbx
 555              		.seh_pushreg	%rbx
 556              		.cfi_def_cfa_offset 48
 557              		.cfi_offset 3, -48
 558 0006 4883EC50 		subq	$80, %rsp
 559              		.seh_stackalloc	80
 560              		.cfi_def_cfa_offset 128
 561 000a 0F297424 		movaps	%xmm6, 64(%rsp)
 561      40
 562              		.seh_savexmm	%xmm6, 64
 563              		.cfi_offset 23, -64
 564              		.seh_endprologue
 565 000f 488D2D80 		leaq	_ZL9farsh_key(%rip), %rbp
 565      000000
 566              	.LBB93:
 567              	.LBB94:
 568              	.LBB95:
 569              		.file 3 "timer.h"
   1:timer.h       **** //--------------------------------------------------------------------------------------
   2:timer.h       **** // Copyright (c) Microsoft Corp.
   3:timer.h       **** //
   4:timer.h       **** // File: timer.h
   5:timer.h       **** //
   6:timer.h       **** // Licensed under the Apache License, Version 2.0 (the "License"); you may not use this
   7:timer.h       **** // file except in compliance with the License. You may obtain a copy of the License at
   8:timer.h       **** // http://www.apache.org/licenses/LICENSE-2.0
   9:timer.h       **** //
  10:timer.h       **** // THIS CODE IS PROVIDED *AS IS* BASIS, WITHOUT WARRANTIES OR CONDITIONS OF ANY KIND,
  11:timer.h       **** // EITHER EXPRESS OR IMPLIED, INCLUDING WITHOUT LIMITATION ANY IMPLIED WARRANTIES OR
  12:timer.h       **** // CONDITIONS OF TITLE, FITNESS FOR A PARTICULAR PURPOSE, MERCHANTABLITY OR NON-INFRINGEMENT.
  13:timer.h       **** //
  14:timer.h       **** // See the Apache Version 2.0 License for specific language governing permissions and
  15:timer.h       **** // limitations under the License.
  16:timer.h       **** //--------------------------------------------------------------------------------------
  17:timer.h       **** 
  18:timer.h       **** #pragma once
  19:timer.h       **** #include <windows.h>
  20:timer.h       **** 
  21:timer.h       **** struct Timer
  22:timer.h       **** {
  23:timer.h       ****     void Start()
  24:timer.h       ****     {
  25:timer.h       ****         QueryPerformanceCounter(&m_start);
 570              		.loc 3 25 0
 571 0016 4531E4   		xorl	%r12d, %r12d
 572 0019 488D3D00 		leaq	28672+_ZZ4mainE4data(%rip), %rdi
 572      700000
 573              	.LBE95:
 574              	.LBE94:
 575              	.LBE93:
 576              		.loc 2 7 0
 577 0020 E8000000 		call	__main
 577      00
 578              	.LVL46:
 579              	.LBB142:
 580              	.LBB99:
 581              	.LBB100:
  26:timer.h       ****     }
  27:timer.h       **** 
  28:timer.h       ****     void Stop()
  29:timer.h       ****     {
  30:timer.h       ****         QueryPerformanceCounter(&m_stop);
  31:timer.h       ****     }
  32:timer.h       **** 
  33:timer.h       ****     // Returns elapsed time in milliseconds (ms)
  34:timer.h       ****     double Elapsed()
  35:timer.h       ****     {
  36:timer.h       ****         return (m_stop.QuadPart - m_start.QuadPart - m_overhead) \
  37:timer.h       ****                                           * 1000.0 / m_freq.QuadPart;
  38:timer.h       ****     }
  39:timer.h       **** 
  40:timer.h       ****     Timer()
  41:timer.h       ****     {
  42:timer.h       ****         // Initialize the resolution of the timer
  43:timer.h       ****         QueryPerformanceFrequency(&m_freq);
 582              		.loc 3 43 0
 583 0025 488D5C24 		leaq	32(%rsp), %rbx
 583      20
 584              	.LBE100:
 585              	.LBE99:
   8:main.cpp      ****     const size_t DATASIZE = 28*1024;
   9:main.cpp      ****     const uint64_t DATASET = uint64_t(10)<<30;
  10:main.cpp      ****     printf("Hashing %d GiB", int(DATASET>>30));
 586              		.loc 2 10 0
 587 002a BA0A0000 		movl	$10, %edx
 587      00
 588 002f 488D0D00 		leaq	.LC0(%rip), %rcx
 588      000000
 589 0036 E8000000 		call	printf
 589      00
 590              	.LVL47:
 591              	.LBB111:
 592              	.LBB109:
 593              		.loc 3 43 0
 594 003b 488D4B10 		leaq	16(%rbx), %rcx
 595 003f FF150000 		call	*__imp_QueryPerformanceFrequency(%rip)
 595      0000
 596              	.LVL48:
 597              	.LBB101:
 598              	.LBB102:
 599              	.LBB103:
 600              	.LBB104:
  25:timer.h       ****     }
 601              		.loc 3 25 0
 602 0045 488B3500 		movq	__imp_QueryPerformanceCounter(%rip), %rsi
 602      000000
 603 004c 4889D9   		movq	%rbx, %rcx
 604 004f FFD6     		call	*%rsi
 605              	.LVL49:
 606              	.LBE104:
 607              	.LBE103:
 608              	.LBB105:
 609              	.LBB106:
  30:timer.h       ****     }
 610              		.loc 3 30 0
 611 0051 488D4B08 		leaq	8(%rbx), %rcx
 612 0055 FFD6     		call	*%rsi
 613              	.LVL50:
 614              	.LBE106:
 615              	.LBE105:
  44:timer.h       **** 
  45:timer.h       ****         // Calculate the overhead of the timer
  46:timer.h       ****         m_overhead = Timer::GetOverhead();
  47:timer.h       ****     }
  48:timer.h       **** 
  49:timer.h       **** private:
  50:timer.h       **** 
  51:timer.h       ****     // Returns the overhead of the timer in ticks
  52:timer.h       ****     LONGLONG GetOverhead()
  53:timer.h       ****     {
  54:timer.h       ****         Start();
  55:timer.h       ****         Stop();
  56:timer.h       ****         return m_stop.QuadPart - m_start.QuadPart;
 616              		.loc 3 56 0
 617 0057 488B4424 		movq	40(%rsp), %rax
 617      28
 618              	.LBE102:
 619              	.LBE101:
 620              	.LBE109:
 621              	.LBE111:
 622              	.LBB112:
 623              	.LBB96:
  25:timer.h       ****     }
 624              		.loc 3 25 0
 625 005c 4889D9   		movq	%rbx, %rcx
 626              	.LBE96:
 627              	.LBE112:
 628              	.LBB113:
 629              	.LBB110:
 630              	.LBB108:
 631              	.LBB107:
 632              		.loc 3 56 0
 633 005f 482B4424 		subq	32(%rsp), %rax
 633      20
 634              	.LBE107:
 635              	.LBE108:
  46:timer.h       ****     }
 636              		.loc 3 46 0
 637 0064 48894424 		movq	%rax, 56(%rsp)
 637      38
 638              	.LVL51:
 639              	.LBE110:
 640              	.LBE113:
 641              	.LBB114:
 642              	.LBB97:
  25:timer.h       ****     }
 643              		.loc 3 25 0
 644 0069 FFD6     		call	*%rsi
 645              	.LVL52:
 646 006b 488D0D80 		leaq	1024+_ZL9farsh_key(%rip), %rcx
 646      040000
 647              	.LVL53:
 648              		.p2align 4,,10
 649              	.L48:
 650              	.LBE97:
 651              	.LBE114:
 652              	.LBB115:
 653              	.LBB116:
  11:main.cpp      ****     Timer t;  t.Start();
  12:main.cpp      **** 
  13:main.cpp      ****     for (int i=0; i<DATASET/DATASIZE; i++)
  14:main.cpp      ****     {
  15:main.cpp      ****         static char data[DATASIZE];  data[0]=(char)i;
 654              		.loc 2 15 0
 655 0072 44882500 		movb	%r12b, _ZZ4mainE4data(%rip)
 655      000000
 656              	.LVL54:
 657              	.LBB117:
 658              	.LBB118:
 659              	.LBB119:
  42:farsh.c       ****     const char *data = (const char*) data_ptr,  *end = data+bytes;
 660              		.loc 1 42 0
 661 0079 4531D2   		xorl	%r10d, %r10d
 662 007c 4531C0   		xorl	%r8d, %r8d
 663              	.LBB120:
  51:farsh.c       ****     }
 664              		.loc 1 51 0
 665 007f 4531DB   		xorl	%r11d, %r11d
 666              	.LBE120:
  43:farsh.c       ****     while (data < end)
 667              		.loc 1 43 0
 668 0082 4C8D0D00 		leaq	_ZZ4mainE4data(%rip), %r9
 668      000000
 669              	.LVL55:
 670 0089 0F1F8000 		.p2align 4,,10
 670      000000
 671              	.L43:
 672 0090 488D0580 		leaq	_ZL9farsh_key(%rip), %rax
 672      000000
 673 0097 4C89CA   		movq	%r9, %rdx
 674              	.LBE119:
 675              	.LBE118:
 676              	.LBE117:
 677              	.LBE116:
 678              	.LBE115:
 679              	.LBB134:
 680              	.LBB98:
  25:timer.h       ****     }
 681              		.loc 3 25 0
 682 009a 660FEFE4 		pxor	%xmm4, %xmm4
 683              	.LVL56:
 684              	.L44:
 685              	.LBE98:
 686              	.LBE134:
 687              	.LBB135:
 688              	.LBB133:
 689              	.LBB132:
 690              	.LBB131:
 691              	.LBB130:
 692              	.LBB129:
 693              	.LBB121:
 694              	.LBB122:
 695              	.LBB123:
 696              	.LBB124:
  20:farsh.c       ****     if (extra)
 697              		.loc 1 20 0
 698 009e 660F6F0A 		movdqa	(%rdx), %xmm1
 699 00a2 4883C020 		addq	$32, %rax
 700 00a6 4883C220 		addq	$32, %rdx
 701 00aa 660F6F40 		movdqa	-32(%rax), %xmm0
 701      E0
 702 00af 660F6F6A 		movdqa	-16(%rdx), %xmm5
 702      F0
 703 00b4 660F6FD9 		movdqa	%xmm1, %xmm3
 704 00b8 660F6F70 		movdqa	-16(%rax), %xmm6
 704      F0
 705 00bd 660F6FD0 		movdqa	%xmm0, %xmm2
 706 00c1 4839C8   		cmpq	%rcx, %rax
 707 00c4 0FC6DD88 		shufps	$136, %xmm5, %xmm3
 708 00c8 0FC6CDDD 		shufps	$221, %xmm5, %xmm1
 709 00cc 0FC6D688 		shufps	$136, %xmm6, %xmm2
 710 00d0 0FC6C6DD 		shufps	$221, %xmm6, %xmm0
 711 00d4 660FFED3 		paddd	%xmm3, %xmm2
 712 00d8 660FFEC1 		paddd	%xmm1, %xmm0
 713 00dc 660F6FD8 		movdqa	%xmm0, %xmm3
 714 00e0 660F6FCA 		movdqa	%xmm2, %xmm1
 715 00e4 660F62D8 		punpckldq	%xmm0, %xmm3
 716 00e8 660F62CA 		punpckldq	%xmm2, %xmm1
 717 00ec 660FF4CB 		pmuludq	%xmm3, %xmm1
 718 00f0 660F6AC0 		punpckhdq	%xmm0, %xmm0
 719 00f4 660F6AD2 		punpckhdq	%xmm2, %xmm2
 720 00f8 660FF4C2 		pmuludq	%xmm2, %xmm0
 721 00fc 660FD4E1 		paddq	%xmm1, %xmm4
 722 0100 660FD4E0 		paddq	%xmm0, %xmm4
 723 0104 7598     		jne	.L44
 724              	.LBE124:
 725              	.LBE123:
 726              	.LBE122:
 727              	.LBE121:
  49:farsh.c       ****         if (++i == STRIPE_ELEMENTS)
 728              		.loc 1 49 0
 729 0106 4963D0   		movslq	%r8d, %rdx
 730 0109 660F6FC4 		movdqa	%xmm4, %xmm0
  50:farsh.c       ****             i = 0;/*to do*/
 731              		.loc 1 50 0
 732 010d 4183C001 		addl	$1, %r8d
 733              	.LVL57:
 734 0111 660F73D8 		psrldq	$8, %xmm0
 734      08
 735              	.LVL58:
  49:farsh.c       ****         if (++i == STRIPE_ELEMENTS)
 736              		.loc 1 49 0
 737 0116 8B549500 		movl	0(%rbp,%rdx,4), %edx
  48:farsh.c       ****         sum += h*(ULONG)farsh_key[i];
 738              		.loc 1 48 0
 739 011a 4981C100 		addq	$1024, %r9
 739      040000
 740              	.LVL59:
 741 0121 660FD4C4 		paddq	%xmm4, %xmm0
 742              	.LVL60:
 743 0125 66480F7E 		movq	%xmm0, %rax
 743      C0
 744              	.LBB128:
 745              	.LBB127:
 746              	.LBB126:
 747              	.LBB125:
  23:farsh.c       **** }
 748              		.loc 1 23 0
 749 012a 48C1E820 		shrq	$32, %rax
 750              	.LBE125:
 751              	.LBE126:
 752              	.LBE127:
 753              	.LBE128:
  49:farsh.c       ****         if (++i == STRIPE_ELEMENTS)
 754              		.loc 1 49 0
 755 012e 480FAFC2 		imulq	%rdx, %rax
 756 0132 4901C2   		addq	%rax, %r10
 757              	.LVL61:
  51:farsh.c       ****     }
 758              		.loc 1 51 0
 759 0135 4181F800 		cmpl	$256, %r8d
 759      010000
 760 013c 450F44C3 		cmove	%r11d, %r8d
 761              	.LVL62:
 762              	.LBE129:
  44:farsh.c       ****     {
 763              		.loc 1 44 0
 764 0140 4939F9   		cmpq	%rdi, %r9
 765 0143 0F8247FF 		jb	.L43
 765      FFFF
  53:farsh.c       **** }
 766              		.loc 1 53 0
 767 0149 49C1EA20 		shrq	$32, %r10
 768              	.LVL63:
 769              	.LBE130:
 770              	.LBE131:
 771              	.LBE132:
  16:main.cpp      ****         auto h = farsh (data, DATASIZE);
  17:main.cpp      ****         if (h==42) break;
 772              		.loc 2 17 0
 773 014d 4983FA2A 		cmpq	$42, %r10
 774 0151 7411     		je	.L47
 775              	.LBE133:
  13:main.cpp      ****     {
 776              		.loc 2 13 0 discriminator 2
 777 0153 4183C401 		addl	$1, %r12d
 778              	.LVL64:
 779 0157 4181FCDB 		cmpl	$374491, %r12d
 779      B60500
 780 015e 0F850EFF 		jne	.L48
 780      FFFF
 781              	.L47:
 782              	.LVL65:
 783              	.LBE135:
 784              	.LBB136:
 785              	.LBB137:
  30:timer.h       ****     }
 786              		.loc 3 30 0
 787 0164 488D4B08 		leaq	8(%rbx), %rcx
 788 0168 FFD6     		call	*%rsi
 789              	.LVL66:
 790              	.LBE137:
 791              	.LBE136:
 792              	.LBB138:
 793              	.LBB139:
  36:timer.h       ****                                           * 1000.0 / m_freq.QuadPart;
 794              		.loc 3 36 0
 795 016a 488B4424 		movq	40(%rsp), %rax
 795      28
  37:timer.h       ****     }
 796              		.loc 3 37 0
 797 016f 660FEFC0 		pxor	%xmm0, %xmm0
 798 0173 660FEFD2 		pxor	%xmm2, %xmm2
  36:timer.h       ****                                           * 1000.0 / m_freq.QuadPart;
 799              		.loc 3 36 0
 800 0177 482B4424 		subq	32(%rsp), %rax
 800      20
 801              	.LBE139:
 802              	.LBE138:
  18:main.cpp      ****     }
  19:main.cpp      **** 
  20:main.cpp      ****     t.Stop();  auto speed = DATASET/(t.Elapsed()/1000);
  21:main.cpp      ****     printf(": %.3lf milliseconds = %.3lf GB/s = %.3lf GiB/s\n", t.Elapsed(), speed/1e9, speed/(1<<3
 803              		.loc 2 21 0
 804 017c 488D0D10 		leaq	.LC5(%rip), %rcx
 804      000000
 805              	.LBB141:
 806              	.LBB140:
  36:timer.h       ****                                           * 1000.0 / m_freq.QuadPart;
 807              		.loc 3 36 0
 808 0183 482B4424 		subq	56(%rsp), %rax
 808      38
  37:timer.h       ****     }
 809              		.loc 3 37 0
 810 0188 F20F100D 		movsd	.LC1(%rip), %xmm1
 810      00050000 
 811 0190 F2480F2A 		cvtsi2sdq	48(%rsp), %xmm2
 811      542430
 812 0197 F2480F2A 		cvtsi2sdq	%rax, %xmm0
 812      C0
 813 019c F20F59C1 		mulsd	%xmm1, %xmm0
 814 01a0 F20F5EC2 		divsd	%xmm2, %xmm0
 815              	.LBE140:
 816              	.LBE141:
  20:main.cpp      ****     printf(": %.3lf milliseconds = %.3lf GB/s = %.3lf GiB/s\n", t.Elapsed(), speed/1e9, speed/(1<<3
 817              		.loc 2 20 0
 818 01a4 660F28D0 		movapd	%xmm0, %xmm2
 819              		.loc 2 21 0
 820 01a8 66480F7E 		movq	%xmm0, %rdx
 820      C2
  20:main.cpp      ****     printf(": %.3lf milliseconds = %.3lf GB/s = %.3lf GiB/s\n", t.Elapsed(), speed/1e9, speed/(1<<3
 821              		.loc 2 20 0
 822 01ad F20F5ED1 		divsd	%xmm1, %xmm2
 823 01b1 F20F100D 		movsd	.LC2(%rip), %xmm1
 823      08050000 
 824 01b9 F20F5ECA 		divsd	%xmm2, %xmm1
 825              	.LVL67:
 826              		.loc 2 21 0
 827 01bd F20F1015 		movsd	.LC3(%rip), %xmm2
 827      10050000 
 828 01c5 F20F59D1 		mulsd	%xmm1, %xmm2
 829 01c9 F20F5E0D 		divsd	.LC4(%rip), %xmm1
 829      18050000 
 830              	.LVL68:
 831 01d1 66490F7E 		movq	%xmm1, %r8
 831      C8
 832 01d6 660F28DA 		movapd	%xmm2, %xmm3
 833 01da 66490F7E 		movq	%xmm2, %r9
 833      D1
 834 01df 660F28D1 		movapd	%xmm1, %xmm2
 835 01e3 660F28C8 		movapd	%xmm0, %xmm1
 836 01e7 E8000000 		call	printf
 836      00
 837 01ec 90       		nop
 838              	.LVL69:
 839              	.LBE142:
  22:main.cpp      ****     return 0;
  23:main.cpp      **** }
 840              		.loc 2 23 0
 841 01ed 0F287424 		movaps	64(%rsp), %xmm6
 841      40
 842 01f2 31C0     		xorl	%eax, %eax
 843 01f4 4883C450 		addq	$80, %rsp
 844              		.cfi_restore 23
 845              		.cfi_def_cfa_offset 48
 846 01f8 5B       		popq	%rbx
 847              		.cfi_restore 3
 848              		.cfi_def_cfa_offset 40
 849              	.LVL70:
 850 01f9 5E       		popq	%rsi
 851              		.cfi_restore 4
 852              		.cfi_def_cfa_offset 32
 853 01fa 5F       		popq	%rdi
 854              		.cfi_restore 5
 855              		.cfi_def_cfa_offset 24
 856              	.LVL71:
 857 01fb 5D       		popq	%rbp
 858              		.cfi_restore 6
 859              		.cfi_def_cfa_offset 16
 860 01fc 415C     		popq	%r12
 861              		.cfi_restore 12
 862              		.cfi_def_cfa_offset 8
 863              	.LVL72:
 864 01fe C3       		ret
 865              		.cfi_endproc
 866              	.LFE3010:
 867              		.seh_endproc
 868              	.lcomm _ZZ4mainE4data,28672,64
 869 01ff 90       		.section .rdata,"dr"
 870 0041 00000000 		.align 64
 870      00000000 
 870      00000000 
 870      00000000 
 870      00000000 
 871              	_ZL9farsh_key:
 872 0080 396CFEB8 		.long	-1191285703
 873 0084 BE4BA423 		.long	597969854
 874 0088 2C81017C 		.long	2080473388
 875 008c 1CAD21F7 		.long	-148787940
 876 0090 E96DD4DE 		.long	-556503575
 877 0094 DB979083 		.long	-2087675941
 878 0098 A4A44072 		.long	1916839076
 879 009c 1F67B3B7 		.long	-1212979425
 880 00a0 4EE679CB 		.long	-881203634
 881 00a4 78E5C0CC 		.long	-859773576
 882 00a8 7DD05A82 		.long	-2107977603
 883 00ac 2172FFCC 		.long	-855674335
 884 00b0 744608B8 		.long	-1207417228
 885 00b4 8E2443F7 		.long	-146594674
 886 00b8 E69035E0 		.long	-533360410
 887 00bc 4C263A81 		.long	-2126895540
 888 00c0 BB52283C 		.long	1009275579
 889 00c4 CB00C391 		.long	-1849491253
 890 00c8 8B65D088 		.long	-1999608437
 891 00cc A32E531B 		.long	458436259
 892 00d0 97486471 		.long	1902397591
 893 00d4 4EF90DA2 		.long	-1576142514
 894 00d8 46EF1938 		.long	941223750
 895 00dc D8ACDEA9 		.long	-1445024552
 896 00e0 3F76FAA8 		.long	-1459980737
 897 00e4 3F349CE3 		.long	-476302273
 898 00e8 C7BBDCF9 		.long	-102974521
 899 00ec 1D4F0BC7 		.long	-955560163
 900 00f0 4BE0518A 		.long	-1974345653
 901 00f4 3159B4CD 		.long	-843818703
 902 00f8 C97E9FC8 		.long	-929071415
 903 00fc 647378D9 		.long	-646417564
 904 0100 52076A4F 		.long	1332348754
 905 0104 9C079BA7 		.long	-1483012196
 906 0108 9994C48F 		.long	-1882942311
 907 010c A9B7C98E 		.long	-1899382871
 908 0110 4922C933 		.long	868819529
 909 0114 4F40B64E 		.long	1320566863
 910 0118 4EFB2AFB 		.long	-81069234
 911 011c 554281A4 		.long	-1535032747
 912 0120 981B0E2F 		.long	789453720
 913 0124 243BE9AC 		.long	-1394001116
 914 0128 CD508818 		.long	411586765
 915 012c A7745C6C 		.long	1817998503
 916 0130 0444FA66 		.long	1727677444
 917 0134 83ACC5EA 		.long	-356143997
 918 0138 C3EBD334 		.long	886303683
 919 013c FFA081C5 		.long	-981360385
 920 0140 EB6313FA 		.long	-99392533
 921 0144 51DD0D17 		.long	386784593
 922 0148 49DAF0B7 		.long	-1208952247
 923 014c 265516D3 		.long	-753511130
 924 0150 9E68D429 		.long	701786270
 925 0154 58BE162B 		.long	722910808
 926 0158 FCA1477D 		.long	2101846524
 927 015c D1B8F88F 		.long	-1879525167
 928 0160 CE31D07A 		.long	2060464590
 929 0164 8F3ACB45 		.long	1170946703
 930 0168 28041695 		.long	-1793719256
 931 016c CAFBD7AF 		.long	-1344799798
 932 0170 7E404BBB 		.long	-1152696194
 933 0174 A4745299 		.long	-1722649436
 934 0178 932D9AEB 		.long	-342217325
 935 017c 0889E73B 		.long	1005029640
 936 0180 6C5F47ED 		.long	-314089620
 937 0184 F2D89C91 		.long	-1851991822
 938 0188 5A1E86D3 		.long	-746185126
 939 018c 0C39316E 		.long	1848719628
 940 0190 493A6AFE 		.long	-26592695
 941 0194 1409ADDC 		.long	-592639724
 942 0198 EB8B5006 		.long	105941995
 943 019c F39983A8 		.long	-1467770381
 944 01a0 2F1158B0 		.long	-1336405713
 945 01a4 79FAB0E8 		.long	-391054727
 946 01a8 06DAB429 		.long	699718150
 947 01ac FB53C2ED 		.long	-306031621
 948 01b0 AD6DE9C3 		.long	-1008112211
 949 01b4 832B376E 		.long	1849109379
 950 01b8 53B1784F 		.long	1333309779
 951 01bc 866EFAFF 		.long	-364922
 952 01c0 ECEEBE21 		.long	566161132
 953 01c4 02EACA01 		.long	30075394
 954 01c8 0DE56712 		.long	308798733
 955 01cc 2F09E611 		.long	300288303
 956 01d0 98D219E8 		.long	-400960872
 957 01d4 DD802F83 		.long	-2094038819
 958 01d8 77244E0C 		.long	206447735
 959 01dc EB8678BC 		.long	-1132951829
 960 01e0 37665001 		.long	22046263
 961 01e4 6896A88B 		.long	-1951885720
 962 01e8 A0E7116D 		.long	1829889952
 963 01ec 15FD12FC 		.long	-65864427
 964 01f0 194CA586 		.long	-2035987431
 965 01f4 DDE33C59 		.long	1497162717
 966 01f8 E53FB1D2 		.long	-760135707
 967 01fc 532B778E 		.long	-1904792749
 968 0200 CC604AAE 		.long	-1370857268
 969 0204 1B3B7A64 		.long	1685732123
 970 0208 E0867754 		.long	1417119456
 971 020c 8E37C43E 		.long	1053046670
 972 0210 89CF7A8D 		.long	-1921331319
 973 0214 47F936CA 		.long	-902366905
 974 0218 EFD5890E 		.long	243914223
 975 021c 3C6ADAAA 		.long	-1428526532
 976 0220 09A1A46D 		.long	1839505673
 977 0224 1CE1C69A 		.long	-1698242276
 978 0228 EF916668 		.long	1751552495
 979 022c 2BBD57A3 		.long	-1554531029
 980 0230 9A1B6FD1 		.long	-781247590
 981 0234 0303C738 		.long	952566531
 982 0238 B322467D 		.long	2101748403
 983 023c 8FFA6829 		.long	694745743
 984 0240 B9BCA58C 		.long	-1935295303
 985 0244 0510D6FC 		.long	-53080059
 986 0248 965E8B22 		.long	579559062
 987 024c 19CC9D2C 		.long	748538905
 988 0250 3C24CF57 		.long	1473193020
 989 0254 C1F9533C 		.long	1012136385
 990 0258 2C95C70C 		.long	214406444
 991 025c F0E46D68 		.long	1752032496
 992 0260 B547A793 		.long	-1817753675
 993 0264 10A5874E 		.long	1317512464
 994 0268 AE915E97 		.long	-1755410002
 995 026c 8EB9104C 		.long	1276164494
 996 0270 8C067F8A 		.long	-1971386740
 997 0274 AB196B34 		.long	879434155
 998 0278 25A63C35 		.long	893167141
 999 027c E0500AF2 		.long	-234204960
 1000 0280 F62199CE 		.long	-828825098
 1001 0284 14E066DF 		.long	-546906092
 1002 0288 4BEF110A 		.long	168947531
 1003 028c DF4DC88B 		.long	-1949807137
 1004 0290 225DD284 		.long	-2066588382
 1005 0294 6D9323C8 		.long	-937192595
 1006 0298 C31E7494 		.long	-1804329277
 1007 029c 608A2788 		.long	-2010674592
 1008 02a0 319364B8 		.long	-1201368271
 1009 02a4 107A707A 		.long	2054191632
 1010 02a8 D6CA9272 		.long	1922222806
 1011 02ac C244C6A7 		.long	-1480178494
 1012 02b0 FA6B15BD 		.long	-1122669574
 1013 02b4 78956C64 		.long	1684837752
 1014 02b8 D5DFF4B7 		.long	-1208688683
 1015 02bc A777829F 		.long	-1618839641
 1016 02c0 4E921370 		.long	1880330830
 1017 02c4 C34C67AD 		.long	-1385739069
 1018 02c8 059DAE2C 		.long	749640965
 1019 02cc 229A2A91 		.long	-1859479006
 1020 02d0 FA537CF6 		.long	-159624198
 1021 02d4 A9227E8D 		.long	-1921113431
 1022 02d8 2B37AE59 		.long	1504589611
 1023 02dc F3990185 		.long	-2063492621
 1024 02e0 2C10A263 		.long	1671565356
 1025 02e4 6112FFD6 		.long	-687926687
 1026 02e8 E18E7356 		.long	1450413793
 1027 02ec 5B1495AA 		.long	-1433070501
 1028 02f0 3228D1FD 		.long	-36624334
 1029 02f4 EB4D685B 		.long	1533562347
 1030 02f8 94DE8407 		.long	126148244
 1031 02fc 0E3962AA 		.long	-1436403442
 1032 0300 19CF7CBB 		.long	-1149448423
 1033 0304 72D5EF0F 		.long	267375986
 1034 0308 CA415B56 		.long	1448821194
 1035 030c 02D20622 		.long	570872322
 1036 0310 7984602D 		.long	761300089
 1037 0314 3DCD0F4C 		.long	1276103997
 1038 0318 E33B6DD3 		.long	-747815965
 1039 031c 659A5A15 		.long	358259301
 1040 0320 32E7F910 		.long	284813106
 1041 0324 1E0F9BAC 		.long	-1399124194
 1042 0328 3BA0721F 		.long	527605819
 1043 032c AE4094EA 		.long	-359382866
 1044 0330 4F4B675B 		.long	1533496143
 1045 0334 D127A831 		.long	833103825
 1046 0338 4F95CAEC 		.long	-322267825
 1047 033c 1ED62C3D 		.long	1026348574
 1048 0340 A43D8D76 		.long	1988967844
 1049 0344 C15A7493 		.long	-1821091135
 1050 0348 CB585D1D 		.long	492656843
 1051 034c B6F3864B 		.long	1267135414
 1052 0350 3A92BA2A 		.long	716870202
 1053 0354 4C81650E 		.long	241533260
 1054 0358 D963E08A 		.long	-1965005863
 1055 035c B06969CD 		.long	-848729680
 1056 0360 85156436 		.long	912528773
 1057 0364 9DF52A74 		.long	1948972445
 1058 0368 16133A61 		.long	1631195926
 1059 036c 71A48E33 		.long	864986225
 1060 0370 F31A8647 		.long	1199971059
 1061 0374 C39D4730 		.long	809999811
 1062 0378 81A47012 		.long	309372033
 1063 037c 69107708 		.long	142020713
 1064 0380 D2F0C4E3 		.long	-473632558
 1065 0384 4C872902 		.long	36276044
 1066 0388 C13B8A5A 		.long	1519008705
 1067 038c 33970DE3 		.long	-485648589
 1068 0390 A2E55BD0 		.long	-799283806
 1069 0394 BA31AFE2 		.long	-491834950
 1070 0398 F9492022 		.long	572541433
 1071 039c 6A3B929F 		.long	-1617806486
 1072 03a0 EC643F03 		.long	54486252
 1073 03a4 2BB628E5 		.long	-450316757
 1074 03a8 BDEF0182 		.long	-2113802307
 1075 03ac 77D80721 		.long	554162295
 1076 03b0 F12E31D8 		.long	-667865359
 1077 03b4 999F67A5 		.long	-1519935591
 1078 03b8 1BB53017 		.long	389068059
 1079 03bc D2162675 		.long	1965430482
 1080 03c0 09593005 		.long	87054601
 1081 03c4 0B44CA0D 		.long	231359499
 1082 03c8 D9CD9320 		.long	546557401
 1083 03cc 50AB0964 		.long	1678355280
 1084 03d0 CC8E5CBA 		.long	-1168339252
 1085 03d4 EA08478D 		.long	-1924724502
 1086 03d8 17099F42 		.long	1117718807
 1087 03dc B0FA62B7 		.long	-1218250064
 1088 03e0 75EA6151 		.long	1365371509
 1089 03e4 EBA0EB45 		.long	1173070059
 1090 03e8 414BF3B6 		.long	-1225569471
 1091 03ec 23710452 		.long	1376022819
 1092 03f0 231518E4 		.long	-468183773
 1093 03f4 0AE9748D 		.long	-1921718006
 1094 03f8 1C40FA54 		.long	1425686556
 1095 03fc C70CDADD 		.long	-572912441
 1096 0400 2A18DF63 		.long	1675565098
 1097 0404 F63E40C6 		.long	-968868106
 1098 0408 E8C68E34 		.long	881772264
 1099 040c F557FFB9 		.long	-1174448139
 1100 0410 BDB852F6 		.long	-162350915
 1101 0414 F3B0860F 		.long	260485363
 1102 0418 8A083AFB 		.long	-80082806
 1103 041c 3315C74D 		.long	1304892723
 1104 0420 D217367B 		.long	2067142610
 1105 0424 EB874EA3 		.long	-1555134485
 1106 0428 DD9B2ABA 		.long	-1171612707
 1107 042c 061338E3 		.long	-482864378
 1108 0430 BBD6BA14 		.long	347788987
 1109 0434 C2C76DC9 		.long	-915552318
 1110 0438 B6543B33 		.long	859526326
 1111 043c FA7CE49B 		.long	-1679524614
 1112 0440 9992CF1D 		.long	500142745
 1113 0444 995FEAE7 		.long	-404070503
 1114 0448 CDEA8FB3 		.long	-1282413875
 1115 044c F7E2CFC3 		.long	-1009786121
 1116 0450 22E8875B 		.long	1535633442
 1117 0454 56ABC539 		.long	969255766
 1118 0458 8FA1F418 		.long	418685327
 1119 045c 9C4D482D 		.long	759713180
 1120 0460 19D56341 		.long	1097061657
 1121 0464 989E7679 		.long	2037816984
 1122 0468 F0678AF5 		.long	-175478800
 1123 046c 020C5940 		.long	1079577602
 1124 0470 C0719631 		.long	831943104
 1125 0474 3A136B26 		.long	644551482
 1126 0478 87B281AF 		.long	-1350454649
 1127 047c 37F7316A 		.long	1781659447
 1128 0480 9701BCE3 		.long	-474218089
 1129 0484 13990755 		.long	1426561299
 1130 0488 96C6729F 		.long	-1619868010
 1131 048c C8003E36 		.long	910033096
 1132 0490 47391553 		.long	1393899847
 1133 0494 7F12FDEB 		.long	-335736193
 1134 0498 1905F600 		.long	16123161
 1135 049c 2AB6A646 		.long	1185330730
 1136 04a0 8033B893 		.long	-1816644736
 1137 04a4 2493E23F 		.long	1071813412
 1138 04a8 9170C6DF 		.long	-540643183
 1139 04ac 6D38620F 		.long	258095213
 1140 04b0 795E37DC 		.long	-600351111
 1141 04b4 3E3FEA8F 		.long	-1880473794
 1142 04b8 D06384DF 		.long	-544971824
 1143 04bc 7BFA0237 		.long	922942075
 1144 04c0 5E435439 		.long	961823582
 1145 04c4 48A6CA87 		.long	-2016762296
 1146 04c8 EE8B15A9 		.long	-1458205714
 1147 04cc 250CF308 		.long	150146085
 1148 04d0 3629B866 		.long	1723345206
 1149 04d4 EB3FFCE7 		.long	-402898965
 1150 04d8 50543C18 		.long	406606928
 1151 04dc 4543EFD7 		.long	-672185531
 1152 04e0 63798C79 		.long	2039249251
 1153 04e4 57F52CC0 		.long	-1070795433
 1154 04e8 D1538509 		.long	159732689
 1155 04ec AA1243FA 		.long	-96267606
 1156 04f0 83F89EE2 		.long	-492898173
 1157 04f4 8D12AF7C 		.long	2091848333
 1158 04f8 7DA0B374 		.long	1957929085
 1159 04fc 00000000 		.align 8
 1160              	.LC1:
 1161 0500 00000000 		.long	0
 1162 0504 00408F40 		.long	1083129856
 1163              		.align 8
 1164              	.LC2:
 1165 0508 00000000 		.long	0
 1166 050c 00000442 		.long	1107558400
 1167              		.align 8
 1168              	.LC3:
 1169 0510 00000000 		.long	0
 1170 0514 0000103E 		.long	1041235968
 1171              		.align 8
 1172              	.LC4:
 1173 0518 00000000 		.long	0
 1174 051c 65CDCD41 		.long	1104006501
 1175 0520 00000000 		.text
 1175      00000000 
 1175      00000000 
 1175      00000000 
 1175      00000000 
 1176              	.Letext0:
 1177              		.file 4 "C:/Base/Compiler/MinGW-4.9.2/mingw32/i686-w64-mingw32/include/crtdefs.h"
 1178              		.file 5 "C:/Base/Compiler/MinGW-4.9.2/mingw32/i686-w64-mingw32/include/stdint.h"
 1179              		.file 6 "C:/Base/Compiler/MinGW-4.9.2/mingw32/i686-w64-mingw32/include/minwindef.h"
 1180              		.file 7 "C:/Base/Compiler/MinGW-4.9.2/mingw32/i686-w64-mingw32/include/winnt.h"
 1181              		.file 8 "C:/Base/Compiler/MinGW-4.9.2/mingw32/i686-w64-mingw32/include/stdio.h"
 1182 02dc 90909090 		.section	.debug_info,"dr"
 1183              	.Ldebug_info0:
 1184 0000 860D0000 		.long	0xd86
 1185 0004 0400     		.word	0x4
 1186 0006 00000000 		.secrel32	.Ldebug_abbrev0
 1187 000a 08       		.byte	0x8
 1188 000b 01       		.uleb128 0x1
 1189 000c 474E5520 		.ascii "GNU C++ 4.9.2 -m64 -mtune=core2 -march=nocona -g -O3 -std=c++11\0"
 1189      432B2B20 
 1189      342E392E 
 1189      32202D6D 
 1189      3634202D 
 1190 004c 04       		.byte	0x4
 1191 004d 6D61696E 		.ascii "main.cpp\0"
 1191      2E637070 
 1191      00
 1192 0056 433A5C21 		.ascii "C:\\!FreeArc\\public\\FARSH\0"
 1192      46726565 
 1192      4172635C 
 1192      7075626C 
 1192      69635C46 
 1193 006f E0020000 		.secrel32	.Ldebug_ranges0+0x2e0
 1194 0073 00000000 		.quad	0
 1194      00000000 
 1195 007b 00000000 		.secrel32	.Ldebug_line0
 1196 007f 02       		.uleb128 0x2
 1197 0080 08       		.byte	0x8
 1198 0081 04       		.byte	0x4
 1199 0082 646F7562 		.ascii "double\0"
 1199      6C6500
 1200 0089 02       		.uleb128 0x2
 1201 008a 01       		.byte	0x1
 1202 008b 06       		.byte	0x6
 1203 008c 63686172 		.ascii "char\0"
 1203      00
 1204 0091 03       		.uleb128 0x3
 1205 0092 73697A65 		.ascii "size_t\0"
 1205      5F7400
 1206 0099 04       		.byte	0x4
 1207 009a 23       		.byte	0x23
 1208 009b 9F000000 		.long	0x9f
 1209 009f 02       		.uleb128 0x2
 1210 00a0 08       		.byte	0x8
 1211 00a1 07       		.byte	0x7
 1212 00a2 6C6F6E67 		.ascii "long long unsigned int\0"
 1212      206C6F6E 
 1212      6720756E 
 1212      7369676E 
 1212      65642069 
 1213 00b9 02       		.uleb128 0x2
 1214 00ba 08       		.byte	0x8
 1215 00bb 05       		.byte	0x5
 1216 00bc 6C6F6E67 		.ascii "long long int\0"
 1216      206C6F6E 
 1216      6720696E 
 1216      7400
 1217 00ca 02       		.uleb128 0x2
 1218 00cb 02       		.byte	0x2
 1219 00cc 07       		.byte	0x7
 1220 00cd 73686F72 		.ascii "short unsigned int\0"
 1220      7420756E 
 1220      7369676E 
 1220      65642069 
 1220      6E7400
 1221 00e0 02       		.uleb128 0x2
 1222 00e1 04       		.byte	0x4
 1223 00e2 05       		.byte	0x5
 1224 00e3 696E7400 		.ascii "int\0"
 1225 00e7 02       		.uleb128 0x2
 1226 00e8 04       		.byte	0x4
 1227 00e9 05       		.byte	0x5
 1228 00ea 6C6F6E67 		.ascii "long int\0"
 1228      20696E74 
 1228      00
 1229 00f3 02       		.uleb128 0x2
 1230 00f4 02       		.byte	0x2
 1231 00f5 07       		.byte	0x7
 1232 00f6 77636861 		.ascii "wchar_t\0"
 1232      725F7400 
 1233 00fe 02       		.uleb128 0x2
 1234 00ff 04       		.byte	0x4
 1235 0100 07       		.byte	0x7
 1236 0101 756E7369 		.ascii "unsigned int\0"
 1236      676E6564 
 1236      20696E74 
 1236      00
 1237 010e 02       		.uleb128 0x2
 1238 010f 08       		.byte	0x8
 1239 0110 07       		.byte	0x7
 1240 0111 73697A65 		.ascii "sizetype\0"
 1240      74797065 
 1240      00
 1241 011a 02       		.uleb128 0x2
 1242 011b 04       		.byte	0x4
 1243 011c 07       		.byte	0x7
 1244 011d 6C6F6E67 		.ascii "long unsigned int\0"
 1244      20756E73 
 1244      69676E65 
 1244      6420696E 
 1244      7400
 1245 012f 02       		.uleb128 0x2
 1246 0130 01       		.byte	0x1
 1247 0131 08       		.byte	0x8
 1248 0132 756E7369 		.ascii "unsigned char\0"
 1248      676E6564 
 1248      20636861 
 1248      7200
 1249 0140 02       		.uleb128 0x2
 1250 0141 10       		.byte	0x10
 1251 0142 04       		.byte	0x4
 1252 0143 6C6F6E67 		.ascii "long double\0"
 1252      20646F75 
 1252      626C6500 
 1253 014f 04       		.uleb128 0x4
 1254 0150 6465636C 		.ascii "decltype(nullptr)\0"
 1254      74797065 
 1254      286E756C 
 1254      6C707472 
 1254      2900
 1255 0162 02       		.uleb128 0x2
 1256 0163 01       		.byte	0x1
 1257 0164 06       		.byte	0x6
 1258 0165 7369676E 		.ascii "signed char\0"
 1258      65642063 
 1258      68617200 
 1259 0171 02       		.uleb128 0x2
 1260 0172 02       		.byte	0x2
 1261 0173 05       		.byte	0x5
 1262 0174 73686F72 		.ascii "short int\0"
 1262      7420696E 
 1262      7400
 1263 017e 03       		.uleb128 0x3
 1264 017f 75696E74 		.ascii "uint64_t\0"
 1264      36345F74 
 1264      00
 1265 0188 05       		.byte	0x5
 1266 0189 2A       		.byte	0x2a
 1267 018a 9F000000 		.long	0x9f
 1268 018e 05       		.uleb128 0x5
 1269 018f 08       		.byte	0x8
 1270 0190 03       		.uleb128 0x3
 1271 0191 44574F52 		.ascii "DWORD\0"
 1271      4400
 1272 0197 06       		.byte	0x6
 1273 0198 8D       		.byte	0x8d
 1274 0199 1A010000 		.long	0x11a
 1275 019d 02       		.uleb128 0x2
 1276 019e 04       		.byte	0x4
 1277 019f 04       		.byte	0x4
 1278 01a0 666C6F61 		.ascii "float\0"
 1278      7400
 1279 01a6 06       		.uleb128 0x6
 1280 01a7 08       		.byte	0x8
 1281 01a8 AC010000 		.long	0x1ac
 1282 01ac 07       		.uleb128 0x7
 1283 01ad 06       		.uleb128 0x6
 1284 01ae 08       		.byte	0x8
 1285 01af FE000000 		.long	0xfe
 1286 01b3 08       		.uleb128 0x8
 1287 01b4 4C4F4E47 		.ascii "LONG\0"
 1287      00
 1288 01b9 07       		.byte	0x7
 1289 01ba 1801     		.word	0x118
 1290 01bc E7000000 		.long	0xe7
 1291 01c0 08       		.uleb128 0x8
 1292 01c1 4C4F4E47 		.ascii "LONGLONG\0"
 1292      4C4F4E47 
 1292      00
 1293 01ca 07       		.byte	0x7
 1294 01cb E301     		.word	0x1e3
 1295 01cd B9000000 		.long	0xb9
 1296 01d1 09       		.uleb128 0x9
 1297 01d2 5F4C4152 		.ascii "_LARGE_INTEGER\0"
 1297      47455F49 
 1297      4E544547 
 1297      455200
 1298 01e1 08       		.byte	0x8
 1299 01e2 07       		.byte	0x7
 1300 01e3 F201     		.word	0x1f2
 1301 01e5 5A020000 		.long	0x25a
 1302 01e9 0A       		.uleb128 0xa
 1303 01ea 08       		.byte	0x8
 1304 01eb 07       		.byte	0x7
 1305 01ec F301     		.word	0x1f3
 1306 01ee 11020000 		.long	0x211
 1307 01f2 0B       		.uleb128 0xb
 1308 01f3 4C6F7750 		.ascii "LowPart\0"
 1308      61727400 
 1309 01fb 07       		.byte	0x7
 1310 01fc F401     		.word	0x1f4
 1311 01fe 90010000 		.long	0x190
 1312 0202 00       		.byte	0
 1313 0203 0C       		.uleb128 0xc
 1314 0204 13000000 		.secrel32	.LASF0
 1315 0208 07       		.byte	0x7
 1316 0209 F501     		.word	0x1f5
 1317 020b B3010000 		.long	0x1b3
 1318 020f 04       		.byte	0x4
 1319 0210 00       		.byte	0
 1320 0211 0A       		.uleb128 0xa
 1321 0212 08       		.byte	0x8
 1322 0213 07       		.byte	0x7
 1323 0214 F701     		.word	0x1f7
 1324 0216 39020000 		.long	0x239
 1325 021a 0B       		.uleb128 0xb
 1326 021b 4C6F7750 		.ascii "LowPart\0"
 1326      61727400 
 1327 0223 07       		.byte	0x7
 1328 0224 F801     		.word	0x1f8
 1329 0226 90010000 		.long	0x190
 1330 022a 00       		.byte	0
 1331 022b 0C       		.uleb128 0xc
 1332 022c 13000000 		.secrel32	.LASF0
 1333 0230 07       		.byte	0x7
 1334 0231 F901     		.word	0x1f9
 1335 0233 B3010000 		.long	0x1b3
 1336 0237 04       		.byte	0x4
 1337 0238 00       		.byte	0
 1338 0239 0D       		.uleb128 0xd
 1339 023a E9010000 		.long	0x1e9
 1340 023e 0E       		.uleb128 0xe
 1341 023f 7500     		.ascii "u\0"
 1342 0241 07       		.byte	0x7
 1343 0242 FA01     		.word	0x1fa
 1344 0244 11020000 		.long	0x211
 1345 0248 0E       		.uleb128 0xe
 1346 0249 51756164 		.ascii "QuadPart\0"
 1346      50617274 
 1346      00
 1347 0252 07       		.byte	0x7
 1348 0253 FC01     		.word	0x1fc
 1349 0255 C0010000 		.long	0x1c0
 1350 0259 00       		.byte	0
 1351 025a 08       		.uleb128 0x8
 1352 025b 4C415247 		.ascii "LARGE_INTEGER\0"
 1352      455F494E 
 1352      54454745 
 1352      5200
 1353 0269 07       		.byte	0x7
 1354 026a FD01     		.word	0x1fd
 1355 026c D1010000 		.long	0x1d1
 1356 0270 0F       		.uleb128 0xf
 1357 0271 54696D65 		.ascii "Timer\0"
 1357      7200
 1358 0277 20       		.byte	0x20
 1359 0278 03       		.byte	0x3
 1360 0279 15       		.byte	0x15
 1361 027a 93030000 		.long	0x393
 1362 027e 10       		.uleb128 0x10
 1363 027f 6D5F7374 		.ascii "m_start\0"
 1363      61727400 
 1364 0287 03       		.byte	0x3
 1365 0288 3B       		.byte	0x3b
 1366 0289 5A020000 		.long	0x25a
 1367 028d 00       		.byte	0
 1368 028e 03       		.byte	0x3
 1369 028f 10       		.uleb128 0x10
 1370 0290 6D5F7374 		.ascii "m_stop\0"
 1370      6F7000
 1371 0297 03       		.byte	0x3
 1372 0298 3C       		.byte	0x3c
 1373 0299 5A020000 		.long	0x25a
 1374 029d 08       		.byte	0x8
 1375 029e 03       		.byte	0x3
 1376 029f 10       		.uleb128 0x10
 1377 02a0 6D5F6672 		.ascii "m_freq\0"
 1377      657100
 1378 02a7 03       		.byte	0x3
 1379 02a8 3D       		.byte	0x3d
 1380 02a9 5A020000 		.long	0x25a
 1381 02ad 10       		.byte	0x10
 1382 02ae 03       		.byte	0x3
 1383 02af 10       		.uleb128 0x10
 1384 02b0 6D5F6F76 		.ascii "m_overhead\0"
 1384      65726865 
 1384      616400
 1385 02bb 03       		.byte	0x3
 1386 02bc 3E       		.byte	0x3e
 1387 02bd C0010000 		.long	0x1c0
 1388 02c1 18       		.byte	0x18
 1389 02c2 03       		.byte	0x3
 1390 02c3 11       		.uleb128 0x11
 1391 02c4 53746172 		.ascii "Start\0"
 1391      7400
 1392 02ca 03       		.byte	0x3
 1393 02cb 17       		.byte	0x17
 1394 02cc 5F5A4E35 		.ascii "_ZN5Timer5StartEv\0"
 1394      54696D65 
 1394      72355374 
 1394      61727445 
 1394      7600
 1395 02de E6020000 		.long	0x2e6
 1396 02e2 EC020000 		.long	0x2ec
 1397 02e6 12       		.uleb128 0x12
 1398 02e7 93030000 		.long	0x393
 1399 02eb 00       		.byte	0
 1400 02ec 11       		.uleb128 0x11
 1401 02ed 53746F70 		.ascii "Stop\0"
 1401      00
 1402 02f2 03       		.byte	0x3
 1403 02f3 1C       		.byte	0x1c
 1404 02f4 5F5A4E35 		.ascii "_ZN5Timer4StopEv\0"
 1404      54696D65 
 1404      72345374 
 1404      6F704576 
 1404      00
 1405 0305 0D030000 		.long	0x30d
 1406 0309 13030000 		.long	0x313
 1407 030d 12       		.uleb128 0x12
 1408 030e 93030000 		.long	0x393
 1409 0312 00       		.byte	0
 1410 0313 13       		.uleb128 0x13
 1411 0314 456C6170 		.ascii "Elapsed\0"
 1411      73656400 
 1412 031c 03       		.byte	0x3
 1413 031d 22       		.byte	0x22
 1414 031e 5F5A4E35 		.ascii "_ZN5Timer7ElapsedEv\0"
 1414      54696D65 
 1414      7237456C 
 1414      61707365 
 1414      64457600 
 1415 0332 7F000000 		.long	0x7f
 1416 0336 3E030000 		.long	0x33e
 1417 033a 44030000 		.long	0x344
 1418 033e 12       		.uleb128 0x12
 1419 033f 93030000 		.long	0x393
 1420 0343 00       		.byte	0
 1421 0344 14       		.uleb128 0x14
 1422 0345 54696D65 		.ascii "Timer\0"
 1422      7200
 1423 034b 03       		.byte	0x3
 1424 034c 28       		.byte	0x28
 1425 034d 55030000 		.long	0x355
 1426 0351 5B030000 		.long	0x35b
 1427 0355 12       		.uleb128 0x12
 1428 0356 93030000 		.long	0x393
 1429 035a 00       		.byte	0
 1430 035b 15       		.uleb128 0x15
 1431 035c 4765744F 		.ascii "GetOverhead\0"
 1431      76657268 
 1431      65616400 
 1432 0368 03       		.byte	0x3
 1433 0369 34       		.byte	0x34
 1434 036a 5F5A4E35 		.ascii "_ZN5Timer11GetOverheadEv\0"
 1434      54696D65 
 1434      72313147 
 1434      65744F76 
 1434      65726865 
 1435 0383 C0010000 		.long	0x1c0
 1436 0387 03       		.byte	0x3
 1437 0388 8C030000 		.long	0x38c
 1438 038c 12       		.uleb128 0x12
 1439 038d 93030000 		.long	0x393
 1440 0391 00       		.byte	0
 1441 0392 00       		.byte	0
 1442 0393 06       		.uleb128 0x6
 1443 0394 08       		.byte	0x8
 1444 0395 70020000 		.long	0x270
 1445 0399 16       		.uleb128 0x16
 1446 039a C3020000 		.long	0x2c3
 1447 039e 03       		.byte	0x3
 1448 039f A7030000 		.long	0x3a7
 1449 03a3 B2030000 		.long	0x3b2
 1450 03a7 17       		.uleb128 0x17
 1451 03a8 74686973 		.ascii "this\0"
 1451      00
 1452 03ad B2030000 		.long	0x3b2
 1453 03b1 00       		.byte	0
 1454 03b2 18       		.uleb128 0x18
 1455 03b3 93030000 		.long	0x393
 1456 03b7 16       		.uleb128 0x16
 1457 03b8 EC020000 		.long	0x2ec
 1458 03bc 03       		.byte	0x3
 1459 03bd C5030000 		.long	0x3c5
 1460 03c1 D0030000 		.long	0x3d0
 1461 03c5 17       		.uleb128 0x17
 1462 03c6 74686973 		.ascii "this\0"
 1462      00
 1463 03cb B2030000 		.long	0x3b2
 1464 03cf 00       		.byte	0
 1465 03d0 16       		.uleb128 0x16
 1466 03d1 5B030000 		.long	0x35b
 1467 03d5 03       		.byte	0x3
 1468 03d6 DE030000 		.long	0x3de
 1469 03da E9030000 		.long	0x3e9
 1470 03de 17       		.uleb128 0x17
 1471 03df 74686973 		.ascii "this\0"
 1471      00
 1472 03e4 B2030000 		.long	0x3b2
 1473 03e8 00       		.byte	0
 1474 03e9 19       		.uleb128 0x19
 1475 03ea 66617273 		.ascii "farsh\0"
 1475      6800
 1476 03f0 01       		.byte	0x1
 1477 03f1 47       		.byte	0x47
 1478 03f2 FE000000 		.long	0xfe
 1479 03f6 01       		.byte	0x1
 1480 03f7 12040000 		.long	0x412
 1481 03fb 1A       		.uleb128 0x1a
 1482 03fc 0A000000 		.secrel32	.LASF1
 1483 0400 01       		.byte	0x1
 1484 0401 47       		.byte	0x47
 1485 0402 A6010000 		.long	0x1a6
 1486 0406 1A       		.uleb128 0x1a
 1487 0407 25000000 		.secrel32	.LASF2
 1488 040b 01       		.byte	0x1
 1489 040c 47       		.byte	0x47
 1490 040d 91000000 		.long	0x91
 1491 0411 00       		.byte	0
 1492 0412 16       		.uleb128 0x16
 1493 0413 13030000 		.long	0x313
 1494 0417 03       		.byte	0x3
 1495 0418 20040000 		.long	0x420
 1496 041c 2B040000 		.long	0x42b
 1497 0420 17       		.uleb128 0x17
 1498 0421 74686973 		.ascii "this\0"
 1498      00
 1499 0426 B2030000 		.long	0x3b2
 1500 042a 00       		.byte	0
 1501 042b 1B       		.uleb128 0x1b
 1502 042c 66617273 		.ascii "farsh_pairs\0"
 1502      685F7061 
 1502      69727300 
 1503 0438 01       		.byte	0x1
 1504 0439 10       		.byte	0x10
 1505 043a FE000000 		.long	0xfe
 1506 043e 01       		.byte	0x1
 1507 043f 89040000 		.long	0x489
 1508 0443 1C       		.uleb128 0x1c
 1509 0444 64617461 		.ascii "data\0"
 1509      00
 1510 0449 01       		.byte	0x1
 1511 044a 10       		.byte	0x10
 1512 044b 89040000 		.long	0x489
 1513 044f 1A       		.uleb128 0x1a
 1514 0450 1C000000 		.secrel32	.LASF3
 1515 0454 01       		.byte	0x1
 1516 0455 10       		.byte	0x10
 1517 0456 91000000 		.long	0x91
 1518 045a 1C       		.uleb128 0x1c
 1519 045b 65787472 		.ascii "extra\0"
 1519      6100
 1520 0461 01       		.byte	0x1
 1521 0462 10       		.byte	0x10
 1522 0463 89040000 		.long	0x489
 1523 0467 1A       		.uleb128 0x1a
 1524 0468 00000000 		.secrel32	.LASF4
 1525 046c 01       		.byte	0x1
 1526 046d 10       		.byte	0x10
 1527 046e 89040000 		.long	0x489
 1528 0472 1D       		.uleb128 0x1d
 1529 0473 1E       		.uleb128 0x1e
 1530 0474 73756D00 		.ascii "sum\0"
 1531 0478 01       		.byte	0x1
 1532 0479 12       		.byte	0x12
 1533 047a 9F000000 		.long	0x9f
 1534 047e 1E       		.uleb128 0x1e
 1535 047f 6900     		.ascii "i\0"
 1536 0481 01       		.byte	0x1
 1537 0482 12       		.byte	0x12
 1538 0483 E0000000 		.long	0xe0
 1539 0487 00       		.byte	0
 1540 0488 00       		.byte	0
 1541 0489 06       		.uleb128 0x6
 1542 048a 08       		.byte	0x8
 1543 048b 8F040000 		.long	0x48f
 1544 048f 18       		.uleb128 0x18
 1545 0490 FE000000 		.long	0xfe
 1546 0494 1B       		.uleb128 0x1b
 1547 0495 66617273 		.ascii "farsh_block\0"
 1547      685F626C 
 1547      6F636B00 
 1548 04a1 01       		.byte	0x1
 1549 04a2 1C       		.byte	0x1c
 1550 04a3 FE000000 		.long	0xfe
 1551 04a7 01       		.byte	0x1
 1552 04a8 0C050000 		.long	0x50c
 1553 04ac 1A       		.uleb128 0x1a
 1554 04ad 0A000000 		.secrel32	.LASF1
 1555 04b1 01       		.byte	0x1
 1556 04b2 1C       		.byte	0x1c
 1557 04b3 A6010000 		.long	0x1a6
 1558 04b7 1A       		.uleb128 0x1a
 1559 04b8 25000000 		.secrel32	.LASF2
 1560 04bc 01       		.byte	0x1
 1561 04bd 1C       		.byte	0x1c
 1562 04be 91000000 		.long	0x91
 1563 04c2 1A       		.uleb128 0x1a
 1564 04c3 00000000 		.secrel32	.LASF4
 1565 04c7 01       		.byte	0x1
 1566 04c8 1C       		.byte	0x1c
 1567 04c9 89040000 		.long	0x489
 1568 04cd 1D       		.uleb128 0x1d
 1569 04ce 1E       		.uleb128 0x1e
 1570 04cf 64617461 		.ascii "data\0"
 1570      00
 1571 04d4 01       		.byte	0x1
 1572 04d5 1E       		.byte	0x1e
 1573 04d6 89040000 		.long	0x489
 1574 04da 1F       		.uleb128 0x1f
 1575 04db 1C000000 		.secrel32	.LASF3
 1576 04df 01       		.byte	0x1
 1577 04e0 20       		.byte	0x20
 1578 04e1 91000000 		.long	0x91
 1579 04e5 1E       		.uleb128 0x1e
 1580 04e6 65787472 		.ascii "extra_data\0"
 1580      615F6461 
 1580      746100
 1581 04f1 01       		.byte	0x1
 1582 04f2 21       		.byte	0x21
 1583 04f3 0C050000 		.long	0x50c
 1584 04f7 1E       		.uleb128 0x1e
 1585 04f8 65787472 		.ascii "extra_bytes\0"
 1585      615F6279 
 1585      74657300 
 1586 0504 01       		.byte	0x1
 1587 0505 22       		.byte	0x22
 1588 0506 91000000 		.long	0x91
 1589 050a 00       		.byte	0
 1590 050b 00       		.byte	0
 1591 050c 20       		.uleb128 0x20
 1592 050d FE000000 		.long	0xfe
 1593 0511 1C050000 		.long	0x51c
 1594 0515 21       		.uleb128 0x21
 1595 0516 0E010000 		.long	0x10e
 1596 051a 01       		.byte	0x1
 1597 051b 00       		.byte	0
 1598 051c 19       		.uleb128 0x19
 1599 051d 66617273 		.ascii "farsh_keyed\0"
 1599      685F6B65 
 1599      79656400 
 1600 0529 01       		.byte	0x1
 1601 052a 28       		.byte	0x28
 1602 052b FE000000 		.long	0xfe
 1603 052f 01       		.byte	0x1
 1604 0530 9E050000 		.long	0x59e
 1605 0534 1A       		.uleb128 0x1a
 1606 0535 0A000000 		.secrel32	.LASF1
 1607 0539 01       		.byte	0x1
 1608 053a 28       		.byte	0x28
 1609 053b A6010000 		.long	0x1a6
 1610 053f 1A       		.uleb128 0x1a
 1611 0540 25000000 		.secrel32	.LASF2
 1612 0544 01       		.byte	0x1
 1613 0545 28       		.byte	0x28
 1614 0546 91000000 		.long	0x91
 1615 054a 1A       		.uleb128 0x1a
 1616 054b 00000000 		.secrel32	.LASF4
 1617 054f 01       		.byte	0x1
 1618 0550 28       		.byte	0x28
 1619 0551 89040000 		.long	0x489
 1620 0555 1D       		.uleb128 0x1d
 1621 0556 1E       		.uleb128 0x1e
 1622 0557 73756D00 		.ascii "sum\0"
 1623 055b 01       		.byte	0x1
 1624 055c 2A       		.byte	0x2a
 1625 055d 9F000000 		.long	0x9f
 1626 0561 1E       		.uleb128 0x1e
 1627 0562 6900     		.ascii "i\0"
 1628 0564 01       		.byte	0x1
 1629 0565 2A       		.byte	0x2a
 1630 0566 E0000000 		.long	0xe0
 1631 056a 1E       		.uleb128 0x1e
 1632 056b 64617461 		.ascii "data\0"
 1632      00
 1633 0570 01       		.byte	0x1
 1634 0571 2B       		.byte	0x2b
 1635 0572 9E050000 		.long	0x59e
 1636 0576 1E       		.uleb128 0x1e
 1637 0577 656E6400 		.ascii "end\0"
 1638 057b 01       		.byte	0x1
 1639 057c 2B       		.byte	0x2b
 1640 057d 9E050000 		.long	0x59e
 1641 0581 1D       		.uleb128 0x1d
 1642 0582 1E       		.uleb128 0x1e
 1643 0583 6D696E62 		.ascii "minbytes\0"
 1643      79746573 
 1643      00
 1644 058c 01       		.byte	0x1
 1645 058d 2E       		.byte	0x2e
 1646 058e 91000000 		.long	0x91
 1647 0592 1E       		.uleb128 0x1e
 1648 0593 6800     		.ascii "h\0"
 1649 0595 01       		.byte	0x1
 1650 0596 2F       		.byte	0x2f
 1651 0597 FE000000 		.long	0xfe
 1652 059b 00       		.byte	0
 1653 059c 00       		.byte	0
 1654 059d 00       		.byte	0
 1655 059e 06       		.uleb128 0x6
 1656 059f 08       		.byte	0x8
 1657 05a0 A4050000 		.long	0x5a4
 1658 05a4 18       		.uleb128 0x18
 1659 05a5 89000000 		.long	0x89
 1660 05a9 22       		.uleb128 0x22
 1661 05aa 1C050000 		.long	0x51c
 1662 05ae 5F5A3131 		.ascii "_Z11farsh_keyedPKvyPKj\0"
 1662      66617273 
 1662      685F6B65 
 1662      79656450 
 1662      4B767950 
 1663 05c5 00000000 		.quad	.LFB3006
 1663      00000000 
 1664 05cd 0A020000 		.quad	.LFE3006-.LFB3006
 1664      00000000 
 1665 05d5 01       		.uleb128 0x1
 1666 05d6 9C       		.byte	0x9c
 1667 05d7 4D070000 		.long	0x74d
 1668 05db 23       		.uleb128 0x23
 1669 05dc 34050000 		.long	0x534
 1670 05e0 00000000 		.secrel32	.LLST0
 1671 05e4 23       		.uleb128 0x23
 1672 05e5 3F050000 		.long	0x53f
 1673 05e9 4C000000 		.secrel32	.LLST1
 1674 05ed 23       		.uleb128 0x23
 1675 05ee 4A050000 		.long	0x54a
 1676 05f2 98000000 		.secrel32	.LLST2
 1677 05f6 24       		.uleb128 0x24
 1678 05f7 00000000 		.secrel32	.Ldebug_ranges0+0
 1679 05fb 25       		.uleb128 0x25
 1680 05fc 56050000 		.long	0x556
 1681 0600 F7000000 		.secrel32	.LLST3
 1682 0604 25       		.uleb128 0x25
 1683 0605 61050000 		.long	0x561
 1684 0609 55010000 		.secrel32	.LLST4
 1685 060d 25       		.uleb128 0x25
 1686 060e 6A050000 		.long	0x56a
 1687 0612 DB010000 		.secrel32	.LLST5
 1688 0616 25       		.uleb128 0x25
 1689 0617 76050000 		.long	0x576
 1690 061b 37020000 		.secrel32	.LLST6
 1691 061f 24       		.uleb128 0x24
 1692 0620 40000000 		.secrel32	.Ldebug_ranges0+0x40
 1693 0624 25       		.uleb128 0x25
 1694 0625 82050000 		.long	0x582
 1695 0629 97020000 		.secrel32	.LLST7
 1696 062d 26       		.uleb128 0x26
 1697 062e 92050000 		.long	0x592
 1698 0632 27       		.uleb128 0x27
 1699 0633 94040000 		.long	0x494
 1700 0637 49000000 		.quad	.LBB43
 1700      00000000 
 1701 063f 70000000 		.secrel32	.Ldebug_ranges0+0x70
 1702 0643 01       		.byte	0x1
 1703 0644 2F       		.byte	0x2f
 1704 0645 23       		.uleb128 0x23
 1705 0646 C2040000 		.long	0x4c2
 1706 064a CD020000 		.secrel32	.LLST8
 1707 064e 23       		.uleb128 0x23
 1708 064f B7040000 		.long	0x4b7
 1709 0653 97020000 		.secrel32	.LLST7
 1710 0657 23       		.uleb128 0x23
 1711 0658 AC040000 		.long	0x4ac
 1712 065c 03030000 		.secrel32	.LLST10
 1713 0660 24       		.uleb128 0x24
 1714 0661 70000000 		.secrel32	.Ldebug_ranges0+0x70
 1715 0665 25       		.uleb128 0x25
 1716 0666 CE040000 		.long	0x4ce
 1717 066a 03030000 		.secrel32	.LLST10
 1718 066e 25       		.uleb128 0x25
 1719 066f DA040000 		.long	0x4da
 1720 0673 39030000 		.secrel32	.LLST12
 1721 0677 28       		.uleb128 0x28
 1722 0678 E5040000 		.long	0x4e5
 1723 067c 03       		.uleb128 0x3
 1724 067d 91       		.byte	0x91
 1725 067e 907F     		.sleb128 -112
 1726 0680 25       		.uleb128 0x25
 1727 0681 F7040000 		.long	0x4f7
 1728 0685 7D030000 		.secrel32	.LLST13
 1729 0689 29       		.uleb128 0x29
 1730 068a 2B040000 		.long	0x42b
 1731 068e A6000000 		.quad	.LBB45
 1731      00000000 
 1732 0696 A0000000 		.secrel32	.Ldebug_ranges0+0xa0
 1733 069a 01       		.byte	0x1
 1734 069b 24       		.byte	0x24
 1735 069c DD060000 		.long	0x6dd
 1736 06a0 23       		.uleb128 0x23
 1737 06a1 67040000 		.long	0x467
 1738 06a5 D9030000 		.secrel32	.LLST14
 1739 06a9 23       		.uleb128 0x23
 1740 06aa 5A040000 		.long	0x45a
 1741 06ae 0F040000 		.secrel32	.LLST15
 1742 06b2 23       		.uleb128 0x23
 1743 06b3 4F040000 		.long	0x44f
 1744 06b7 5F040000 		.secrel32	.LLST16
 1745 06bb 23       		.uleb128 0x23
 1746 06bc 43040000 		.long	0x443
 1747 06c0 A3040000 		.secrel32	.LLST17
 1748 06c4 24       		.uleb128 0x24
 1749 06c5 A0000000 		.secrel32	.Ldebug_ranges0+0xa0
 1750 06c9 25       		.uleb128 0x25
 1751 06ca 73040000 		.long	0x473
 1752 06ce D9040000 		.secrel32	.LLST18
 1753 06d2 25       		.uleb128 0x25
 1754 06d3 7E040000 		.long	0x47e
 1755 06d7 96050000 		.secrel32	.LLST19
 1756 06db 00       		.byte	0
 1757 06dc 00       		.byte	0
 1758 06dd 2A       		.uleb128 0x2a
 1759 06de 2B040000 		.long	0x42b
 1760 06e2 56010000 		.quad	.LBB48
 1760      00000000 
 1761 06ea 8A000000 		.quad	.LBE48-.LBB48
 1761      00000000 
 1762 06f2 01       		.byte	0x1
 1763 06f3 1F       		.byte	0x1f
 1764 06f4 29070000 		.long	0x729
 1765 06f8 2B       		.uleb128 0x2b
 1766 06f9 4F040000 		.long	0x44f
 1767 06fd 2B       		.uleb128 0x2b
 1768 06fe 5A040000 		.long	0x45a
 1769 0702 2B       		.uleb128 0x2b
 1770 0703 67040000 		.long	0x467
 1771 0707 2B       		.uleb128 0x2b
 1772 0708 43040000 		.long	0x443
 1773 070c 2C       		.uleb128 0x2c
 1774 070d 56010000 		.quad	.LBB49
 1774      00000000 
 1775 0715 8A000000 		.quad	.LBE49-.LBB49
 1775      00000000 
 1776 071d 26       		.uleb128 0x26
 1777 071e 73040000 		.long	0x473
 1778 0722 26       		.uleb128 0x26
 1779 0723 7E040000 		.long	0x47e
 1780 0727 00       		.byte	0
 1781 0728 00       		.byte	0
 1782 0729 2D       		.uleb128 0x2d
 1783 072a 9A000000 		.quad	.LVL7
 1783      00000000 
 1784 0732 530D0000 		.long	0xd53
 1785 0736 2E       		.uleb128 0x2e
 1786 0737 01       		.uleb128 0x1
 1787 0738 51       		.byte	0x51
 1788 0739 07       		.uleb128 0x7
 1789 073a 73       		.byte	0x73
 1790 073b 00       		.sleb128 0
 1791 073c 91       		.byte	0x91
 1792 073d 887F     		.sleb128 -120
 1793 073f 06       		.byte	0x6
 1794 0740 22       		.byte	0x22
 1795 0741 2E       		.uleb128 0x2e
 1796 0742 01       		.uleb128 0x1
 1797 0743 58       		.byte	0x58
 1798 0744 02       		.uleb128 0x2
 1799 0745 7D       		.byte	0x7d
 1800 0746 00       		.sleb128 0
 1801 0747 00       		.byte	0
 1802 0748 00       		.byte	0
 1803 0749 00       		.byte	0
 1804 074a 00       		.byte	0
 1805 074b 00       		.byte	0
 1806 074c 00       		.byte	0
 1807 074d 2F       		.uleb128 0x2f
 1808 074e 66617273 		.ascii "farsh_keyed_n\0"
 1808      685F6B65 
 1808      7965645F 
 1808      6E00
 1809 075c 01       		.byte	0x1
 1810 075d 39       		.byte	0x39
 1811 075e 01       		.byte	0x1
 1812 075f A5070000 		.long	0x7a5
 1813 0763 1A       		.uleb128 0x1a
 1814 0764 0A000000 		.secrel32	.LASF1
 1815 0768 01       		.byte	0x1
 1816 0769 39       		.byte	0x39
 1817 076a A6010000 		.long	0x1a6
 1818 076e 1A       		.uleb128 0x1a
 1819 076f 25000000 		.secrel32	.LASF2
 1820 0773 01       		.byte	0x1
 1821 0774 39       		.byte	0x39
 1822 0775 91000000 		.long	0x91
 1823 0779 1A       		.uleb128 0x1a
 1824 077a 00000000 		.secrel32	.LASF4
 1825 077e 01       		.byte	0x1
 1826 077f 39       		.byte	0x39
 1827 0780 89040000 		.long	0x489
 1828 0784 1C       		.uleb128 0x1c
 1829 0785 6E00     		.ascii "n\0"
 1830 0787 01       		.byte	0x1
 1831 0788 39       		.byte	0x39
 1832 0789 E0000000 		.long	0xe0
 1833 078d 1C       		.uleb128 0x1c
 1834 078e 68617368 		.ascii "hash\0"
 1834      00
 1835 0793 01       		.byte	0x1
 1836 0794 39       		.byte	0x39
 1837 0795 AD010000 		.long	0x1ad
 1838 0799 1D       		.uleb128 0x1d
 1839 079a 1E       		.uleb128 0x1e
 1840 079b 6900     		.ascii "i\0"
 1841 079d 01       		.byte	0x1
 1842 079e 3B       		.byte	0x3b
 1843 079f E0000000 		.long	0xe0
 1844 07a3 00       		.byte	0
 1845 07a4 00       		.byte	0
 1846 07a5 22       		.uleb128 0x22
 1847 07a6 4D070000 		.long	0x74d
 1848 07aa 5F5A3133 		.ascii "_Z13farsh_keyed_nPKvyPKjiPj\0"
 1848      66617273 
 1848      685F6B65 
 1848      7965645F 
 1848      6E504B76 
 1849 07c6 10020000 		.quad	.LFB3007
 1849      00000000 
 1850 07ce 5A000000 		.quad	.LFE3007-.LFB3007
 1850      00000000 
 1851 07d6 01       		.uleb128 0x1
 1852 07d7 9C       		.byte	0x9c
 1853 07d8 47080000 		.long	0x847
 1854 07dc 23       		.uleb128 0x23
 1855 07dd 63070000 		.long	0x763
 1856 07e1 E1050000 		.secrel32	.LLST20
 1857 07e5 23       		.uleb128 0x23
 1858 07e6 6E070000 		.long	0x76e
 1859 07ea 2D060000 		.secrel32	.LLST21
 1860 07ee 23       		.uleb128 0x23
 1861 07ef 79070000 		.long	0x779
 1862 07f3 79060000 		.secrel32	.LLST22
 1863 07f7 23       		.uleb128 0x23
 1864 07f8 84070000 		.long	0x784
 1865 07fc C5060000 		.secrel32	.LLST23
 1866 0800 30       		.uleb128 0x30
 1867 0801 8D070000 		.long	0x78d
 1868 0805 02       		.uleb128 0x2
 1869 0806 91       		.byte	0x91
 1870 0807 20       		.sleb128 32
 1871 0808 2C       		.uleb128 0x2c
 1872 0809 24020000 		.quad	.LBB57
 1872      00000000 
 1873 0811 39000000 		.quad	.LBE57-.LBB57
 1873      00000000 
 1874 0819 25       		.uleb128 0x25
 1875 081a 9A070000 		.long	0x79a
 1876 081e FE060000 		.secrel32	.LLST24
 1877 0822 2D       		.uleb128 0x2d
 1878 0823 50020000 		.quad	.LVL36
 1878      00000000 
 1879 082b 1C050000 		.long	0x51c
 1880 082f 2E       		.uleb128 0x2e
 1881 0830 01       		.uleb128 0x1
 1882 0831 52       		.byte	0x52
 1883 0832 02       		.uleb128 0x2
 1884 0833 74       		.byte	0x74
 1885 0834 00       		.sleb128 0
 1886 0835 2E       		.uleb128 0x2e
 1887 0836 01       		.uleb128 0x1
 1888 0837 51       		.byte	0x51
 1889 0838 02       		.uleb128 0x2
 1890 0839 75       		.byte	0x75
 1891 083a 00       		.sleb128 0
 1892 083b 2E       		.uleb128 0x2e
 1893 083c 01       		.uleb128 0x1
 1894 083d 58       		.byte	0x58
 1895 083e 05       		.uleb128 0x5
 1896 083f 76       		.byte	0x76
 1897 0840 00       		.sleb128 0
 1898 0841 73       		.byte	0x73
 1899 0842 00       		.sleb128 0
 1900 0843 22       		.byte	0x22
 1901 0844 00       		.byte	0
 1902 0845 00       		.byte	0
 1903 0846 00       		.byte	0
 1904 0847 31       		.uleb128 0x31
 1905 0848 66617273 		.ascii "farsh_n\0"
 1905      685F6E00 
 1906 0850 01       		.byte	0x1
 1907 0851 41       		.byte	0x41
 1908 0852 5F5A3766 		.ascii "_Z7farsh_nPKvyiPj\0"
 1908      61727368 
 1908      5F6E504B 
 1908      76796950 
 1908      6A00
 1909 0864 70020000 		.quad	.LFB3008
 1909      00000000 
 1910 086c 59000000 		.quad	.LFE3008-.LFB3008
 1910      00000000 
 1911 0874 01       		.uleb128 0x1
 1912 0875 9C       		.byte	0x9c
 1913 0876 40090000 		.long	0x940
 1914 087a 32       		.uleb128 0x32
 1915 087b 0A000000 		.secrel32	.LASF1
 1916 087f 01       		.byte	0x1
 1917 0880 41       		.byte	0x41
 1918 0881 A6010000 		.long	0x1a6
 1919 0885 22070000 		.secrel32	.LLST25
 1920 0889 32       		.uleb128 0x32
 1921 088a 25000000 		.secrel32	.LASF2
 1922 088e 01       		.byte	0x1
 1923 088f 41       		.byte	0x41
 1924 0890 91000000 		.long	0x91
 1925 0894 6E070000 		.secrel32	.LLST26
 1926 0898 33       		.uleb128 0x33
 1927 0899 6E00     		.ascii "n\0"
 1928 089b 01       		.byte	0x1
 1929 089c 41       		.byte	0x41
 1930 089d E0000000 		.long	0xe0
 1931 08a1 BA070000 		.secrel32	.LLST27
 1932 08a5 33       		.uleb128 0x33
 1933 08a6 68617368 		.ascii "hash\0"
 1933      00
 1934 08ab 01       		.byte	0x1
 1935 08ac 41       		.byte	0x41
 1936 08ad AD010000 		.long	0x1ad
 1937 08b1 F3070000 		.secrel32	.LLST28
 1938 08b5 34       		.uleb128 0x34
 1939 08b6 4D070000 		.long	0x74d
 1940 08ba 7C020000 		.quad	.LBB61
 1940      00000000 
 1941 08c2 40000000 		.quad	.LBE61-.LBB61
 1941      00000000 
 1942 08ca 01       		.byte	0x1
 1943 08cb 43       		.byte	0x43
 1944 08cc 23       		.uleb128 0x23
 1945 08cd 8D070000 		.long	0x78d
 1946 08d1 3F080000 		.secrel32	.LLST29
 1947 08d5 23       		.uleb128 0x23
 1948 08d6 84070000 		.long	0x784
 1949 08da 8B080000 		.secrel32	.LLST30
 1950 08de 30       		.uleb128 0x30
 1951 08df 79070000 		.long	0x779
 1952 08e3 0A       		.uleb128 0xa
 1953 08e4 03       		.byte	0x3
 1954 08e5 80000000 		.quad	_ZL9farsh_key
 1954      00000000 
 1955 08ed 9F       		.byte	0x9f
 1956 08ee 23       		.uleb128 0x23
 1957 08ef 6E070000 		.long	0x76e
 1958 08f3 C4080000 		.secrel32	.LLST31
 1959 08f7 23       		.uleb128 0x23
 1960 08f8 63070000 		.long	0x763
 1961 08fc 10090000 		.secrel32	.LLST32
 1962 0900 2C       		.uleb128 0x2c
 1963 0901 7C020000 		.quad	.LBB62
 1963      00000000 
 1964 0909 40000000 		.quad	.LBE62-.LBB62
 1964      00000000 
 1965 0911 25       		.uleb128 0x25
 1966 0912 9A070000 		.long	0x79a
 1967 0916 5C090000 		.secrel32	.LLST33
 1968 091a 2D       		.uleb128 0x2d
 1969 091b AF020000 		.quad	.LVL42
 1969      00000000 
 1970 0923 1C050000 		.long	0x51c
 1971 0927 2E       		.uleb128 0x2e
 1972 0928 01       		.uleb128 0x1
 1973 0929 52       		.byte	0x52
 1974 092a 02       		.uleb128 0x2
 1975 092b 74       		.byte	0x74
 1976 092c 00       		.sleb128 0
 1977 092d 2E       		.uleb128 0x2e
 1978 092e 01       		.uleb128 0x1
 1979 092f 51       		.byte	0x51
 1980 0930 02       		.uleb128 0x2
 1981 0931 75       		.byte	0x75
 1982 0932 00       		.sleb128 0
 1983 0933 2E       		.uleb128 0x2e
 1984 0934 01       		.uleb128 0x1
 1985 0935 58       		.byte	0x58
 1986 0936 05       		.uleb128 0x5
 1987 0937 7C       		.byte	0x7c
 1988 0938 00       		.sleb128 0
 1989 0939 73       		.byte	0x73
 1990 093a 00       		.sleb128 0
 1991 093b 22       		.byte	0x22
 1992 093c 00       		.byte	0
 1993 093d 00       		.byte	0
 1994 093e 00       		.byte	0
 1995 093f 00       		.byte	0
 1996 0940 22       		.uleb128 0x22
 1997 0941 E9030000 		.long	0x3e9
 1998 0945 5F5A3566 		.ascii "_Z5farshPKvy\0"
 1998      61727368 
 1998      504B7679 
 1998      00
 1999 0952 D0020000 		.quad	.LFB3009
 1999      00000000 
 2000 095a 0C000000 		.quad	.LFE3009-.LFB3009
 2000      00000000 
 2001 0962 01       		.uleb128 0x1
 2002 0963 9C       		.byte	0x9c
 2003 0964 A4090000 		.long	0x9a4
 2004 0968 23       		.uleb128 0x23
 2005 0969 FB030000 		.long	0x3fb
 2006 096d 80090000 		.secrel32	.LLST34
 2007 0971 23       		.uleb128 0x23
 2008 0972 06040000 		.long	0x406
 2009 0976 B9090000 		.secrel32	.LLST35
 2010 097a 35       		.uleb128 0x35
 2011 097b DC020000 		.quad	.LVL45
 2011      00000000 
 2012 0983 1C050000 		.long	0x51c
 2013 0987 2E       		.uleb128 0x2e
 2014 0988 01       		.uleb128 0x1
 2015 0989 52       		.byte	0x52
 2016 098a 03       		.uleb128 0x3
 2017 098b F3       		.byte	0xf3
 2018 098c 01       		.uleb128 0x1
 2019 098d 52       		.byte	0x52
 2020 098e 2E       		.uleb128 0x2e
 2021 098f 01       		.uleb128 0x1
 2022 0990 51       		.byte	0x51
 2023 0991 03       		.uleb128 0x3
 2024 0992 F3       		.byte	0xf3
 2025 0993 01       		.uleb128 0x1
 2026 0994 51       		.byte	0x51
 2027 0995 2E       		.uleb128 0x2e
 2028 0996 01       		.uleb128 0x1
 2029 0997 58       		.byte	0x58
 2030 0998 09       		.uleb128 0x9
 2031 0999 03       		.byte	0x3
 2032 099a 80000000 		.quad	_ZL9farsh_key
 2032      00000000 
 2033 09a2 00       		.byte	0
 2034 09a3 00       		.byte	0
 2035 09a4 16       		.uleb128 0x16
 2036 09a5 44030000 		.long	0x344
 2037 09a9 02       		.byte	0x2
 2038 09aa B2090000 		.long	0x9b2
 2039 09ae BD090000 		.long	0x9bd
 2040 09b2 17       		.uleb128 0x17
 2041 09b3 74686973 		.ascii "this\0"
 2041      00
 2042 09b8 B2030000 		.long	0x3b2
 2043 09bc 00       		.byte	0
 2044 09bd 36       		.uleb128 0x36
 2045 09be 6D61696E 		.ascii "main\0"
 2045      00
 2046 09c3 02       		.byte	0x2
 2047 09c4 06       		.byte	0x6
 2048 09c5 E0000000 		.long	0xe0
 2049 09c9 00000000 		.quad	.LFB3010
 2049      00000000 
 2050 09d1 FF010000 		.quad	.LFE3010-.LFB3010
 2050      00000000 
 2051 09d9 01       		.uleb128 0x1
 2052 09da 9C       		.byte	0x9c
 2053 09db 0D0D0000 		.long	0xd0d
 2054 09df 24       		.uleb128 0x24
 2055 09e0 D0000000 		.secrel32	.Ldebug_ranges0+0xd0
 2056 09e4 37       		.uleb128 0x37
 2057 09e5 44415441 		.ascii "DATASIZE\0"
 2057      53495A45 
 2057      00
 2058 09ee 02       		.byte	0x2
 2059 09ef 08       		.byte	0x8
 2060 09f0 0D0D0000 		.long	0xd0d
 2061 09f4 0070     		.word	0x7000
 2062 09f6 38       		.uleb128 0x38
 2063 09f7 44415441 		.ascii "DATASET\0"
 2063      53455400 
 2064 09ff 02       		.byte	0x2
 2065 0a00 09       		.byte	0x9
 2066 0a01 120D0000 		.long	0xd12
 2067 0a05 00000080 		.quad	0x280000000
 2067      02000000 
 2068 0a0d 39       		.uleb128 0x39
 2069 0a0e 7400     		.ascii "t\0"
 2070 0a10 02       		.byte	0x2
 2071 0a11 0B       		.byte	0xb
 2072 0a12 70020000 		.long	0x270
 2073 0a16 03       		.uleb128 0x3
 2074 0a17 91       		.byte	0x91
 2075 0a18 A07F     		.sleb128 -96
 2076 0a1a 3A       		.uleb128 0x3a
 2077 0a1b 73706565 		.ascii "speed\0"
 2077      6400
 2078 0a21 02       		.byte	0x2
 2079 0a22 14       		.byte	0x14
 2080 0a23 7F000000 		.long	0x7f
 2081 0a27 F2090000 		.secrel32	.LLST36
 2082 0a2b 29       		.uleb128 0x29
 2083 0a2c 99030000 		.long	0x399
 2084 0a30 16000000 		.quad	.LBB94
 2084      00000000 
 2085 0a38 00010000 		.secrel32	.Ldebug_ranges0+0x100
 2086 0a3c 02       		.byte	0x2
 2087 0a3d 0B       		.byte	0xb
 2088 0a3e 5F0A0000 		.long	0xa5f
 2089 0a42 23       		.uleb128 0x23
 2090 0a43 A7030000 		.long	0x3a7
 2091 0a47 430A0000 		.secrel32	.LLST37
 2092 0a4b 3B       		.uleb128 0x3b
 2093 0a4c 6B000000 		.quad	.LVL52
 2093      00000000 
 2094 0a54 02       		.uleb128 0x2
 2095 0a55 74       		.byte	0x74
 2096 0a56 00       		.sleb128 0
 2097 0a57 2E       		.uleb128 0x2e
 2098 0a58 01       		.uleb128 0x1
 2099 0a59 52       		.byte	0x52
 2100 0a5a 02       		.uleb128 0x2
 2101 0a5b 73       		.byte	0x73
 2102 0a5c 00       		.sleb128 0
 2103 0a5d 00       		.byte	0
 2104 0a5e 00       		.byte	0
 2105 0a5f 29       		.uleb128 0x29
 2106 0a60 A4090000 		.long	0x9a4
 2107 0a64 25000000 		.quad	.LBB99
 2107      00000000 
 2108 0a6c 50010000 		.secrel32	.Ldebug_ranges0+0x150
 2109 0a70 02       		.byte	0x2
 2110 0a71 0B       		.byte	0xb
 2111 0a72 1D0B0000 		.long	0xb1d
 2112 0a76 23       		.uleb128 0x23
 2113 0a77 B2090000 		.long	0x9b2
 2114 0a7b 7C0A0000 		.secrel32	.LLST38
 2115 0a7f 29       		.uleb128 0x29
 2116 0a80 D0030000 		.long	0x3d0
 2117 0a84 45000000 		.quad	.LBB101
 2117      00000000 
 2118 0a8c 90010000 		.secrel32	.Ldebug_ranges0+0x190
 2119 0a90 03       		.byte	0x3
 2120 0a91 2E       		.byte	0x2e
 2121 0a92 0C0B0000 		.long	0xb0c
 2122 0a96 23       		.uleb128 0x23
 2123 0a97 DE030000 		.long	0x3de
 2124 0a9b B50A0000 		.secrel32	.LLST39
 2125 0a9f 2A       		.uleb128 0x2a
 2126 0aa0 99030000 		.long	0x399
 2127 0aa4 45000000 		.quad	.LBB103
 2127      00000000 
 2128 0aac 0C000000 		.quad	.LBE103-.LBB103
 2128      00000000 
 2129 0ab4 03       		.byte	0x3
 2130 0ab5 36       		.byte	0x36
 2131 0ab6 D70A0000 		.long	0xad7
 2132 0aba 23       		.uleb128 0x23
 2133 0abb A7030000 		.long	0x3a7
 2134 0abf B50A0000 		.secrel32	.LLST39
 2135 0ac3 3B       		.uleb128 0x3b
 2136 0ac4 51000000 		.quad	.LVL49
 2136      00000000 
 2137 0acc 02       		.uleb128 0x2
 2138 0acd 74       		.byte	0x74
 2139 0ace 00       		.sleb128 0
 2140 0acf 2E       		.uleb128 0x2e
 2141 0ad0 01       		.uleb128 0x1
 2142 0ad1 52       		.byte	0x52
 2143 0ad2 02       		.uleb128 0x2
 2144 0ad3 73       		.byte	0x73
 2145 0ad4 00       		.sleb128 0
 2146 0ad5 00       		.byte	0
 2147 0ad6 00       		.byte	0
 2148 0ad7 34       		.uleb128 0x34
 2149 0ad8 B7030000 		.long	0x3b7
 2150 0adc 51000000 		.quad	.LBB105
 2150      00000000 
 2151 0ae4 06000000 		.quad	.LBE105-.LBB105
 2151      00000000 
 2152 0aec 03       		.byte	0x3
 2153 0aed 37       		.byte	0x37
 2154 0aee 23       		.uleb128 0x23
 2155 0aef C5030000 		.long	0x3c5
 2156 0af3 EE0A0000 		.secrel32	.LLST41
 2157 0af7 3B       		.uleb128 0x3b
 2158 0af8 57000000 		.quad	.LVL50
 2158      00000000 
 2159 0b00 02       		.uleb128 0x2
 2160 0b01 74       		.byte	0x74
 2161 0b02 00       		.sleb128 0
 2162 0b03 2E       		.uleb128 0x2e
 2163 0b04 01       		.uleb128 0x1
 2164 0b05 52       		.byte	0x52
 2165 0b06 02       		.uleb128 0x2
 2166 0b07 73       		.byte	0x73
 2167 0b08 08       		.sleb128 8
 2168 0b09 00       		.byte	0
 2169 0b0a 00       		.byte	0
 2170 0b0b 00       		.byte	0
 2171 0b0c 3C       		.uleb128 0x3c
 2172 0b0d 45000000 		.quad	.LVL48
 2172      00000000 
 2173 0b15 2E       		.uleb128 0x2e
 2174 0b16 01       		.uleb128 0x1
 2175 0b17 52       		.byte	0x52
 2176 0b18 02       		.uleb128 0x2
 2177 0b19 73       		.byte	0x73
 2178 0b1a 10       		.sleb128 16
 2179 0b1b 00       		.byte	0
 2180 0b1c 00       		.byte	0
 2181 0b1d 3D       		.uleb128 0x3d
 2182 0b1e C0010000 		.secrel32	.Ldebug_ranges0+0x1c0
 2183 0b22 760C0000 		.long	0xc76
 2184 0b26 3A       		.uleb128 0x3a
 2185 0b27 6900     		.ascii "i\0"
 2186 0b29 02       		.byte	0x2
 2187 0b2a 0D       		.byte	0xd
 2188 0b2b E0000000 		.long	0xe0
 2189 0b2f 270B0000 		.secrel32	.LLST42
 2190 0b33 24       		.uleb128 0x24
 2191 0b34 F0010000 		.secrel32	.Ldebug_ranges0+0x1f0
 2192 0b38 39       		.uleb128 0x39
 2193 0b39 64617461 		.ascii "data\0"
 2193      00
 2194 0b3e 02       		.byte	0x2
 2195 0b3f 0F       		.byte	0xf
 2196 0b40 170D0000 		.long	0xd17
 2197 0b44 09       		.uleb128 0x9
 2198 0b45 03       		.byte	0x3
 2199 0b46 00000000 		.quad	_ZZ4mainE4data
 2199      00000000 
 2200 0b4e 1E       		.uleb128 0x1e
 2201 0b4f 6800     		.ascii "h\0"
 2202 0b51 02       		.byte	0x2
 2203 0b52 10       		.byte	0x10
 2204 0b53 FE000000 		.long	0xfe
 2205 0b57 27       		.uleb128 0x27
 2206 0b58 E9030000 		.long	0x3e9
 2207 0b5c 79000000 		.quad	.LBB117
 2207      00000000 
 2208 0b64 20020000 		.secrel32	.Ldebug_ranges0+0x220
 2209 0b68 02       		.byte	0x2
 2210 0b69 10       		.byte	0x10
 2211 0b6a 3E       		.uleb128 0x3e
 2212 0b6b 06040000 		.long	0x406
 2213 0b6f 0070     		.word	0x7000
 2214 0b71 30       		.uleb128 0x30
 2215 0b72 FB030000 		.long	0x3fb
 2216 0b76 0A       		.uleb128 0xa
 2217 0b77 03       		.byte	0x3
 2218 0b78 00000000 		.quad	_ZZ4mainE4data
 2218      00000000 
 2219 0b80 9F       		.byte	0x9f
 2220 0b81 27       		.uleb128 0x27
 2221 0b82 1C050000 		.long	0x51c
 2222 0b86 79000000 		.quad	.LBB118
 2222      00000000 
 2223 0b8e 20020000 		.secrel32	.Ldebug_ranges0+0x220
 2224 0b92 01       		.byte	0x1
 2225 0b93 49       		.byte	0x49
 2226 0b94 30       		.uleb128 0x30
 2227 0b95 34050000 		.long	0x534
 2228 0b99 0A       		.uleb128 0xa
 2229 0b9a 03       		.byte	0x3
 2230 0b9b 00000000 		.quad	_ZZ4mainE4data
 2230      00000000 
 2231 0ba3 9F       		.byte	0x9f
 2232 0ba4 3E       		.uleb128 0x3e
 2233 0ba5 3F050000 		.long	0x53f
 2234 0ba9 0070     		.word	0x7000
 2235 0bab 30       		.uleb128 0x30
 2236 0bac 4A050000 		.long	0x54a
 2237 0bb0 0A       		.uleb128 0xa
 2238 0bb1 03       		.byte	0x3
 2239 0bb2 80000000 		.quad	_ZL9farsh_key
 2239      00000000 
 2240 0bba 9F       		.byte	0x9f
 2241 0bbb 24       		.uleb128 0x24
 2242 0bbc 20020000 		.secrel32	.Ldebug_ranges0+0x220
 2243 0bc0 25       		.uleb128 0x25
 2244 0bc1 56050000 		.long	0x556
 2245 0bc5 5E0B0000 		.secrel32	.LLST43
 2246 0bc9 25       		.uleb128 0x25
 2247 0bca 61050000 		.long	0x561
 2248 0bce 950B0000 		.secrel32	.LLST44
 2249 0bd2 25       		.uleb128 0x25
 2250 0bd3 6A050000 		.long	0x56a
 2251 0bd7 F40B0000 		.secrel32	.LLST45
 2252 0bdb 25       		.uleb128 0x25
 2253 0bdc 76050000 		.long	0x576
 2254 0be0 330C0000 		.secrel32	.LLST46
 2255 0be4 24       		.uleb128 0x24
 2256 0be5 50020000 		.secrel32	.Ldebug_ranges0+0x250
 2257 0be9 26       		.uleb128 0x26
 2258 0bea 82050000 		.long	0x582
 2259 0bee 26       		.uleb128 0x26
 2260 0bef 92050000 		.long	0x592
 2261 0bf3 27       		.uleb128 0x27
 2262 0bf4 94040000 		.long	0x494
 2263 0bf8 9E000000 		.quad	.LBB121
 2263      00000000 
 2264 0c00 80020000 		.secrel32	.Ldebug_ranges0+0x280
 2265 0c04 01       		.byte	0x1
 2266 0c05 2F       		.byte	0x2f
 2267 0c06 2B       		.uleb128 0x2b
 2268 0c07 B7040000 		.long	0x4b7
 2269 0c0b 2B       		.uleb128 0x2b
 2270 0c0c C2040000 		.long	0x4c2
 2271 0c10 2B       		.uleb128 0x2b
 2272 0c11 AC040000 		.long	0x4ac
 2273 0c15 24       		.uleb128 0x24
 2274 0c16 80020000 		.secrel32	.Ldebug_ranges0+0x280
 2275 0c1a 26       		.uleb128 0x26
 2276 0c1b CE040000 		.long	0x4ce
 2277 0c1f 26       		.uleb128 0x26
 2278 0c20 DA040000 		.long	0x4da
 2279 0c24 26       		.uleb128 0x26
 2280 0c25 E5040000 		.long	0x4e5
 2281 0c29 26       		.uleb128 0x26
 2282 0c2a F7040000 		.long	0x4f7
 2283 0c2e 27       		.uleb128 0x27
 2284 0c2f 2B040000 		.long	0x42b
 2285 0c33 9E000000 		.quad	.LBB123
 2285      00000000 
 2286 0c3b 80020000 		.secrel32	.Ldebug_ranges0+0x280
 2287 0c3f 01       		.byte	0x1
 2288 0c40 1F       		.byte	0x1f
 2289 0c41 2B       		.uleb128 0x2b
 2290 0c42 4F040000 		.long	0x44f
 2291 0c46 2B       		.uleb128 0x2b
 2292 0c47 5A040000 		.long	0x45a
 2293 0c4b 2B       		.uleb128 0x2b
 2294 0c4c 67040000 		.long	0x467
 2295 0c50 2B       		.uleb128 0x2b
 2296 0c51 43040000 		.long	0x443
 2297 0c55 24       		.uleb128 0x24
 2298 0c56 80020000 		.secrel32	.Ldebug_ranges0+0x280
 2299 0c5a 25       		.uleb128 0x25
 2300 0c5b 73040000 		.long	0x473
 2301 0c5f 720C0000 		.secrel32	.LLST47
 2302 0c63 25       		.uleb128 0x25
 2303 0c64 7E040000 		.long	0x47e
 2304 0c68 720C0000 		.secrel32	.LLST47
 2305 0c6c 00       		.byte	0
 2306 0c6d 00       		.byte	0
 2307 0c6e 00       		.byte	0
 2308 0c6f 00       		.byte	0
 2309 0c70 00       		.byte	0
 2310 0c71 00       		.byte	0
 2311 0c72 00       		.byte	0
 2312 0c73 00       		.byte	0
 2313 0c74 00       		.byte	0
 2314 0c75 00       		.byte	0
 2315 0c76 2A       		.uleb128 0x2a
 2316 0c77 B7030000 		.long	0x3b7
 2317 0c7b 64010000 		.quad	.LBB136
 2317      00000000 
 2318 0c83 06000000 		.quad	.LBE136-.LBB136
 2318      00000000 
 2319 0c8b 02       		.byte	0x2
 2320 0c8c 14       		.byte	0x14
 2321 0c8d AB0C0000 		.long	0xcab
 2322 0c91 23       		.uleb128 0x23
 2323 0c92 C5030000 		.long	0x3c5
 2324 0c96 960C0000 		.secrel32	.LLST49
 2325 0c9a 3C       		.uleb128 0x3c
 2326 0c9b 6A010000 		.quad	.LVL66
 2326      00000000 
 2327 0ca3 2E       		.uleb128 0x2e
 2328 0ca4 01       		.uleb128 0x1
 2329 0ca5 52       		.byte	0x52
 2330 0ca6 02       		.uleb128 0x2
 2331 0ca7 73       		.byte	0x73
 2332 0ca8 08       		.sleb128 8
 2333 0ca9 00       		.byte	0
 2334 0caa 00       		.byte	0
 2335 0cab 29       		.uleb128 0x29
 2336 0cac 12040000 		.long	0x412
 2337 0cb0 6A010000 		.quad	.LBB138
 2337      00000000 
 2338 0cb8 B0020000 		.secrel32	.Ldebug_ranges0+0x2b0
 2339 0cbc 02       		.byte	0x2
 2340 0cbd 14       		.byte	0x14
 2341 0cbe CC0C0000 		.long	0xccc
 2342 0cc2 23       		.uleb128 0x23
 2343 0cc3 20040000 		.long	0x420
 2344 0cc7 CF0C0000 		.secrel32	.LLST50
 2345 0ccb 00       		.byte	0
 2346 0ccc 3F       		.uleb128 0x3f
 2347 0ccd 3B000000 		.quad	.LVL47
 2347      00000000 
 2348 0cd5 730D0000 		.long	0xd73
 2349 0cd9 F00C0000 		.long	0xcf0
 2350 0cdd 2E       		.uleb128 0x2e
 2351 0cde 01       		.uleb128 0x1
 2352 0cdf 52       		.byte	0x52
 2353 0ce0 09       		.uleb128 0x9
 2354 0ce1 03       		.byte	0x3
 2355 0ce2 00000000 		.quad	.LC0
 2355      00000000 
 2356 0cea 2E       		.uleb128 0x2e
 2357 0ceb 01       		.uleb128 0x1
 2358 0cec 51       		.byte	0x51
 2359 0ced 01       		.uleb128 0x1
 2360 0cee 3A       		.byte	0x3a
 2361 0cef 00       		.byte	0
 2362 0cf0 2D       		.uleb128 0x2d
 2363 0cf1 ED010000 		.quad	.LVL69
 2363      00000000 
 2364 0cf9 730D0000 		.long	0xd73
 2365 0cfd 2E       		.uleb128 0x2e
 2366 0cfe 01       		.uleb128 0x1
 2367 0cff 52       		.byte	0x52
 2368 0d00 09       		.uleb128 0x9
 2369 0d01 03       		.byte	0x3
 2370 0d02 10000000 		.quad	.LC5
 2370      00000000 
 2371 0d0a 00       		.byte	0
 2372 0d0b 00       		.byte	0
 2373 0d0c 00       		.byte	0
 2374 0d0d 18       		.uleb128 0x18
 2375 0d0e 91000000 		.long	0x91
 2376 0d12 18       		.uleb128 0x18
 2377 0d13 7E010000 		.long	0x17e
 2378 0d17 20       		.uleb128 0x20
 2379 0d18 89000000 		.long	0x89
 2380 0d1c 280D0000 		.long	0xd28
 2381 0d20 40       		.uleb128 0x40
 2382 0d21 0E010000 		.long	0x10e
 2383 0d25 FF6F     		.word	0x6fff
 2384 0d27 00       		.byte	0
 2385 0d28 20       		.uleb128 0x20
 2386 0d29 FE000000 		.long	0xfe
 2387 0d2d 390D0000 		.long	0xd39
 2388 0d31 40       		.uleb128 0x40
 2389 0d32 0E010000 		.long	0x10e
 2390 0d36 1E01     		.word	0x11e
 2391 0d38 00       		.byte	0
 2392 0d39 41       		.uleb128 0x41
 2393 0d3a 00000000 		.secrel32	.LASF4
 2394 0d3e 01       		.byte	0x1
 2395 0d3f 09       		.byte	0x9
 2396 0d40 4E0D0000 		.long	0xd4e
 2397 0d44 09       		.uleb128 0x9
 2398 0d45 03       		.byte	0x3
 2399 0d46 80000000 		.quad	_ZL9farsh_key
 2399      00000000 
 2400 0d4e 18       		.uleb128 0x18
 2401 0d4f 280D0000 		.long	0xd28
 2402 0d53 42       		.uleb128 0x42
 2403 0d54 6D656D63 		.ascii "memcpy\0"
 2403      707900
 2404 0d5b 8E010000 		.long	0x18e
 2405 0d5f 730D0000 		.long	0xd73
 2406 0d63 43       		.uleb128 0x43
 2407 0d64 8E010000 		.long	0x18e
 2408 0d68 43       		.uleb128 0x43
 2409 0d69 A6010000 		.long	0x1a6
 2410 0d6d 43       		.uleb128 0x43
 2411 0d6e 0E010000 		.long	0x10e
 2412 0d72 00       		.byte	0
 2413 0d73 44       		.uleb128 0x44
 2414 0d74 7072696E 		.ascii "printf\0"
 2414      746600
 2415 0d7b 08       		.byte	0x8
 2416 0d7c 7A01     		.word	0x17a
 2417 0d7e E0000000 		.long	0xe0
 2418 0d82 43       		.uleb128 0x43
 2419 0d83 9E050000 		.long	0x59e
 2420 0d87 45       		.uleb128 0x45
 2421 0d88 00       		.byte	0
 2422 0d89 00       		.byte	0
 2423              		.section	.debug_abbrev,"dr"
 2424              	.Ldebug_abbrev0:
 2425 0000 01       		.uleb128 0x1
 2426 0001 11       		.uleb128 0x11
 2427 0002 01       		.byte	0x1
 2428 0003 25       		.uleb128 0x25
 2429 0004 08       		.uleb128 0x8
 2430 0005 13       		.uleb128 0x13
 2431 0006 0B       		.uleb128 0xb
 2432 0007 03       		.uleb128 0x3
 2433 0008 08       		.uleb128 0x8
 2434 0009 1B       		.uleb128 0x1b
 2435 000a 08       		.uleb128 0x8
 2436 000b 55       		.uleb128 0x55
 2437 000c 17       		.uleb128 0x17
 2438 000d 11       		.uleb128 0x11
 2439 000e 01       		.uleb128 0x1
 2440 000f 10       		.uleb128 0x10
 2441 0010 17       		.uleb128 0x17
 2442 0011 00       		.byte	0
 2443 0012 00       		.byte	0
 2444 0013 02       		.uleb128 0x2
 2445 0014 24       		.uleb128 0x24
 2446 0015 00       		.byte	0
 2447 0016 0B       		.uleb128 0xb
 2448 0017 0B       		.uleb128 0xb
 2449 0018 3E       		.uleb128 0x3e
 2450 0019 0B       		.uleb128 0xb
 2451 001a 03       		.uleb128 0x3
 2452 001b 08       		.uleb128 0x8
 2453 001c 00       		.byte	0
 2454 001d 00       		.byte	0
 2455 001e 03       		.uleb128 0x3
 2456 001f 16       		.uleb128 0x16
 2457 0020 00       		.byte	0
 2458 0021 03       		.uleb128 0x3
 2459 0022 08       		.uleb128 0x8
 2460 0023 3A       		.uleb128 0x3a
 2461 0024 0B       		.uleb128 0xb
 2462 0025 3B       		.uleb128 0x3b
 2463 0026 0B       		.uleb128 0xb
 2464 0027 49       		.uleb128 0x49
 2465 0028 13       		.uleb128 0x13
 2466 0029 00       		.byte	0
 2467 002a 00       		.byte	0
 2468 002b 04       		.uleb128 0x4
 2469 002c 3B       		.uleb128 0x3b
 2470 002d 00       		.byte	0
 2471 002e 03       		.uleb128 0x3
 2472 002f 08       		.uleb128 0x8
 2473 0030 00       		.byte	0
 2474 0031 00       		.byte	0
 2475 0032 05       		.uleb128 0x5
 2476 0033 0F       		.uleb128 0xf
 2477 0034 00       		.byte	0
 2478 0035 0B       		.uleb128 0xb
 2479 0036 0B       		.uleb128 0xb
 2480 0037 00       		.byte	0
 2481 0038 00       		.byte	0
 2482 0039 06       		.uleb128 0x6
 2483 003a 0F       		.uleb128 0xf
 2484 003b 00       		.byte	0
 2485 003c 0B       		.uleb128 0xb
 2486 003d 0B       		.uleb128 0xb
 2487 003e 49       		.uleb128 0x49
 2488 003f 13       		.uleb128 0x13
 2489 0040 00       		.byte	0
 2490 0041 00       		.byte	0
 2491 0042 07       		.uleb128 0x7
 2492 0043 26       		.uleb128 0x26
 2493 0044 00       		.byte	0
 2494 0045 00       		.byte	0
 2495 0046 00       		.byte	0
 2496 0047 08       		.uleb128 0x8
 2497 0048 16       		.uleb128 0x16
 2498 0049 00       		.byte	0
 2499 004a 03       		.uleb128 0x3
 2500 004b 08       		.uleb128 0x8
 2501 004c 3A       		.uleb128 0x3a
 2502 004d 0B       		.uleb128 0xb
 2503 004e 3B       		.uleb128 0x3b
 2504 004f 05       		.uleb128 0x5
 2505 0050 49       		.uleb128 0x49
 2506 0051 13       		.uleb128 0x13
 2507 0052 00       		.byte	0
 2508 0053 00       		.byte	0
 2509 0054 09       		.uleb128 0x9
 2510 0055 17       		.uleb128 0x17
 2511 0056 01       		.byte	0x1
 2512 0057 03       		.uleb128 0x3
 2513 0058 08       		.uleb128 0x8
 2514 0059 0B       		.uleb128 0xb
 2515 005a 0B       		.uleb128 0xb
 2516 005b 3A       		.uleb128 0x3a
 2517 005c 0B       		.uleb128 0xb
 2518 005d 3B       		.uleb128 0x3b
 2519 005e 05       		.uleb128 0x5
 2520 005f 01       		.uleb128 0x1
 2521 0060 13       		.uleb128 0x13
 2522 0061 00       		.byte	0
 2523 0062 00       		.byte	0
 2524 0063 0A       		.uleb128 0xa
 2525 0064 13       		.uleb128 0x13
 2526 0065 01       		.byte	0x1
 2527 0066 0B       		.uleb128 0xb
 2528 0067 0B       		.uleb128 0xb
 2529 0068 3A       		.uleb128 0x3a
 2530 0069 0B       		.uleb128 0xb
 2531 006a 3B       		.uleb128 0x3b
 2532 006b 05       		.uleb128 0x5
 2533 006c 01       		.uleb128 0x1
 2534 006d 13       		.uleb128 0x13
 2535 006e 00       		.byte	0
 2536 006f 00       		.byte	0
 2537 0070 0B       		.uleb128 0xb
 2538 0071 0D       		.uleb128 0xd
 2539 0072 00       		.byte	0
 2540 0073 03       		.uleb128 0x3
 2541 0074 08       		.uleb128 0x8
 2542 0075 3A       		.uleb128 0x3a
 2543 0076 0B       		.uleb128 0xb
 2544 0077 3B       		.uleb128 0x3b
 2545 0078 05       		.uleb128 0x5
 2546 0079 49       		.uleb128 0x49
 2547 007a 13       		.uleb128 0x13
 2548 007b 38       		.uleb128 0x38
 2549 007c 0B       		.uleb128 0xb
 2550 007d 00       		.byte	0
 2551 007e 00       		.byte	0
 2552 007f 0C       		.uleb128 0xc
 2553 0080 0D       		.uleb128 0xd
 2554 0081 00       		.byte	0
 2555 0082 03       		.uleb128 0x3
 2556 0083 0E       		.uleb128 0xe
 2557 0084 3A       		.uleb128 0x3a
 2558 0085 0B       		.uleb128 0xb
 2559 0086 3B       		.uleb128 0x3b
 2560 0087 05       		.uleb128 0x5
 2561 0088 49       		.uleb128 0x49
 2562 0089 13       		.uleb128 0x13
 2563 008a 38       		.uleb128 0x38
 2564 008b 0B       		.uleb128 0xb
 2565 008c 00       		.byte	0
 2566 008d 00       		.byte	0
 2567 008e 0D       		.uleb128 0xd
 2568 008f 0D       		.uleb128 0xd
 2569 0090 00       		.byte	0
 2570 0091 49       		.uleb128 0x49
 2571 0092 13       		.uleb128 0x13
 2572 0093 00       		.byte	0
 2573 0094 00       		.byte	0
 2574 0095 0E       		.uleb128 0xe
 2575 0096 0D       		.uleb128 0xd
 2576 0097 00       		.byte	0
 2577 0098 03       		.uleb128 0x3
 2578 0099 08       		.uleb128 0x8
 2579 009a 3A       		.uleb128 0x3a
 2580 009b 0B       		.uleb128 0xb
 2581 009c 3B       		.uleb128 0x3b
 2582 009d 05       		.uleb128 0x5
 2583 009e 49       		.uleb128 0x49
 2584 009f 13       		.uleb128 0x13
 2585 00a0 00       		.byte	0
 2586 00a1 00       		.byte	0
 2587 00a2 0F       		.uleb128 0xf
 2588 00a3 13       		.uleb128 0x13
 2589 00a4 01       		.byte	0x1
 2590 00a5 03       		.uleb128 0x3
 2591 00a6 08       		.uleb128 0x8
 2592 00a7 0B       		.uleb128 0xb
 2593 00a8 0B       		.uleb128 0xb
 2594 00a9 3A       		.uleb128 0x3a
 2595 00aa 0B       		.uleb128 0xb
 2596 00ab 3B       		.uleb128 0x3b
 2597 00ac 0B       		.uleb128 0xb
 2598 00ad 01       		.uleb128 0x1
 2599 00ae 13       		.uleb128 0x13
 2600 00af 00       		.byte	0
 2601 00b0 00       		.byte	0
 2602 00b1 10       		.uleb128 0x10
 2603 00b2 0D       		.uleb128 0xd
 2604 00b3 00       		.byte	0
 2605 00b4 03       		.uleb128 0x3
 2606 00b5 08       		.uleb128 0x8
 2607 00b6 3A       		.uleb128 0x3a
 2608 00b7 0B       		.uleb128 0xb
 2609 00b8 3B       		.uleb128 0x3b
 2610 00b9 0B       		.uleb128 0xb
 2611 00ba 49       		.uleb128 0x49
 2612 00bb 13       		.uleb128 0x13
 2613 00bc 38       		.uleb128 0x38
 2614 00bd 0B       		.uleb128 0xb
 2615 00be 32       		.uleb128 0x32
 2616 00bf 0B       		.uleb128 0xb
 2617 00c0 00       		.byte	0
 2618 00c1 00       		.byte	0
 2619 00c2 11       		.uleb128 0x11
 2620 00c3 2E       		.uleb128 0x2e
 2621 00c4 01       		.byte	0x1
 2622 00c5 3F       		.uleb128 0x3f
 2623 00c6 19       		.uleb128 0x19
 2624 00c7 03       		.uleb128 0x3
 2625 00c8 08       		.uleb128 0x8
 2626 00c9 3A       		.uleb128 0x3a
 2627 00ca 0B       		.uleb128 0xb
 2628 00cb 3B       		.uleb128 0x3b
 2629 00cc 0B       		.uleb128 0xb
 2630 00cd 6E       		.uleb128 0x6e
 2631 00ce 08       		.uleb128 0x8
 2632 00cf 3C       		.uleb128 0x3c
 2633 00d0 19       		.uleb128 0x19
 2634 00d1 64       		.uleb128 0x64
 2635 00d2 13       		.uleb128 0x13
 2636 00d3 01       		.uleb128 0x1
 2637 00d4 13       		.uleb128 0x13
 2638 00d5 00       		.byte	0
 2639 00d6 00       		.byte	0
 2640 00d7 12       		.uleb128 0x12
 2641 00d8 05       		.uleb128 0x5
 2642 00d9 00       		.byte	0
 2643 00da 49       		.uleb128 0x49
 2644 00db 13       		.uleb128 0x13
 2645 00dc 34       		.uleb128 0x34
 2646 00dd 19       		.uleb128 0x19
 2647 00de 00       		.byte	0
 2648 00df 00       		.byte	0
 2649 00e0 13       		.uleb128 0x13
 2650 00e1 2E       		.uleb128 0x2e
 2651 00e2 01       		.byte	0x1
 2652 00e3 3F       		.uleb128 0x3f
 2653 00e4 19       		.uleb128 0x19
 2654 00e5 03       		.uleb128 0x3
 2655 00e6 08       		.uleb128 0x8
 2656 00e7 3A       		.uleb128 0x3a
 2657 00e8 0B       		.uleb128 0xb
 2658 00e9 3B       		.uleb128 0x3b
 2659 00ea 0B       		.uleb128 0xb
 2660 00eb 6E       		.uleb128 0x6e
 2661 00ec 08       		.uleb128 0x8
 2662 00ed 49       		.uleb128 0x49
 2663 00ee 13       		.uleb128 0x13
 2664 00ef 3C       		.uleb128 0x3c
 2665 00f0 19       		.uleb128 0x19
 2666 00f1 64       		.uleb128 0x64
 2667 00f2 13       		.uleb128 0x13
 2668 00f3 01       		.uleb128 0x1
 2669 00f4 13       		.uleb128 0x13
 2670 00f5 00       		.byte	0
 2671 00f6 00       		.byte	0
 2672 00f7 14       		.uleb128 0x14
 2673 00f8 2E       		.uleb128 0x2e
 2674 00f9 01       		.byte	0x1
 2675 00fa 3F       		.uleb128 0x3f
 2676 00fb 19       		.uleb128 0x19
 2677 00fc 03       		.uleb128 0x3
 2678 00fd 08       		.uleb128 0x8
 2679 00fe 3A       		.uleb128 0x3a
 2680 00ff 0B       		.uleb128 0xb
 2681 0100 3B       		.uleb128 0x3b
 2682 0101 0B       		.uleb128 0xb
 2683 0102 3C       		.uleb128 0x3c
 2684 0103 19       		.uleb128 0x19
 2685 0104 64       		.uleb128 0x64
 2686 0105 13       		.uleb128 0x13
 2687 0106 01       		.uleb128 0x1
 2688 0107 13       		.uleb128 0x13
 2689 0108 00       		.byte	0
 2690 0109 00       		.byte	0
 2691 010a 15       		.uleb128 0x15
 2692 010b 2E       		.uleb128 0x2e
 2693 010c 01       		.byte	0x1
 2694 010d 3F       		.uleb128 0x3f
 2695 010e 19       		.uleb128 0x19
 2696 010f 03       		.uleb128 0x3
 2697 0110 08       		.uleb128 0x8
 2698 0111 3A       		.uleb128 0x3a
 2699 0112 0B       		.uleb128 0xb
 2700 0113 3B       		.uleb128 0x3b
 2701 0114 0B       		.uleb128 0xb
 2702 0115 6E       		.uleb128 0x6e
 2703 0116 08       		.uleb128 0x8
 2704 0117 49       		.uleb128 0x49
 2705 0118 13       		.uleb128 0x13
 2706 0119 32       		.uleb128 0x32
 2707 011a 0B       		.uleb128 0xb
 2708 011b 3C       		.uleb128 0x3c
 2709 011c 19       		.uleb128 0x19
 2710 011d 64       		.uleb128 0x64
 2711 011e 13       		.uleb128 0x13
 2712 011f 00       		.byte	0
 2713 0120 00       		.byte	0
 2714 0121 16       		.uleb128 0x16
 2715 0122 2E       		.uleb128 0x2e
 2716 0123 01       		.byte	0x1
 2717 0124 47       		.uleb128 0x47
 2718 0125 13       		.uleb128 0x13
 2719 0126 20       		.uleb128 0x20
 2720 0127 0B       		.uleb128 0xb
 2721 0128 64       		.uleb128 0x64
 2722 0129 13       		.uleb128 0x13
 2723 012a 01       		.uleb128 0x1
 2724 012b 13       		.uleb128 0x13
 2725 012c 00       		.byte	0
 2726 012d 00       		.byte	0
 2727 012e 17       		.uleb128 0x17
 2728 012f 05       		.uleb128 0x5
 2729 0130 00       		.byte	0
 2730 0131 03       		.uleb128 0x3
 2731 0132 08       		.uleb128 0x8
 2732 0133 49       		.uleb128 0x49
 2733 0134 13       		.uleb128 0x13
 2734 0135 34       		.uleb128 0x34
 2735 0136 19       		.uleb128 0x19
 2736 0137 00       		.byte	0
 2737 0138 00       		.byte	0
 2738 0139 18       		.uleb128 0x18
 2739 013a 26       		.uleb128 0x26
 2740 013b 00       		.byte	0
 2741 013c 49       		.uleb128 0x49
 2742 013d 13       		.uleb128 0x13
 2743 013e 00       		.byte	0
 2744 013f 00       		.byte	0
 2745 0140 19       		.uleb128 0x19
 2746 0141 2E       		.uleb128 0x2e
 2747 0142 01       		.byte	0x1
 2748 0143 3F       		.uleb128 0x3f
 2749 0144 19       		.uleb128 0x19
 2750 0145 03       		.uleb128 0x3
 2751 0146 08       		.uleb128 0x8
 2752 0147 3A       		.uleb128 0x3a
 2753 0148 0B       		.uleb128 0xb
 2754 0149 3B       		.uleb128 0x3b
 2755 014a 0B       		.uleb128 0xb
 2756 014b 49       		.uleb128 0x49
 2757 014c 13       		.uleb128 0x13
 2758 014d 20       		.uleb128 0x20
 2759 014e 0B       		.uleb128 0xb
 2760 014f 01       		.uleb128 0x1
 2761 0150 13       		.uleb128 0x13
 2762 0151 00       		.byte	0
 2763 0152 00       		.byte	0
 2764 0153 1A       		.uleb128 0x1a
 2765 0154 05       		.uleb128 0x5
 2766 0155 00       		.byte	0
 2767 0156 03       		.uleb128 0x3
 2768 0157 0E       		.uleb128 0xe
 2769 0158 3A       		.uleb128 0x3a
 2770 0159 0B       		.uleb128 0xb
 2771 015a 3B       		.uleb128 0x3b
 2772 015b 0B       		.uleb128 0xb
 2773 015c 49       		.uleb128 0x49
 2774 015d 13       		.uleb128 0x13
 2775 015e 00       		.byte	0
 2776 015f 00       		.byte	0
 2777 0160 1B       		.uleb128 0x1b
 2778 0161 2E       		.uleb128 0x2e
 2779 0162 01       		.byte	0x1
 2780 0163 03       		.uleb128 0x3
 2781 0164 08       		.uleb128 0x8
 2782 0165 3A       		.uleb128 0x3a
 2783 0166 0B       		.uleb128 0xb
 2784 0167 3B       		.uleb128 0x3b
 2785 0168 0B       		.uleb128 0xb
 2786 0169 49       		.uleb128 0x49
 2787 016a 13       		.uleb128 0x13
 2788 016b 20       		.uleb128 0x20
 2789 016c 0B       		.uleb128 0xb
 2790 016d 01       		.uleb128 0x1
 2791 016e 13       		.uleb128 0x13
 2792 016f 00       		.byte	0
 2793 0170 00       		.byte	0
 2794 0171 1C       		.uleb128 0x1c
 2795 0172 05       		.uleb128 0x5
 2796 0173 00       		.byte	0
 2797 0174 03       		.uleb128 0x3
 2798 0175 08       		.uleb128 0x8
 2799 0176 3A       		.uleb128 0x3a
 2800 0177 0B       		.uleb128 0xb
 2801 0178 3B       		.uleb128 0x3b
 2802 0179 0B       		.uleb128 0xb
 2803 017a 49       		.uleb128 0x49
 2804 017b 13       		.uleb128 0x13
 2805 017c 00       		.byte	0
 2806 017d 00       		.byte	0
 2807 017e 1D       		.uleb128 0x1d
 2808 017f 0B       		.uleb128 0xb
 2809 0180 01       		.byte	0x1
 2810 0181 00       		.byte	0
 2811 0182 00       		.byte	0
 2812 0183 1E       		.uleb128 0x1e
 2813 0184 34       		.uleb128 0x34
 2814 0185 00       		.byte	0
 2815 0186 03       		.uleb128 0x3
 2816 0187 08       		.uleb128 0x8
 2817 0188 3A       		.uleb128 0x3a
 2818 0189 0B       		.uleb128 0xb
 2819 018a 3B       		.uleb128 0x3b
 2820 018b 0B       		.uleb128 0xb
 2821 018c 49       		.uleb128 0x49
 2822 018d 13       		.uleb128 0x13
 2823 018e 00       		.byte	0
 2824 018f 00       		.byte	0
 2825 0190 1F       		.uleb128 0x1f
 2826 0191 34       		.uleb128 0x34
 2827 0192 00       		.byte	0
 2828 0193 03       		.uleb128 0x3
 2829 0194 0E       		.uleb128 0xe
 2830 0195 3A       		.uleb128 0x3a
 2831 0196 0B       		.uleb128 0xb
 2832 0197 3B       		.uleb128 0x3b
 2833 0198 0B       		.uleb128 0xb
 2834 0199 49       		.uleb128 0x49
 2835 019a 13       		.uleb128 0x13
 2836 019b 00       		.byte	0
 2837 019c 00       		.byte	0
 2838 019d 20       		.uleb128 0x20
 2839 019e 01       		.uleb128 0x1
 2840 019f 01       		.byte	0x1
 2841 01a0 49       		.uleb128 0x49
 2842 01a1 13       		.uleb128 0x13
 2843 01a2 01       		.uleb128 0x1
 2844 01a3 13       		.uleb128 0x13
 2845 01a4 00       		.byte	0
 2846 01a5 00       		.byte	0
 2847 01a6 21       		.uleb128 0x21
 2848 01a7 21       		.uleb128 0x21
 2849 01a8 00       		.byte	0
 2850 01a9 49       		.uleb128 0x49
 2851 01aa 13       		.uleb128 0x13
 2852 01ab 2F       		.uleb128 0x2f
 2853 01ac 0B       		.uleb128 0xb
 2854 01ad 00       		.byte	0
 2855 01ae 00       		.byte	0
 2856 01af 22       		.uleb128 0x22
 2857 01b0 2E       		.uleb128 0x2e
 2858 01b1 01       		.byte	0x1
 2859 01b2 31       		.uleb128 0x31
 2860 01b3 13       		.uleb128 0x13
 2861 01b4 6E       		.uleb128 0x6e
 2862 01b5 08       		.uleb128 0x8
 2863 01b6 11       		.uleb128 0x11
 2864 01b7 01       		.uleb128 0x1
 2865 01b8 12       		.uleb128 0x12
 2866 01b9 07       		.uleb128 0x7
 2867 01ba 40       		.uleb128 0x40
 2868 01bb 18       		.uleb128 0x18
 2869 01bc 9742     		.uleb128 0x2117
 2870 01be 19       		.uleb128 0x19
 2871 01bf 01       		.uleb128 0x1
 2872 01c0 13       		.uleb128 0x13
 2873 01c1 00       		.byte	0
 2874 01c2 00       		.byte	0
 2875 01c3 23       		.uleb128 0x23
 2876 01c4 05       		.uleb128 0x5
 2877 01c5 00       		.byte	0
 2878 01c6 31       		.uleb128 0x31
 2879 01c7 13       		.uleb128 0x13
 2880 01c8 02       		.uleb128 0x2
 2881 01c9 17       		.uleb128 0x17
 2882 01ca 00       		.byte	0
 2883 01cb 00       		.byte	0
 2884 01cc 24       		.uleb128 0x24
 2885 01cd 0B       		.uleb128 0xb
 2886 01ce 01       		.byte	0x1
 2887 01cf 55       		.uleb128 0x55
 2888 01d0 17       		.uleb128 0x17
 2889 01d1 00       		.byte	0
 2890 01d2 00       		.byte	0
 2891 01d3 25       		.uleb128 0x25
 2892 01d4 34       		.uleb128 0x34
 2893 01d5 00       		.byte	0
 2894 01d6 31       		.uleb128 0x31
 2895 01d7 13       		.uleb128 0x13
 2896 01d8 02       		.uleb128 0x2
 2897 01d9 17       		.uleb128 0x17
 2898 01da 00       		.byte	0
 2899 01db 00       		.byte	0
 2900 01dc 26       		.uleb128 0x26
 2901 01dd 34       		.uleb128 0x34
 2902 01de 00       		.byte	0
 2903 01df 31       		.uleb128 0x31
 2904 01e0 13       		.uleb128 0x13
 2905 01e1 00       		.byte	0
 2906 01e2 00       		.byte	0
 2907 01e3 27       		.uleb128 0x27
 2908 01e4 1D       		.uleb128 0x1d
 2909 01e5 01       		.byte	0x1
 2910 01e6 31       		.uleb128 0x31
 2911 01e7 13       		.uleb128 0x13
 2912 01e8 52       		.uleb128 0x52
 2913 01e9 01       		.uleb128 0x1
 2914 01ea 55       		.uleb128 0x55
 2915 01eb 17       		.uleb128 0x17
 2916 01ec 58       		.uleb128 0x58
 2917 01ed 0B       		.uleb128 0xb
 2918 01ee 59       		.uleb128 0x59
 2919 01ef 0B       		.uleb128 0xb
 2920 01f0 00       		.byte	0
 2921 01f1 00       		.byte	0
 2922 01f2 28       		.uleb128 0x28
 2923 01f3 34       		.uleb128 0x34
 2924 01f4 00       		.byte	0
 2925 01f5 31       		.uleb128 0x31
 2926 01f6 13       		.uleb128 0x13
 2927 01f7 02       		.uleb128 0x2
 2928 01f8 18       		.uleb128 0x18
 2929 01f9 00       		.byte	0
 2930 01fa 00       		.byte	0
 2931 01fb 29       		.uleb128 0x29
 2932 01fc 1D       		.uleb128 0x1d
 2933 01fd 01       		.byte	0x1
 2934 01fe 31       		.uleb128 0x31
 2935 01ff 13       		.uleb128 0x13
 2936 0200 52       		.uleb128 0x52
 2937 0201 01       		.uleb128 0x1
 2938 0202 55       		.uleb128 0x55
 2939 0203 17       		.uleb128 0x17
 2940 0204 58       		.uleb128 0x58
 2941 0205 0B       		.uleb128 0xb
 2942 0206 59       		.uleb128 0x59
 2943 0207 0B       		.uleb128 0xb
 2944 0208 01       		.uleb128 0x1
 2945 0209 13       		.uleb128 0x13
 2946 020a 00       		.byte	0
 2947 020b 00       		.byte	0
 2948 020c 2A       		.uleb128 0x2a
 2949 020d 1D       		.uleb128 0x1d
 2950 020e 01       		.byte	0x1
 2951 020f 31       		.uleb128 0x31
 2952 0210 13       		.uleb128 0x13
 2953 0211 11       		.uleb128 0x11
 2954 0212 01       		.uleb128 0x1
 2955 0213 12       		.uleb128 0x12
 2956 0214 07       		.uleb128 0x7
 2957 0215 58       		.uleb128 0x58
 2958 0216 0B       		.uleb128 0xb
 2959 0217 59       		.uleb128 0x59
 2960 0218 0B       		.uleb128 0xb
 2961 0219 01       		.uleb128 0x1
 2962 021a 13       		.uleb128 0x13
 2963 021b 00       		.byte	0
 2964 021c 00       		.byte	0
 2965 021d 2B       		.uleb128 0x2b
 2966 021e 05       		.uleb128 0x5
 2967 021f 00       		.byte	0
 2968 0220 31       		.uleb128 0x31
 2969 0221 13       		.uleb128 0x13
 2970 0222 00       		.byte	0
 2971 0223 00       		.byte	0
 2972 0224 2C       		.uleb128 0x2c
 2973 0225 0B       		.uleb128 0xb
 2974 0226 01       		.byte	0x1
 2975 0227 11       		.uleb128 0x11
 2976 0228 01       		.uleb128 0x1
 2977 0229 12       		.uleb128 0x12
 2978 022a 07       		.uleb128 0x7
 2979 022b 00       		.byte	0
 2980 022c 00       		.byte	0
 2981 022d 2D       		.uleb128 0x2d
 2982 022e 898201   		.uleb128 0x4109
 2983 0231 01       		.byte	0x1
 2984 0232 11       		.uleb128 0x11
 2985 0233 01       		.uleb128 0x1
 2986 0234 31       		.uleb128 0x31
 2987 0235 13       		.uleb128 0x13
 2988 0236 00       		.byte	0
 2989 0237 00       		.byte	0
 2990 0238 2E       		.uleb128 0x2e
 2991 0239 8A8201   		.uleb128 0x410a
 2992 023c 00       		.byte	0
 2993 023d 02       		.uleb128 0x2
 2994 023e 18       		.uleb128 0x18
 2995 023f 9142     		.uleb128 0x2111
 2996 0241 18       		.uleb128 0x18
 2997 0242 00       		.byte	0
 2998 0243 00       		.byte	0
 2999 0244 2F       		.uleb128 0x2f
 3000 0245 2E       		.uleb128 0x2e
 3001 0246 01       		.byte	0x1
 3002 0247 3F       		.uleb128 0x3f
 3003 0248 19       		.uleb128 0x19
 3004 0249 03       		.uleb128 0x3
 3005 024a 08       		.uleb128 0x8
 3006 024b 3A       		.uleb128 0x3a
 3007 024c 0B       		.uleb128 0xb
 3008 024d 3B       		.uleb128 0x3b
 3009 024e 0B       		.uleb128 0xb
 3010 024f 20       		.uleb128 0x20
 3011 0250 0B       		.uleb128 0xb
 3012 0251 01       		.uleb128 0x1
 3013 0252 13       		.uleb128 0x13
 3014 0253 00       		.byte	0
 3015 0254 00       		.byte	0
 3016 0255 30       		.uleb128 0x30
 3017 0256 05       		.uleb128 0x5
 3018 0257 00       		.byte	0
 3019 0258 31       		.uleb128 0x31
 3020 0259 13       		.uleb128 0x13
 3021 025a 02       		.uleb128 0x2
 3022 025b 18       		.uleb128 0x18
 3023 025c 00       		.byte	0
 3024 025d 00       		.byte	0
 3025 025e 31       		.uleb128 0x31
 3026 025f 2E       		.uleb128 0x2e
 3027 0260 01       		.byte	0x1
 3028 0261 3F       		.uleb128 0x3f
 3029 0262 19       		.uleb128 0x19
 3030 0263 03       		.uleb128 0x3
 3031 0264 08       		.uleb128 0x8
 3032 0265 3A       		.uleb128 0x3a
 3033 0266 0B       		.uleb128 0xb
 3034 0267 3B       		.uleb128 0x3b
 3035 0268 0B       		.uleb128 0xb
 3036 0269 6E       		.uleb128 0x6e
 3037 026a 08       		.uleb128 0x8
 3038 026b 11       		.uleb128 0x11
 3039 026c 01       		.uleb128 0x1
 3040 026d 12       		.uleb128 0x12
 3041 026e 07       		.uleb128 0x7
 3042 026f 40       		.uleb128 0x40
 3043 0270 18       		.uleb128 0x18
 3044 0271 9742     		.uleb128 0x2117
 3045 0273 19       		.uleb128 0x19
 3046 0274 01       		.uleb128 0x1
 3047 0275 13       		.uleb128 0x13
 3048 0276 00       		.byte	0
 3049 0277 00       		.byte	0
 3050 0278 32       		.uleb128 0x32
 3051 0279 05       		.uleb128 0x5
 3052 027a 00       		.byte	0
 3053 027b 03       		.uleb128 0x3
 3054 027c 0E       		.uleb128 0xe
 3055 027d 3A       		.uleb128 0x3a
 3056 027e 0B       		.uleb128 0xb
 3057 027f 3B       		.uleb128 0x3b
 3058 0280 0B       		.uleb128 0xb
 3059 0281 49       		.uleb128 0x49
 3060 0282 13       		.uleb128 0x13
 3061 0283 02       		.uleb128 0x2
 3062 0284 17       		.uleb128 0x17
 3063 0285 00       		.byte	0
 3064 0286 00       		.byte	0
 3065 0287 33       		.uleb128 0x33
 3066 0288 05       		.uleb128 0x5
 3067 0289 00       		.byte	0
 3068 028a 03       		.uleb128 0x3
 3069 028b 08       		.uleb128 0x8
 3070 028c 3A       		.uleb128 0x3a
 3071 028d 0B       		.uleb128 0xb
 3072 028e 3B       		.uleb128 0x3b
 3073 028f 0B       		.uleb128 0xb
 3074 0290 49       		.uleb128 0x49
 3075 0291 13       		.uleb128 0x13
 3076 0292 02       		.uleb128 0x2
 3077 0293 17       		.uleb128 0x17
 3078 0294 00       		.byte	0
 3079 0295 00       		.byte	0
 3080 0296 34       		.uleb128 0x34
 3081 0297 1D       		.uleb128 0x1d
 3082 0298 01       		.byte	0x1
 3083 0299 31       		.uleb128 0x31
 3084 029a 13       		.uleb128 0x13
 3085 029b 11       		.uleb128 0x11
 3086 029c 01       		.uleb128 0x1
 3087 029d 12       		.uleb128 0x12
 3088 029e 07       		.uleb128 0x7
 3089 029f 58       		.uleb128 0x58
 3090 02a0 0B       		.uleb128 0xb
 3091 02a1 59       		.uleb128 0x59
 3092 02a2 0B       		.uleb128 0xb
 3093 02a3 00       		.byte	0
 3094 02a4 00       		.byte	0
 3095 02a5 35       		.uleb128 0x35
 3096 02a6 898201   		.uleb128 0x4109
 3097 02a9 01       		.byte	0x1
 3098 02aa 11       		.uleb128 0x11
 3099 02ab 01       		.uleb128 0x1
 3100 02ac 9542     		.uleb128 0x2115
 3101 02ae 19       		.uleb128 0x19
 3102 02af 31       		.uleb128 0x31
 3103 02b0 13       		.uleb128 0x13
 3104 02b1 00       		.byte	0
 3105 02b2 00       		.byte	0
 3106 02b3 36       		.uleb128 0x36
 3107 02b4 2E       		.uleb128 0x2e
 3108 02b5 01       		.byte	0x1
 3109 02b6 3F       		.uleb128 0x3f
 3110 02b7 19       		.uleb128 0x19
 3111 02b8 03       		.uleb128 0x3
 3112 02b9 08       		.uleb128 0x8
 3113 02ba 3A       		.uleb128 0x3a
 3114 02bb 0B       		.uleb128 0xb
 3115 02bc 3B       		.uleb128 0x3b
 3116 02bd 0B       		.uleb128 0xb
 3117 02be 49       		.uleb128 0x49
 3118 02bf 13       		.uleb128 0x13
 3119 02c0 11       		.uleb128 0x11
 3120 02c1 01       		.uleb128 0x1
 3121 02c2 12       		.uleb128 0x12
 3122 02c3 07       		.uleb128 0x7
 3123 02c4 40       		.uleb128 0x40
 3124 02c5 18       		.uleb128 0x18
 3125 02c6 9642     		.uleb128 0x2116
 3126 02c8 19       		.uleb128 0x19
 3127 02c9 01       		.uleb128 0x1
 3128 02ca 13       		.uleb128 0x13
 3129 02cb 00       		.byte	0
 3130 02cc 00       		.byte	0
 3131 02cd 37       		.uleb128 0x37
 3132 02ce 34       		.uleb128 0x34
 3133 02cf 00       		.byte	0
 3134 02d0 03       		.uleb128 0x3
 3135 02d1 08       		.uleb128 0x8
 3136 02d2 3A       		.uleb128 0x3a
 3137 02d3 0B       		.uleb128 0xb
 3138 02d4 3B       		.uleb128 0x3b
 3139 02d5 0B       		.uleb128 0xb
 3140 02d6 49       		.uleb128 0x49
 3141 02d7 13       		.uleb128 0x13
 3142 02d8 1C       		.uleb128 0x1c
 3143 02d9 05       		.uleb128 0x5
 3144 02da 00       		.byte	0
 3145 02db 00       		.byte	0
 3146 02dc 38       		.uleb128 0x38
 3147 02dd 34       		.uleb128 0x34
 3148 02de 00       		.byte	0
 3149 02df 03       		.uleb128 0x3
 3150 02e0 08       		.uleb128 0x8
 3151 02e1 3A       		.uleb128 0x3a
 3152 02e2 0B       		.uleb128 0xb
 3153 02e3 3B       		.uleb128 0x3b
 3154 02e4 0B       		.uleb128 0xb
 3155 02e5 49       		.uleb128 0x49
 3156 02e6 13       		.uleb128 0x13
 3157 02e7 1C       		.uleb128 0x1c
 3158 02e8 07       		.uleb128 0x7
 3159 02e9 00       		.byte	0
 3160 02ea 00       		.byte	0
 3161 02eb 39       		.uleb128 0x39
 3162 02ec 34       		.uleb128 0x34
 3163 02ed 00       		.byte	0
 3164 02ee 03       		.uleb128 0x3
 3165 02ef 08       		.uleb128 0x8
 3166 02f0 3A       		.uleb128 0x3a
 3167 02f1 0B       		.uleb128 0xb
 3168 02f2 3B       		.uleb128 0x3b
 3169 02f3 0B       		.uleb128 0xb
 3170 02f4 49       		.uleb128 0x49
 3171 02f5 13       		.uleb128 0x13
 3172 02f6 02       		.uleb128 0x2
 3173 02f7 18       		.uleb128 0x18
 3174 02f8 00       		.byte	0
 3175 02f9 00       		.byte	0
 3176 02fa 3A       		.uleb128 0x3a
 3177 02fb 34       		.uleb128 0x34
 3178 02fc 00       		.byte	0
 3179 02fd 03       		.uleb128 0x3
 3180 02fe 08       		.uleb128 0x8
 3181 02ff 3A       		.uleb128 0x3a
 3182 0300 0B       		.uleb128 0xb
 3183 0301 3B       		.uleb128 0x3b
 3184 0302 0B       		.uleb128 0xb
 3185 0303 49       		.uleb128 0x49
 3186 0304 13       		.uleb128 0x13
 3187 0305 02       		.uleb128 0x2
 3188 0306 17       		.uleb128 0x17
 3189 0307 00       		.byte	0
 3190 0308 00       		.byte	0
 3191 0309 3B       		.uleb128 0x3b
 3192 030a 898201   		.uleb128 0x4109
 3193 030d 01       		.byte	0x1
 3194 030e 11       		.uleb128 0x11
 3195 030f 01       		.uleb128 0x1
 3196 0310 9342     		.uleb128 0x2113
 3197 0312 18       		.uleb128 0x18
 3198 0313 00       		.byte	0
 3199 0314 00       		.byte	0
 3200 0315 3C       		.uleb128 0x3c
 3201 0316 898201   		.uleb128 0x4109
 3202 0319 01       		.byte	0x1
 3203 031a 11       		.uleb128 0x11
 3204 031b 01       		.uleb128 0x1
 3205 031c 00       		.byte	0
 3206 031d 00       		.byte	0
 3207 031e 3D       		.uleb128 0x3d
 3208 031f 0B       		.uleb128 0xb
 3209 0320 01       		.byte	0x1
 3210 0321 55       		.uleb128 0x55
 3211 0322 17       		.uleb128 0x17
 3212 0323 01       		.uleb128 0x1
 3213 0324 13       		.uleb128 0x13
 3214 0325 00       		.byte	0
 3215 0326 00       		.byte	0
 3216 0327 3E       		.uleb128 0x3e
 3217 0328 05       		.uleb128 0x5
 3218 0329 00       		.byte	0
 3219 032a 31       		.uleb128 0x31
 3220 032b 13       		.uleb128 0x13
 3221 032c 1C       		.uleb128 0x1c
 3222 032d 05       		.uleb128 0x5
 3223 032e 00       		.byte	0
 3224 032f 00       		.byte	0
 3225 0330 3F       		.uleb128 0x3f
 3226 0331 898201   		.uleb128 0x4109
 3227 0334 01       		.byte	0x1
 3228 0335 11       		.uleb128 0x11
 3229 0336 01       		.uleb128 0x1
 3230 0337 31       		.uleb128 0x31
 3231 0338 13       		.uleb128 0x13
 3232 0339 01       		.uleb128 0x1
 3233 033a 13       		.uleb128 0x13
 3234 033b 00       		.byte	0
 3235 033c 00       		.byte	0
 3236 033d 40       		.uleb128 0x40
 3237 033e 21       		.uleb128 0x21
 3238 033f 00       		.byte	0
 3239 0340 49       		.uleb128 0x49
 3240 0341 13       		.uleb128 0x13
 3241 0342 2F       		.uleb128 0x2f
 3242 0343 05       		.uleb128 0x5
 3243 0344 00       		.byte	0
 3244 0345 00       		.byte	0
 3245 0346 41       		.uleb128 0x41
 3246 0347 34       		.uleb128 0x34
 3247 0348 00       		.byte	0
 3248 0349 03       		.uleb128 0x3
 3249 034a 0E       		.uleb128 0xe
 3250 034b 3A       		.uleb128 0x3a
 3251 034c 0B       		.uleb128 0xb
 3252 034d 3B       		.uleb128 0x3b
 3253 034e 0B       		.uleb128 0xb
 3254 034f 49       		.uleb128 0x49
 3255 0350 13       		.uleb128 0x13
 3256 0351 02       		.uleb128 0x2
 3257 0352 18       		.uleb128 0x18
 3258 0353 00       		.byte	0
 3259 0354 00       		.byte	0
 3260 0355 42       		.uleb128 0x42
 3261 0356 2E       		.uleb128 0x2e
 3262 0357 01       		.byte	0x1
 3263 0358 3F       		.uleb128 0x3f
 3264 0359 19       		.uleb128 0x19
 3265 035a 03       		.uleb128 0x3
 3266 035b 08       		.uleb128 0x8
 3267 035c 49       		.uleb128 0x49
 3268 035d 13       		.uleb128 0x13
 3269 035e 34       		.uleb128 0x34
 3270 035f 19       		.uleb128 0x19
 3271 0360 3C       		.uleb128 0x3c
 3272 0361 19       		.uleb128 0x19
 3273 0362 01       		.uleb128 0x1
 3274 0363 13       		.uleb128 0x13
 3275 0364 00       		.byte	0
 3276 0365 00       		.byte	0
 3277 0366 43       		.uleb128 0x43
 3278 0367 05       		.uleb128 0x5
 3279 0368 00       		.byte	0
 3280 0369 49       		.uleb128 0x49
 3281 036a 13       		.uleb128 0x13
 3282 036b 00       		.byte	0
 3283 036c 00       		.byte	0
 3284 036d 44       		.uleb128 0x44
 3285 036e 2E       		.uleb128 0x2e
 3286 036f 01       		.byte	0x1
 3287 0370 3F       		.uleb128 0x3f
 3288 0371 19       		.uleb128 0x19
 3289 0372 03       		.uleb128 0x3
 3290 0373 08       		.uleb128 0x8
 3291 0374 3A       		.uleb128 0x3a
 3292 0375 0B       		.uleb128 0xb
 3293 0376 3B       		.uleb128 0x3b
 3294 0377 05       		.uleb128 0x5
 3295 0378 49       		.uleb128 0x49
 3296 0379 13       		.uleb128 0x13
 3297 037a 3C       		.uleb128 0x3c
 3298 037b 19       		.uleb128 0x19
 3299 037c 00       		.byte	0
 3300 037d 00       		.byte	0
 3301 037e 45       		.uleb128 0x45
 3302 037f 18       		.uleb128 0x18
 3303 0380 00       		.byte	0
 3304 0381 00       		.byte	0
 3305 0382 00       		.byte	0
 3306 0383 00       		.byte	0
 3307              		.section	.debug_loc,"dr"
 3308              	.Ldebug_loc0:
 3309              	.LLST0:
 3310 0000 00000000 		.quad	.LVL0
 3310      00000000 
 3311 0008 70000000 		.quad	.LVL4
 3311      00000000 
 3312 0010 0100     		.word	0x1
 3313 0012 52       		.byte	0x52
 3314 0013 70000000 		.quad	.LVL4
 3314      00000000 
 3315 001b 03020000 		.quad	.LVL30
 3315      00000000 
 3316 0023 0400     		.word	0x4
 3317 0025 F3       		.byte	0xf3
 3318 0026 01       		.uleb128 0x1
 3319 0027 52       		.byte	0x52
 3320 0028 9F       		.byte	0x9f
 3321 0029 03020000 		.quad	.LVL30
 3321      00000000 
 3322 0031 0A020000 		.quad	.LFE3006
 3322      00000000 
 3323 0039 0100     		.word	0x1
 3324 003b 52       		.byte	0x52
 3325 003c 00000000 		.quad	0
 3325      00000000 
 3326 0044 00000000 		.quad	0
 3326      00000000 
 3327              	.LLST1:
 3328 004c 00000000 		.quad	.LVL0
 3328      00000000 
 3329 0054 70000000 		.quad	.LVL4
 3329      00000000 
 3330 005c 0100     		.word	0x1
 3331 005e 51       		.byte	0x51
 3332 005f 70000000 		.quad	.LVL4
 3332      00000000 
 3333 0067 03020000 		.quad	.LVL30
 3333      00000000 
 3334 006f 0400     		.word	0x4
 3335 0071 F3       		.byte	0xf3
 3336 0072 01       		.uleb128 0x1
 3337 0073 51       		.byte	0x51
 3338 0074 9F       		.byte	0x9f
 3339 0075 03020000 		.quad	.LVL30
 3339      00000000 
 3340 007d 0A020000 		.quad	.LFE3006
 3340      00000000 
 3341 0085 0100     		.word	0x1
 3342 0087 51       		.byte	0x51
 3343 0088 00000000 		.quad	0
 3343      00000000 
 3344 0090 00000000 		.quad	0
 3344      00000000 
 3345              	.LLST2:
 3346 0098 00000000 		.quad	.LVL0
 3346      00000000 
 3347 00a0 70000000 		.quad	.LVL4
 3347      00000000 
 3348 00a8 0100     		.word	0x1
 3349 00aa 58       		.byte	0x58
 3350 00ab 70000000 		.quad	.LVL4
 3350      00000000 
 3351 00b3 40010000 		.quad	.LVL23
 3351      00000000 
 3352 00bb 0100     		.word	0x1
 3353 00bd 54       		.byte	0x54
 3354 00be 40010000 		.quad	.LVL23
 3354      00000000 
 3355 00c6 4B010000 		.quad	.LVL24
 3355      00000000 
 3356 00ce 0400     		.word	0x4
 3357 00d0 F3       		.byte	0xf3
 3358 00d1 01       		.uleb128 0x1
 3359 00d2 58       		.byte	0x58
 3360 00d3 9F       		.byte	0x9f
 3361 00d4 4B010000 		.quad	.LVL24
 3361      00000000 
 3362 00dc 0A020000 		.quad	.LFE3006
 3362      00000000 
 3363 00e4 0100     		.word	0x1
 3364 00e6 54       		.byte	0x54
 3365 00e7 00000000 		.quad	0
 3365      00000000 
 3366 00ef 00000000 		.quad	0
 3366      00000000 
 3367              	.LLST3:
 3368 00f7 15000000 		.quad	.LVL1
 3368      00000000 
 3369 00ff 70000000 		.quad	.LVL4
 3369      00000000 
 3370 0107 0200     		.word	0x2
 3371 0109 30       		.byte	0x30
 3372 010a 9F       		.byte	0x9f
 3373 010b 70000000 		.quad	.LVL4
 3373      00000000 
 3374 0113 32010000 		.quad	.LVL20
 3374      00000000 
 3375 011b 0100     		.word	0x1
 3376 011d 5E       		.byte	0x5e
 3377 011e 4B010000 		.quad	.LVL24
 3377      00000000 
 3378 0126 03020000 		.quad	.LVL30
 3378      00000000 
 3379 012e 0100     		.word	0x1
 3380 0130 5E       		.byte	0x5e
 3381 0131 03020000 		.quad	.LVL30
 3381      00000000 
 3382 0139 0A020000 		.quad	.LFE3006
 3382      00000000 
 3383 0141 0200     		.word	0x2
 3384 0143 30       		.byte	0x30
 3385 0144 9F       		.byte	0x9f
 3386 0145 00000000 		.quad	0
 3386      00000000 
 3387 014d 00000000 		.quad	0
 3387      00000000 
 3388              	.LLST4:
 3389 0155 15000000 		.quad	.LVL1
 3389      00000000 
 3390 015d 70000000 		.quad	.LVL4
 3390      00000000 
 3391 0165 0200     		.word	0x2
 3392 0167 30       		.byte	0x30
 3393 0168 9F       		.byte	0x9f
 3394 0169 70000000 		.quad	.LVL4
 3394      00000000 
 3395 0171 08010000 		.quad	.LVL16
 3395      00000000 
 3396 0179 0100     		.word	0x1
 3397 017b 56       		.byte	0x56
 3398 017c 08010000 		.quad	.LVL16
 3398      00000000 
 3399 0184 1A010000 		.quad	.LVL18
 3399      00000000 
 3400 018c 0300     		.word	0x3
 3401 018e 76       		.byte	0x76
 3402 018f 7F       		.sleb128 -1
 3403 0190 9F       		.byte	0x9f
 3404 0191 1A010000 		.quad	.LVL18
 3404      00000000 
 3405 0199 35010000 		.quad	.LVL21
 3405      00000000 
 3406 01a1 0100     		.word	0x1
 3407 01a3 56       		.byte	0x56
 3408 01a4 4B010000 		.quad	.LVL24
 3408      00000000 
 3409 01ac 03020000 		.quad	.LVL30
 3409      00000000 
 3410 01b4 0100     		.word	0x1
 3411 01b6 56       		.byte	0x56
 3412 01b7 03020000 		.quad	.LVL30
 3412      00000000 
 3413 01bf 0A020000 		.quad	.LFE3006
 3413      00000000 
 3414 01c7 0200     		.word	0x2
 3415 01c9 30       		.byte	0x30
 3416 01ca 9F       		.byte	0x9f
 3417 01cb 00000000 		.quad	0
 3417      00000000 
 3418 01d3 00000000 		.quad	0
 3418      00000000 
 3419              	.LLST5:
 3420 01db 15000000 		.quad	.LVL1
 3420      00000000 
 3421 01e3 70000000 		.quad	.LVL4
 3421      00000000 
 3422 01eb 0100     		.word	0x1
 3423 01ed 52       		.byte	0x52
 3424 01ee 70000000 		.quad	.LVL4
 3424      00000000 
 3425 01f6 3F010000 		.quad	.LVL22
 3425      00000000 
 3426 01fe 0100     		.word	0x1
 3427 0200 53       		.byte	0x53
 3428 0201 4B010000 		.quad	.LVL24
 3428      00000000 
 3429 0209 03020000 		.quad	.LVL30
 3429      00000000 
 3430 0211 0100     		.word	0x1
 3431 0213 53       		.byte	0x53
 3432 0214 03020000 		.quad	.LVL30
 3432      00000000 
 3433 021c 0A020000 		.quad	.LFE3006
 3433      00000000 
 3434 0224 0100     		.word	0x1
 3435 0226 52       		.byte	0x52
 3436 0227 00000000 		.quad	0
 3436      00000000 
 3437 022f 00000000 		.quad	0
 3437      00000000 
 3438              	.LLST6:
 3439 0237 27000000 		.quad	.LVL2
 3439      00000000 
 3440 023f 5F000000 		.quad	.LVL3
 3440      00000000 
 3441 0247 0100     		.word	0x1
 3442 0249 50       		.byte	0x50
 3443 024a 5F000000 		.quad	.LVL3
 3443      00000000 
 3444 0252 03020000 		.quad	.LVL30
 3444      00000000 
 3445 025a 0300     		.word	0x3
 3446 025c 91       		.byte	0x91
 3447 025d 807F     		.sleb128 -128
 3448 025f 03020000 		.quad	.LVL30
 3448      00000000 
 3449 0267 05020000 		.quad	.LVL31
 3449      00000000 
 3450 026f 0100     		.word	0x1
 3451 0271 50       		.byte	0x50
 3452 0272 05020000 		.quad	.LVL31
 3452      00000000 
 3453 027a 0A020000 		.quad	.LFE3006
 3453      00000000 
 3454 0282 0300     		.word	0x3
 3455 0284 91       		.byte	0x91
 3456 0285 807F     		.sleb128 -128
 3457 0287 00000000 		.quad	0
 3457      00000000 
 3458 028f 00000000 		.quad	0
 3458      00000000 
 3459              	.LLST7:
 3460 0297 70000000 		.quad	.LVL4
 3460      00000000 
 3461 029f 35010000 		.quad	.LVL21
 3461      00000000 
 3462 02a7 0100     		.word	0x1
 3463 02a9 5F       		.byte	0x5f
 3464 02aa 4B010000 		.quad	.LVL24
 3464      00000000 
 3465 02b2 03020000 		.quad	.LVL30
 3465      00000000 
 3466 02ba 0100     		.word	0x1
 3467 02bc 5F       		.byte	0x5f
 3468 02bd 00000000 		.quad	0
 3468      00000000 
 3469 02c5 00000000 		.quad	0
 3469      00000000 
 3470              	.LLST8:
 3471 02cd 70000000 		.quad	.LVL4
 3471      00000000 
 3472 02d5 35010000 		.quad	.LVL21
 3472      00000000 
 3473 02dd 0100     		.word	0x1
 3474 02df 54       		.byte	0x54
 3475 02e0 4B010000 		.quad	.LVL24
 3475      00000000 
 3476 02e8 03020000 		.quad	.LVL30
 3476      00000000 
 3477 02f0 0100     		.word	0x1
 3478 02f2 54       		.byte	0x54
 3479 02f3 00000000 		.quad	0
 3479      00000000 
 3480 02fb 00000000 		.quad	0
 3480      00000000 
 3481              	.LLST10:
 3482 0303 70000000 		.quad	.LVL4
 3482      00000000 
 3483 030b 0B010000 		.quad	.LVL17
 3483      00000000 
 3484 0313 0100     		.word	0x1
 3485 0315 53       		.byte	0x53
 3486 0316 4B010000 		.quad	.LVL24
 3486      00000000 
 3487 031e 03020000 		.quad	.LVL30
 3487      00000000 
 3488 0326 0100     		.word	0x1
 3489 0328 53       		.byte	0x53
 3490 0329 00000000 		.quad	0
 3490      00000000 
 3491 0331 00000000 		.quad	0
 3491      00000000 
 3492              	.LLST12:
 3493 0339 7D000000 		.quad	.LVL5
 3493      00000000 
 3494 0341 02010000 		.quad	.LVL15
 3494      00000000 
 3495 0349 0800     		.word	0x8
 3496 034b 7F       		.byte	0x7f
 3497 034c 00       		.sleb128 0
 3498 034d 32       		.byte	0x32
 3499 034e 25       		.byte	0x25
 3500 034f 09       		.byte	0x9
 3501 0350 FE       		.byte	0xfe
 3502 0351 1A       		.byte	0x1a
 3503 0352 9F       		.byte	0x9f
 3504 0353 DB010000 		.quad	.LVL28
 3504      00000000 
 3505 035b 03020000 		.quad	.LVL30
 3505      00000000 
 3506 0363 0800     		.word	0x8
 3507 0365 7F       		.byte	0x7f
 3508 0366 00       		.sleb128 0
 3509 0367 32       		.byte	0x32
 3510 0368 25       		.byte	0x25
 3511 0369 09       		.byte	0x9
 3512 036a FE       		.byte	0xfe
 3513 036b 1A       		.byte	0x1a
 3514 036c 9F       		.byte	0x9f
 3515 036d 00000000 		.quad	0
 3515      00000000 
 3516 0375 00000000 		.quad	0
 3516      00000000 
 3517              	.LLST13:
 3518 037d 91000000 		.quad	.LVL6
 3518      00000000 
 3519 0385 99000000 		.quad	.LVL7-1
 3519      00000000 
 3520 038d 0600     		.word	0x6
 3521 038f 7F       		.byte	0x7f
 3522 0390 00       		.sleb128 0
 3523 0391 70       		.byte	0x70
 3524 0392 00       		.sleb128 0
 3525 0393 1C       		.byte	0x1c
 3526 0394 9F       		.byte	0x9f
 3527 0395 99000000 		.quad	.LVL7-1
 3527      00000000 
 3528 039d 02010000 		.quad	.LVL15
 3528      00000000 
 3529 03a5 0800     		.word	0x8
 3530 03a7 7F       		.byte	0x7f
 3531 03a8 00       		.sleb128 0
 3532 03a9 91       		.byte	0x91
 3533 03aa 887F     		.sleb128 -120
 3534 03ac 06       		.byte	0x6
 3535 03ad 1C       		.byte	0x1c
 3536 03ae 9F       		.byte	0x9f
 3537 03af DB010000 		.quad	.LVL28
 3537      00000000 
 3538 03b7 03020000 		.quad	.LVL30
 3538      00000000 
 3539 03bf 0800     		.word	0x8
 3540 03c1 7F       		.byte	0x7f
 3541 03c2 00       		.sleb128 0
 3542 03c3 91       		.byte	0x91
 3543 03c4 887F     		.sleb128 -120
 3544 03c6 06       		.byte	0x6
 3545 03c7 1C       		.byte	0x1c
 3546 03c8 9F       		.byte	0x9f
 3547 03c9 00000000 		.quad	0
 3547      00000000 
 3548 03d1 00000000 		.quad	0
 3548      00000000 
 3549              	.LLST14:
 3550 03d9 A6000000 		.quad	.LVL8
 3550      00000000 
 3551 03e1 02010000 		.quad	.LVL15
 3551      00000000 
 3552 03e9 0100     		.word	0x1
 3553 03eb 54       		.byte	0x54
 3554 03ec DB010000 		.quad	.LVL28
 3554      00000000 
 3555 03f4 03020000 		.quad	.LVL30
 3555      00000000 
 3556 03fc 0100     		.word	0x1
 3557 03fe 54       		.byte	0x54
 3558 03ff 00000000 		.quad	0
 3558      00000000 
 3559 0407 00000000 		.quad	0
 3559      00000000 
 3560              	.LLST15:
 3561 040f A6000000 		.quad	.LVL8
 3561      00000000 
 3562 0417 B3000000 		.quad	.LVL9
 3562      00000000 
 3563 041f 0400     		.word	0x4
 3564 0421 91       		.byte	0x91
 3565 0422 907F     		.sleb128 -112
 3566 0424 9F       		.byte	0x9f
 3567 0425 DB010000 		.quad	.LVL28
 3567      00000000 
 3568 042d F2010000 		.quad	.LVL29
 3568      00000000 
 3569 0435 0200     		.word	0x2
 3570 0437 30       		.byte	0x30
 3571 0438 9F       		.byte	0x9f
 3572 0439 F2010000 		.quad	.LVL29
 3572      00000000 
 3573 0441 03020000 		.quad	.LVL30
 3573      00000000 
 3574 0449 0400     		.word	0x4
 3575 044b 91       		.byte	0x91
 3576 044c 907F     		.sleb128 -112
 3577 044e 9F       		.byte	0x9f
 3578 044f 00000000 		.quad	0
 3578      00000000 
 3579 0457 00000000 		.quad	0
 3579      00000000 
 3580              	.LLST16:
 3581 045f A6000000 		.quad	.LVL8
 3581      00000000 
 3582 0467 02010000 		.quad	.LVL15
 3582      00000000 
 3583 046f 0800     		.word	0x8
 3584 0471 7F       		.byte	0x7f
 3585 0472 00       		.sleb128 0
 3586 0473 32       		.byte	0x32
 3587 0474 25       		.byte	0x25
 3588 0475 09       		.byte	0x9
 3589 0476 FE       		.byte	0xfe
 3590 0477 1A       		.byte	0x1a
 3591 0478 9F       		.byte	0x9f
 3592 0479 DB010000 		.quad	.LVL28
 3592      00000000 
 3593 0481 03020000 		.quad	.LVL30
 3593      00000000 
 3594 0489 0800     		.word	0x8
 3595 048b 7F       		.byte	0x7f
 3596 048c 00       		.sleb128 0
 3597 048d 32       		.byte	0x32
 3598 048e 25       		.byte	0x25
 3599 048f 09       		.byte	0x9
 3600 0490 FE       		.byte	0xfe
 3601 0491 1A       		.byte	0x1a
 3602 0492 9F       		.byte	0x9f
 3603 0493 00000000 		.quad	0
 3603      00000000 
 3604 049b 00000000 		.quad	0
 3604      00000000 
 3605              	.LLST17:
 3606 04a3 A6000000 		.quad	.LVL8
 3606      00000000 
 3607 04ab 02010000 		.quad	.LVL15
 3607      00000000 
 3608 04b3 0100     		.word	0x1
 3609 04b5 53       		.byte	0x53
 3610 04b6 DB010000 		.quad	.LVL28
 3610      00000000 
 3611 04be 03020000 		.quad	.LVL30
 3611      00000000 
 3612 04c6 0100     		.word	0x1
 3613 04c8 53       		.byte	0x53
 3614 04c9 00000000 		.quad	0
 3614      00000000 
 3615 04d1 00000000 		.quad	0
 3615      00000000 
 3616              	.LLST18:
 3617 04d9 A6000000 		.quad	.LVL8
 3617      00000000 
 3618 04e1 B3000000 		.quad	.LVL9
 3618      00000000 
 3619 04e9 0200     		.word	0x2
 3620 04eb 30       		.byte	0x30
 3621 04ec 9F       		.byte	0x9f
 3622 04ed B3000000 		.quad	.LVL9
 3622      00000000 
 3623 04f5 E5000000 		.quad	.LVL12
 3623      00000000 
 3624 04fd 0100     		.word	0x1
 3625 04ff 51       		.byte	0x51
 3626 0500 E5000000 		.quad	.LVL12
 3626      00000000 
 3627 0508 EC000000 		.quad	.LVL13
 3627      00000000 
 3628 0510 2900     		.word	0x29
 3629 0512 74       		.byte	0x74
 3630 0513 00       		.sleb128 0
 3631 0514 7B       		.byte	0x7b
 3632 0515 00       		.sleb128 0
 3633 0516 22       		.byte	0x22
 3634 0517 94       		.byte	0x94
 3635 0518 04       		.byte	0x4
 3636 0519 78       		.byte	0x78
 3637 051a 04       		.sleb128 4
 3638 051b 94       		.byte	0x94
 3639 051c 04       		.byte	0x4
 3640 051d 22       		.byte	0x22
 3641 051e 0C       		.byte	0xc
 3642 051f FFFFFFFF 		.long	0xffffffff
 3643 0523 1A       		.byte	0x1a
 3644 0524 74       		.byte	0x74
 3645 0525 00       		.sleb128 0
 3646 0526 70       		.byte	0x70
 3647 0527 00       		.sleb128 0
 3648 0528 22       		.byte	0x22
 3649 0529 94       		.byte	0x94
 3650 052a 04       		.byte	0x4
 3651 052b 78       		.byte	0x78
 3652 052c 00       		.sleb128 0
 3653 052d 94       		.byte	0x94
 3654 052e 04       		.byte	0x4
 3655 052f 22       		.byte	0x22
 3656 0530 0C       		.byte	0xc
 3657 0531 FFFFFFFF 		.long	0xffffffff
 3658 0535 1A       		.byte	0x1a
 3659 0536 1E       		.byte	0x1e
 3660 0537 71       		.byte	0x71
 3661 0538 00       		.sleb128 0
 3662 0539 22       		.byte	0x22
 3663 053a 9F       		.byte	0x9f
 3664 053b EC000000 		.quad	.LVL13
 3664      00000000 
 3665 0543 F0000000 		.quad	.LVL14
 3665      00000000 
 3666 054b 2500     		.word	0x25
 3667 054d 74       		.byte	0x74
 3668 054e 00       		.sleb128 0
 3669 054f 7B       		.byte	0x7b
 3670 0550 00       		.sleb128 0
 3671 0551 22       		.byte	0x22
 3672 0552 94       		.byte	0x94
 3673 0553 04       		.byte	0x4
 3674 0554 72       		.byte	0x72
 3675 0555 00       		.sleb128 0
 3676 0556 22       		.byte	0x22
 3677 0557 0C       		.byte	0xc
 3678 0558 FFFFFFFF 		.long	0xffffffff
 3679 055c 1A       		.byte	0x1a
 3680 055d 74       		.byte	0x74
 3681 055e 00       		.sleb128 0
 3682 055f 70       		.byte	0x70
 3683 0560 00       		.sleb128 0
 3684 0561 22       		.byte	0x22
 3685 0562 94       		.byte	0x94
 3686 0563 04       		.byte	0x4
 3687 0564 78       		.byte	0x78
 3688 0565 00       		.sleb128 0
 3689 0566 22       		.byte	0x22
 3690 0567 0C       		.byte	0xc
 3691 0568 FFFFFFFF 		.long	0xffffffff
 3692 056c 1A       		.byte	0x1a
 3693 056d 1E       		.byte	0x1e
 3694 056e 71       		.byte	0x71
 3695 056f 00       		.sleb128 0
 3696 0570 22       		.byte	0x22
 3697 0571 9F       		.byte	0x9f
 3698 0572 DB010000 		.quad	.LVL28
 3698      00000000 
 3699 057a 03020000 		.quad	.LVL30
 3699      00000000 
 3700 0582 0200     		.word	0x2
 3701 0584 30       		.byte	0x30
 3702 0585 9F       		.byte	0x9f
 3703 0586 00000000 		.quad	0
 3703      00000000 
 3704 058e 00000000 		.quad	0
 3704      00000000 
 3705              	.LLST19:
 3706 0596 A6000000 		.quad	.LVL8
 3706      00000000 
 3707 059e B3000000 		.quad	.LVL9
 3707      00000000 
 3708 05a6 0200     		.word	0x2
 3709 05a8 30       		.byte	0x30
 3710 05a9 9F       		.byte	0x9f
 3711 05aa B3000000 		.quad	.LVL9
 3711      00000000 
 3712 05b2 C9000000 		.quad	.LVL10
 3712      00000000 
 3713 05ba 0100     		.word	0x1
 3714 05bc 50       		.byte	0x50
 3715 05bd DB010000 		.quad	.LVL28
 3715      00000000 
 3716 05c5 03020000 		.quad	.LVL30
 3716      00000000 
 3717 05cd 0200     		.word	0x2
 3718 05cf 30       		.byte	0x30
 3719 05d0 9F       		.byte	0x9f
 3720 05d1 00000000 		.quad	0
 3720      00000000 
 3721 05d9 00000000 		.quad	0
 3721      00000000 
 3722              	.LLST20:
 3723 05e1 10020000 		.quad	.LVL32
 3723      00000000 
 3724 05e9 40020000 		.quad	.LVL35
 3724      00000000 
 3725 05f1 0100     		.word	0x1
 3726 05f3 52       		.byte	0x52
 3727 05f4 40020000 		.quad	.LVL35
 3727      00000000 
 3728 05fc 5D020000 		.quad	.LVL37
 3728      00000000 
 3729 0604 0100     		.word	0x1
 3730 0606 54       		.byte	0x54
 3731 0607 5D020000 		.quad	.LVL37
 3731      00000000 
 3732 060f 6A020000 		.quad	.LFE3007
 3732      00000000 
 3733 0617 0400     		.word	0x4
 3734 0619 F3       		.byte	0xf3
 3735 061a 01       		.uleb128 0x1
 3736 061b 52       		.byte	0x52
 3737 061c 9F       		.byte	0x9f
 3738 061d 00000000 		.quad	0
 3738      00000000 
 3739 0625 00000000 		.quad	0
 3739      00000000 
 3740              	.LLST21:
 3741 062d 10020000 		.quad	.LVL32
 3741      00000000 
 3742 0635 40020000 		.quad	.LVL35
 3742      00000000 
 3743 063d 0100     		.word	0x1
 3744 063f 51       		.byte	0x51
 3745 0640 40020000 		.quad	.LVL35
 3745      00000000 
 3746 0648 5D020000 		.quad	.LVL37
 3746      00000000 
 3747 0650 0100     		.word	0x1
 3748 0652 55       		.byte	0x55
 3749 0653 5D020000 		.quad	.LVL37
 3749      00000000 
 3750 065b 6A020000 		.quad	.LFE3007
 3750      00000000 
 3751 0663 0400     		.word	0x4
 3752 0665 F3       		.byte	0xf3
 3753 0666 01       		.uleb128 0x1
 3754 0667 51       		.byte	0x51
 3755 0668 9F       		.byte	0x9f
 3756 0669 00000000 		.quad	0
 3756      00000000 
 3757 0671 00000000 		.quad	0
 3757      00000000 
 3758              	.LLST22:
 3759 0679 10020000 		.quad	.LVL32
 3759      00000000 
 3760 0681 40020000 		.quad	.LVL35
 3760      00000000 
 3761 0689 0100     		.word	0x1
 3762 068b 58       		.byte	0x58
 3763 068c 40020000 		.quad	.LVL35
 3763      00000000 
 3764 0694 5D020000 		.quad	.LVL37
 3764      00000000 
 3765 069c 0100     		.word	0x1
 3766 069e 56       		.byte	0x56
 3767 069f 5D020000 		.quad	.LVL37
 3767      00000000 
 3768 06a7 6A020000 		.quad	.LFE3007
 3768      00000000 
 3769 06af 0400     		.word	0x4
 3770 06b1 F3       		.byte	0xf3
 3771 06b2 01       		.uleb128 0x1
 3772 06b3 58       		.byte	0x58
 3773 06b4 9F       		.byte	0x9f
 3774 06b5 00000000 		.quad	0
 3774      00000000 
 3775 06bd 00000000 		.quad	0
 3775      00000000 
 3776              	.LLST23:
 3777 06c5 10020000 		.quad	.LVL32
 3777      00000000 
 3778 06cd 2D020000 		.quad	.LVL34
 3778      00000000 
 3779 06d5 0100     		.word	0x1
 3780 06d7 59       		.byte	0x59
 3781 06d8 2D020000 		.quad	.LVL34
 3781      00000000 
 3782 06e0 6A020000 		.quad	.LFE3007
 3782      00000000 
 3783 06e8 0400     		.word	0x4
 3784 06ea F3       		.byte	0xf3
 3785 06eb 01       		.uleb128 0x1
 3786 06ec 59       		.byte	0x59
 3787 06ed 9F       		.byte	0x9f
 3788 06ee 00000000 		.quad	0
 3788      00000000 
 3789 06f6 00000000 		.quad	0
 3789      00000000 
 3790              	.LLST24:
 3791 06fe 1C020000 		.quad	.LVL33
 3791      00000000 
 3792 0706 40020000 		.quad	.LVL35
 3792      00000000 
 3793 070e 0200     		.word	0x2
 3794 0710 30       		.byte	0x30
 3795 0711 9F       		.byte	0x9f
 3796 0712 00000000 		.quad	0
 3796      00000000 
 3797 071a 00000000 		.quad	0
 3797      00000000 
 3798              	.LLST25:
 3799 0722 70020000 		.quad	.LVL38
 3799      00000000 
 3800 072a 9F020000 		.quad	.LVL41
 3800      00000000 
 3801 0732 0100     		.word	0x1
 3802 0734 52       		.byte	0x52
 3803 0735 9F020000 		.quad	.LVL41
 3803      00000000 
 3804 073d BC020000 		.quad	.LVL43
 3804      00000000 
 3805 0745 0100     		.word	0x1
 3806 0747 54       		.byte	0x54
 3807 0748 BC020000 		.quad	.LVL43
 3807      00000000 
 3808 0750 C9020000 		.quad	.LFE3008
 3808      00000000 
 3809 0758 0400     		.word	0x4
 3810 075a F3       		.byte	0xf3
 3811 075b 01       		.uleb128 0x1
 3812 075c 52       		.byte	0x52
 3813 075d 9F       		.byte	0x9f
 3814 075e 00000000 		.quad	0
 3814      00000000 
 3815 0766 00000000 		.quad	0
 3815      00000000 
 3816              	.LLST26:
 3817 076e 70020000 		.quad	.LVL38
 3817      00000000 
 3818 0776 9F020000 		.quad	.LVL41
 3818      00000000 
 3819 077e 0100     		.word	0x1
 3820 0780 51       		.byte	0x51
 3821 0781 9F020000 		.quad	.LVL41
 3821      00000000 
 3822 0789 BC020000 		.quad	.LVL43
 3822      00000000 
 3823 0791 0100     		.word	0x1
 3824 0793 55       		.byte	0x55
 3825 0794 BC020000 		.quad	.LVL43
 3825      00000000 
 3826 079c C9020000 		.quad	.LFE3008
 3826      00000000 
 3827 07a4 0400     		.word	0x4
 3828 07a6 F3       		.byte	0xf3
 3829 07a7 01       		.uleb128 0x1
 3830 07a8 51       		.byte	0x51
 3831 07a9 9F       		.byte	0x9f
 3832 07aa 00000000 		.quad	0
 3832      00000000 
 3833 07b2 00000000 		.quad	0
 3833      00000000 
 3834              	.LLST27:
 3835 07ba 70020000 		.quad	.LVL38
 3835      00000000 
 3836 07c2 85020000 		.quad	.LVL40
 3836      00000000 
 3837 07ca 0100     		.word	0x1
 3838 07cc 58       		.byte	0x58
 3839 07cd 85020000 		.quad	.LVL40
 3839      00000000 
 3840 07d5 C9020000 		.quad	.LFE3008
 3840      00000000 
 3841 07dd 0400     		.word	0x4
 3842 07df F3       		.byte	0xf3
 3843 07e0 01       		.uleb128 0x1
 3844 07e1 58       		.byte	0x58
 3845 07e2 9F       		.byte	0x9f
 3846 07e3 00000000 		.quad	0
 3846      00000000 
 3847 07eb 00000000 		.quad	0
 3847      00000000 
 3848              	.LLST28:
 3849 07f3 70020000 		.quad	.LVL38
 3849      00000000 
 3850 07fb 9F020000 		.quad	.LVL41
 3850      00000000 
 3851 0803 0100     		.word	0x1
 3852 0805 59       		.byte	0x59
 3853 0806 9F020000 		.quad	.LVL41
 3853      00000000 
 3854 080e BC020000 		.quad	.LVL43
 3854      00000000 
 3855 0816 0100     		.word	0x1
 3856 0818 56       		.byte	0x56
 3857 0819 BC020000 		.quad	.LVL43
 3857      00000000 
 3858 0821 C9020000 		.quad	.LFE3008
 3858      00000000 
 3859 0829 0400     		.word	0x4
 3860 082b F3       		.byte	0xf3
 3861 082c 01       		.uleb128 0x1
 3862 082d 59       		.byte	0x59
 3863 082e 9F       		.byte	0x9f
 3864 082f 00000000 		.quad	0
 3864      00000000 
 3865 0837 00000000 		.quad	0
 3865      00000000 
 3866              	.LLST29:
 3867 083f 7C020000 		.quad	.LVL39
 3867      00000000 
 3868 0847 9F020000 		.quad	.LVL41
 3868      00000000 
 3869 084f 0100     		.word	0x1
 3870 0851 59       		.byte	0x59
 3871 0852 9F020000 		.quad	.LVL41
 3871      00000000 
 3872 085a BC020000 		.quad	.LVL43
 3872      00000000 
 3873 0862 0100     		.word	0x1
 3874 0864 56       		.byte	0x56
 3875 0865 BC020000 		.quad	.LVL43
 3875      00000000 
 3876 086d C9020000 		.quad	.LFE3008
 3876      00000000 
 3877 0875 0400     		.word	0x4
 3878 0877 F3       		.byte	0xf3
 3879 0878 01       		.uleb128 0x1
 3880 0879 59       		.byte	0x59
 3881 087a 9F       		.byte	0x9f
 3882 087b 00000000 		.quad	0
 3882      00000000 
 3883 0883 00000000 		.quad	0
 3883      00000000 
 3884              	.LLST30:
 3885 088b 7C020000 		.quad	.LVL39
 3885      00000000 
 3886 0893 85020000 		.quad	.LVL40
 3886      00000000 
 3887 089b 0100     		.word	0x1
 3888 089d 58       		.byte	0x58
 3889 089e 85020000 		.quad	.LVL40
 3889      00000000 
 3890 08a6 C9020000 		.quad	.LFE3008
 3890      00000000 
 3891 08ae 0400     		.word	0x4
 3892 08b0 F3       		.byte	0xf3
 3893 08b1 01       		.uleb128 0x1
 3894 08b2 58       		.byte	0x58
 3895 08b3 9F       		.byte	0x9f
 3896 08b4 00000000 		.quad	0
 3896      00000000 
 3897 08bc 00000000 		.quad	0
 3897      00000000 
 3898              	.LLST31:
 3899 08c4 7C020000 		.quad	.LVL39
 3899      00000000 
 3900 08cc 9F020000 		.quad	.LVL41
 3900      00000000 
 3901 08d4 0100     		.word	0x1
 3902 08d6 51       		.byte	0x51
 3903 08d7 9F020000 		.quad	.LVL41
 3903      00000000 
 3904 08df BC020000 		.quad	.LVL43
 3904      00000000 
 3905 08e7 0100     		.word	0x1
 3906 08e9 55       		.byte	0x55
 3907 08ea BC020000 		.quad	.LVL43
 3907      00000000 
 3908 08f2 C9020000 		.quad	.LFE3008
 3908      00000000 
 3909 08fa 0400     		.word	0x4
 3910 08fc F3       		.byte	0xf3
 3911 08fd 01       		.uleb128 0x1
 3912 08fe 51       		.byte	0x51
 3913 08ff 9F       		.byte	0x9f
 3914 0900 00000000 		.quad	0
 3914      00000000 
 3915 0908 00000000 		.quad	0
 3915      00000000 
 3916              	.LLST32:
 3917 0910 7C020000 		.quad	.LVL39
 3917      00000000 
 3918 0918 9F020000 		.quad	.LVL41
 3918      00000000 
 3919 0920 0100     		.word	0x1
 3920 0922 52       		.byte	0x52
 3921 0923 9F020000 		.quad	.LVL41
 3921      00000000 
 3922 092b BC020000 		.quad	.LVL43
 3922      00000000 
 3923 0933 0100     		.word	0x1
 3924 0935 54       		.byte	0x54
 3925 0936 BC020000 		.quad	.LVL43
 3925      00000000 
 3926 093e C9020000 		.quad	.LFE3008
 3926      00000000 
 3927 0946 0400     		.word	0x4
 3928 0948 F3       		.byte	0xf3
 3929 0949 01       		.uleb128 0x1
 3930 094a 52       		.byte	0x52
 3931 094b 9F       		.byte	0x9f
 3932 094c 00000000 		.quad	0
 3932      00000000 
 3933 0954 00000000 		.quad	0
 3933      00000000 
 3934              	.LLST33:
 3935 095c 7C020000 		.quad	.LVL39
 3935      00000000 
 3936 0964 9F020000 		.quad	.LVL41
 3936      00000000 
 3937 096c 0200     		.word	0x2
 3938 096e 30       		.byte	0x30
 3939 096f 9F       		.byte	0x9f
 3940 0970 00000000 		.quad	0
 3940      00000000 
 3941 0978 00000000 		.quad	0
 3941      00000000 
 3942              	.LLST34:
 3943 0980 D0020000 		.quad	.LVL44
 3943      00000000 
 3944 0988 DB020000 		.quad	.LVL45-1
 3944      00000000 
 3945 0990 0100     		.word	0x1
 3946 0992 52       		.byte	0x52
 3947 0993 DB020000 		.quad	.LVL45-1
 3947      00000000 
 3948 099b DC020000 		.quad	.LFE3009
 3948      00000000 
 3949 09a3 0400     		.word	0x4
 3950 09a5 F3       		.byte	0xf3
 3951 09a6 01       		.uleb128 0x1
 3952 09a7 52       		.byte	0x52
 3953 09a8 9F       		.byte	0x9f
 3954 09a9 00000000 		.quad	0
 3954      00000000 
 3955 09b1 00000000 		.quad	0
 3955      00000000 
 3956              	.LLST35:
 3957 09b9 D0020000 		.quad	.LVL44
 3957      00000000 
 3958 09c1 DB020000 		.quad	.LVL45-1
 3958      00000000 
 3959 09c9 0100     		.word	0x1
 3960 09cb 51       		.byte	0x51
 3961 09cc DB020000 		.quad	.LVL45-1
 3961      00000000 
 3962 09d4 DC020000 		.quad	.LFE3009
 3962      00000000 
 3963 09dc 0400     		.word	0x4
 3964 09de F3       		.byte	0xf3
 3965 09df 01       		.uleb128 0x1
 3966 09e0 51       		.byte	0x51
 3967 09e1 9F       		.byte	0x9f
 3968 09e2 00000000 		.quad	0
 3968      00000000 
 3969 09ea 00000000 		.quad	0
 3969      00000000 
 3970              	.LLST36:
 3971 09f2 BD010000 		.quad	.LVL67
 3971      00000000 
 3972 09fa D1010000 		.quad	.LVL68
 3972      00000000 
 3973 0a02 0100     		.word	0x1
 3974 0a04 62       		.byte	0x62
 3975 0a05 D1010000 		.quad	.LVL68
 3975      00000000 
 3976 0a0d EC010000 		.quad	.LVL69-1
 3976      00000000 
 3977 0a15 1C00     		.word	0x1c
 3978 0a17 F4       		.byte	0xf4
 3979 0a18 7F       		.uleb128 0x7f
 3980 0a19 08       		.byte	0x8
 3981 0a1a 00000000 		.long	0
 3982 0a1e 00000442 		.long	0x42040000
 3983 0a22 F5       		.byte	0xf5
 3984 0a23 01       		.uleb128 0x1
 3985 0a24 7F       		.uleb128 0x7f
 3986 0a25 F4       		.byte	0xf4
 3987 0a26 7F       		.uleb128 0x7f
 3988 0a27 08       		.byte	0x8
 3989 0a28 00000000 		.long	0
 3990 0a2c 00408F40 		.long	0x408f4000
 3991 0a30 1B       		.byte	0x1b
 3992 0a31 1B       		.byte	0x1b
 3993 0a32 9F       		.byte	0x9f
 3994 0a33 00000000 		.quad	0
 3994      00000000 
 3995 0a3b 00000000 		.quad	0
 3995      00000000 
 3996              	.LLST37:
 3997 0a43 69000000 		.quad	.LVL51
 3997      00000000 
 3998 0a4b F9010000 		.quad	.LVL70
 3998      00000000 
 3999 0a53 0100     		.word	0x1
 4000 0a55 53       		.byte	0x53
 4001 0a56 F9010000 		.quad	.LVL70
 4001      00000000 
 4002 0a5e FF010000 		.quad	.LFE3010
 4002      00000000 
 4003 0a66 0400     		.word	0x4
 4004 0a68 91       		.byte	0x91
 4005 0a69 A07F     		.sleb128 -96
 4006 0a6b 9F       		.byte	0x9f
 4007 0a6c 00000000 		.quad	0
 4007      00000000 
 4008 0a74 00000000 		.quad	0
 4008      00000000 
 4009              	.LLST38:
 4010 0a7c 3B000000 		.quad	.LVL47
 4010      00000000 
 4011 0a84 F9010000 		.quad	.LVL70
 4011      00000000 
 4012 0a8c 0100     		.word	0x1
 4013 0a8e 53       		.byte	0x53
 4014 0a8f F9010000 		.quad	.LVL70
 4014      00000000 
 4015 0a97 FF010000 		.quad	.LFE3010
 4015      00000000 
 4016 0a9f 0400     		.word	0x4
 4017 0aa1 91       		.byte	0x91
 4018 0aa2 A07F     		.sleb128 -96
 4019 0aa4 9F       		.byte	0x9f
 4020 0aa5 00000000 		.quad	0
 4020      00000000 
 4021 0aad 00000000 		.quad	0
 4021      00000000 
 4022              	.LLST39:
 4023 0ab5 45000000 		.quad	.LVL48
 4023      00000000 
 4024 0abd F9010000 		.quad	.LVL70
 4024      00000000 
 4025 0ac5 0100     		.word	0x1
 4026 0ac7 53       		.byte	0x53
 4027 0ac8 F9010000 		.quad	.LVL70
 4027      00000000 
 4028 0ad0 FF010000 		.quad	.LFE3010
 4028      00000000 
 4029 0ad8 0400     		.word	0x4
 4030 0ada 91       		.byte	0x91
 4031 0adb A07F     		.sleb128 -96
 4032 0add 9F       		.byte	0x9f
 4033 0ade 00000000 		.quad	0
 4033      00000000 
 4034 0ae6 00000000 		.quad	0
 4034      00000000 
 4035              	.LLST41:
 4036 0aee 51000000 		.quad	.LVL49
 4036      00000000 
 4037 0af6 F9010000 		.quad	.LVL70
 4037      00000000 
 4038 0afe 0100     		.word	0x1
 4039 0b00 53       		.byte	0x53
 4040 0b01 F9010000 		.quad	.LVL70
 4040      00000000 
 4041 0b09 FF010000 		.quad	.LFE3010
 4041      00000000 
 4042 0b11 0400     		.word	0x4
 4043 0b13 91       		.byte	0x91
 4044 0b14 A07F     		.sleb128 -96
 4045 0b16 9F       		.byte	0x9f
 4046 0b17 00000000 		.quad	0
 4046      00000000 
 4047 0b1f 00000000 		.quad	0
 4047      00000000 
 4048              	.LLST42:
 4049 0b27 6B000000 		.quad	.LVL52
 4049      00000000 
 4050 0b2f 72000000 		.quad	.LVL53
 4050      00000000 
 4051 0b37 0200     		.word	0x2
 4052 0b39 30       		.byte	0x30
 4053 0b3a 9F       		.byte	0x9f
 4054 0b3b 72000000 		.quad	.LVL53
 4054      00000000 
 4055 0b43 FE010000 		.quad	.LVL72
 4055      00000000 
 4056 0b4b 0100     		.word	0x1
 4057 0b4d 5C       		.byte	0x5c
 4058 0b4e 00000000 		.quad	0
 4058      00000000 
 4059 0b56 00000000 		.quad	0
 4059      00000000 
 4060              	.LLST43:
 4061 0b5e 79000000 		.quad	.LVL54
 4061      00000000 
 4062 0b66 89000000 		.quad	.LVL55
 4062      00000000 
 4063 0b6e 0200     		.word	0x2
 4064 0b70 30       		.byte	0x30
 4065 0b71 9F       		.byte	0x9f
 4066 0b72 89000000 		.quad	.LVL55
 4066      00000000 
 4067 0b7a 4D010000 		.quad	.LVL63
 4067      00000000 
 4068 0b82 0100     		.word	0x1
 4069 0b84 5A       		.byte	0x5a
 4070 0b85 00000000 		.quad	0
 4070      00000000 
 4071 0b8d 00000000 		.quad	0
 4071      00000000 
 4072              	.LLST44:
 4073 0b95 79000000 		.quad	.LVL54
 4073      00000000 
 4074 0b9d 89000000 		.quad	.LVL55
 4074      00000000 
 4075 0ba5 0200     		.word	0x2
 4076 0ba7 30       		.byte	0x30
 4077 0ba8 9F       		.byte	0x9f
 4078 0ba9 89000000 		.quad	.LVL55
 4078      00000000 
 4079 0bb1 11010000 		.quad	.LVL57
 4079      00000000 
 4080 0bb9 0100     		.word	0x1
 4081 0bbb 58       		.byte	0x58
 4082 0bbc 11010000 		.quad	.LVL57
 4082      00000000 
 4083 0bc4 35010000 		.quad	.LVL61
 4083      00000000 
 4084 0bcc 0300     		.word	0x3
 4085 0bce 78       		.byte	0x78
 4086 0bcf 7F       		.sleb128 -1
 4087 0bd0 9F       		.byte	0x9f
 4088 0bd1 35010000 		.quad	.LVL61
 4088      00000000 
 4089 0bd9 69010000 		.quad	.LVL66-1
 4089      00000000 
 4090 0be1 0100     		.word	0x1
 4091 0be3 58       		.byte	0x58
 4092 0be4 00000000 		.quad	0
 4092      00000000 
 4093 0bec 00000000 		.quad	0
 4093      00000000 
 4094              	.LLST45:
 4095 0bf4 79000000 		.quad	.LVL54
 4095      00000000 
 4096 0bfc 89000000 		.quad	.LVL55
 4096      00000000 
 4097 0c04 0A00     		.word	0xa
 4098 0c06 03       		.byte	0x3
 4099 0c07 00000000 		.quad	_ZZ4mainE4data
 4099      00000000 
 4100 0c0f 9F       		.byte	0x9f
 4101 0c10 89000000 		.quad	.LVL55
 4101      00000000 
 4102 0c18 69010000 		.quad	.LVL66-1
 4102      00000000 
 4103 0c20 0100     		.word	0x1
 4104 0c22 59       		.byte	0x59
 4105 0c23 00000000 		.quad	0
 4105      00000000 
 4106 0c2b 00000000 		.quad	0
 4106      00000000 
 4107              	.LLST46:
 4108 0c33 79000000 		.quad	.LVL54
 4108      00000000 
 4109 0c3b FB010000 		.quad	.LVL71
 4109      00000000 
 4110 0c43 0100     		.word	0x1
 4111 0c45 55       		.byte	0x55
 4112 0c46 FB010000 		.quad	.LVL71
 4112      00000000 
 4113 0c4e FF010000 		.quad	.LFE3010
 4113      00000000 
 4114 0c56 0A00     		.word	0xa
 4115 0c58 03       		.byte	0x3
 4116 0c59 00700000 		.quad	_ZZ4mainE4data+28672
 4116      00000000 
 4117 0c61 9F       		.byte	0x9f
 4118 0c62 00000000 		.quad	0
 4118      00000000 
 4119 0c6a 00000000 		.quad	0
 4119      00000000 
 4120              	.LLST47:
 4121 0c72 89000000 		.quad	.LVL55
 4121      00000000 
 4122 0c7a 9E000000 		.quad	.LVL56
 4122      00000000 
 4123 0c82 0200     		.word	0x2
 4124 0c84 30       		.byte	0x30
 4125 0c85 9F       		.byte	0x9f
 4126 0c86 00000000 		.quad	0
 4126      00000000 
 4127 0c8e 00000000 		.quad	0
 4127      00000000 
 4128              	.LLST49:
 4129 0c96 64010000 		.quad	.LVL65
 4129      00000000 
 4130 0c9e F9010000 		.quad	.LVL70
 4130      00000000 
 4131 0ca6 0100     		.word	0x1
 4132 0ca8 53       		.byte	0x53
 4133 0ca9 F9010000 		.quad	.LVL70
 4133      00000000 
 4134 0cb1 FF010000 		.quad	.LFE3010
 4134      00000000 
 4135 0cb9 0400     		.word	0x4
 4136 0cbb 91       		.byte	0x91
 4137 0cbc A07F     		.sleb128 -96
 4138 0cbe 9F       		.byte	0x9f
 4139 0cbf 00000000 		.quad	0
 4139      00000000 
 4140 0cc7 00000000 		.quad	0
 4140      00000000 
 4141              	.LLST50:
 4142 0ccf 6A010000 		.quad	.LVL66
 4142      00000000 
 4143 0cd7 F9010000 		.quad	.LVL70
 4143      00000000 
 4144 0cdf 0100     		.word	0x1
 4145 0ce1 53       		.byte	0x53
 4146 0ce2 F9010000 		.quad	.LVL70
 4146      00000000 
 4147 0cea FF010000 		.quad	.LFE3010
 4147      00000000 
 4148 0cf2 0400     		.word	0x4
 4149 0cf4 91       		.byte	0x91
 4150 0cf5 A07F     		.sleb128 -96
 4151 0cf7 9F       		.byte	0x9f
 4152 0cf8 00000000 		.quad	0
 4152      00000000 
 4153 0d00 00000000 		.quad	0
 4153      00000000 
 4154              		.section	.debug_aranges,"dr"
 4155 0000 3C000000 		.long	0x3c
 4156 0004 0200     		.word	0x2
 4157 0006 00000000 		.secrel32	.Ldebug_info0
 4158 000a 08       		.byte	0x8
 4159 000b 00       		.byte	0
 4160 000c 0000     		.word	0
 4161 000e 0000     		.word	0
 4162 0010 00000000 		.quad	.Ltext0
 4162      00000000 
 4163 0018 DC020000 		.quad	.Letext0-.Ltext0
 4163      00000000 
 4164 0020 00000000 		.quad	.LFB3010
 4164      00000000 
 4165 0028 FF010000 		.quad	.LFE3010-.LFB3010
 4165      00000000 
 4166 0030 00000000 		.quad	0
 4166      00000000 
 4167 0038 00000000 		.quad	0
 4167      00000000 
 4168              		.section	.debug_ranges,"dr"
 4169              	.Ldebug_ranges0:
 4170 0000 15000000 		.quad	.LBB41
 4170      00000000 
 4171 0008 19000000 		.quad	.LBE41
 4171      00000000 
 4172 0010 1F000000 		.quad	.LBB54
 4172      00000000 
 4173 0018 35010000 		.quad	.LBE54
 4173      00000000 
 4174 0020 50010000 		.quad	.LBB55
 4174      00000000 
 4175 0028 0A020000 		.quad	.LBE55
 4175      00000000 
 4176 0030 00000000 		.quad	0
 4176      00000000 
 4177 0038 00000000 		.quad	0
 4177      00000000 
 4178 0040 49000000 		.quad	.LBB42
 4178      00000000 
 4179 0048 23010000 		.quad	.LBE42
 4179      00000000 
 4180 0050 50010000 		.quad	.LBB53
 4180      00000000 
 4181 0058 03020000 		.quad	.LBE53
 4181      00000000 
 4182 0060 00000000 		.quad	0
 4182      00000000 
 4183 0068 00000000 		.quad	0
 4183      00000000 
 4184 0070 49000000 		.quad	.LBB43
 4184      00000000 
 4185 0078 02010000 		.quad	.LBE43
 4185      00000000 
 4186 0080 50010000 		.quad	.LBB52
 4186      00000000 
 4187 0088 03020000 		.quad	.LBE52
 4187      00000000 
 4188 0090 00000000 		.quad	0
 4188      00000000 
 4189 0098 00000000 		.quad	0
 4189      00000000 
 4190 00a0 A6000000 		.quad	.LBB45
 4190      00000000 
 4191 00a8 02010000 		.quad	.LBE45
 4191      00000000 
 4192 00b0 E0010000 		.quad	.LBB50
 4192      00000000 
 4193 00b8 FB010000 		.quad	.LBE50
 4193      00000000 
 4194 00c0 00000000 		.quad	0
 4194      00000000 
 4195 00c8 00000000 		.quad	0
 4195      00000000 
 4196 00d0 16000000 		.quad	.LBB93
 4196      00000000 
 4197 00d8 20000000 		.quad	.LBE93
 4197      00000000 
 4198 00e0 25000000 		.quad	.LBB142
 4198      00000000 
 4199 00e8 ED010000 		.quad	.LBE142
 4199      00000000 
 4200 00f0 00000000 		.quad	0
 4200      00000000 
 4201 00f8 00000000 		.quad	0
 4201      00000000 
 4202 0100 16000000 		.quad	.LBB94
 4202      00000000 
 4203 0108 20000000 		.quad	.LBE94
 4203      00000000 
 4204 0110 5C000000 		.quad	.LBB112
 4204      00000000 
 4205 0118 5F000000 		.quad	.LBE112
 4205      00000000 
 4206 0120 69000000 		.quad	.LBB114
 4206      00000000 
 4207 0128 72000000 		.quad	.LBE114
 4207      00000000 
 4208 0130 9A000000 		.quad	.LBB134
 4208      00000000 
 4209 0138 9E000000 		.quad	.LBE134
 4209      00000000 
 4210 0140 00000000 		.quad	0
 4210      00000000 
 4211 0148 00000000 		.quad	0
 4211      00000000 
 4212 0150 25000000 		.quad	.LBB99
 4212      00000000 
 4213 0158 2A000000 		.quad	.LBE99
 4213      00000000 
 4214 0160 3B000000 		.quad	.LBB111
 4214      00000000 
 4215 0168 5C000000 		.quad	.LBE111
 4215      00000000 
 4216 0170 5F000000 		.quad	.LBB113
 4216      00000000 
 4217 0178 69000000 		.quad	.LBE113
 4217      00000000 
 4218 0180 00000000 		.quad	0
 4218      00000000 
 4219 0188 00000000 		.quad	0
 4219      00000000 
 4220 0190 45000000 		.quad	.LBB101
 4220      00000000 
 4221 0198 5C000000 		.quad	.LBE101
 4221      00000000 
 4222 01a0 5F000000 		.quad	.LBB108
 4222      00000000 
 4223 01a8 64000000 		.quad	.LBE108
 4223      00000000 
 4224 01b0 00000000 		.quad	0
 4224      00000000 
 4225 01b8 00000000 		.quad	0
 4225      00000000 
 4226 01c0 72000000 		.quad	.LBB115
 4226      00000000 
 4227 01c8 9A000000 		.quad	.LBE115
 4227      00000000 
 4228 01d0 9E000000 		.quad	.LBB135
 4228      00000000 
 4229 01d8 64010000 		.quad	.LBE135
 4229      00000000 
 4230 01e0 00000000 		.quad	0
 4230      00000000 
 4231 01e8 00000000 		.quad	0
 4231      00000000 
 4232 01f0 72000000 		.quad	.LBB116
 4232      00000000 
 4233 01f8 9A000000 		.quad	.LBE116
 4233      00000000 
 4234 0200 9E000000 		.quad	.LBB133
 4234      00000000 
 4235 0208 53010000 		.quad	.LBE133
 4235      00000000 
 4236 0210 00000000 		.quad	0
 4236      00000000 
 4237 0218 00000000 		.quad	0
 4237      00000000 
 4238 0220 79000000 		.quad	.LBB117
 4238      00000000 
 4239 0228 9A000000 		.quad	.LBE117
 4239      00000000 
 4240 0230 9E000000 		.quad	.LBB132
 4240      00000000 
 4241 0238 4D010000 		.quad	.LBE132
 4241      00000000 
 4242 0240 00000000 		.quad	0
 4242      00000000 
 4243 0248 00000000 		.quad	0
 4243      00000000 
 4244 0250 7F000000 		.quad	.LBB120
 4244      00000000 
 4245 0258 82000000 		.quad	.LBE120
 4245      00000000 
 4246 0260 9E000000 		.quad	.LBB129
 4246      00000000 
 4247 0268 40010000 		.quad	.LBE129
 4247      00000000 
 4248 0270 00000000 		.quad	0
 4248      00000000 
 4249 0278 00000000 		.quad	0
 4249      00000000 
 4250 0280 9E000000 		.quad	.LBB121
 4250      00000000 
 4251 0288 06010000 		.quad	.LBE121
 4251      00000000 
 4252 0290 2A010000 		.quad	.LBB128
 4252      00000000 
 4253 0298 2E010000 		.quad	.LBE128
 4253      00000000 
 4254 02a0 00000000 		.quad	0
 4254      00000000 
 4255 02a8 00000000 		.quad	0
 4255      00000000 
 4256 02b0 6A010000 		.quad	.LBB138
 4256      00000000 
 4257 02b8 7C010000 		.quad	.LBE138
 4257      00000000 
 4258 02c0 83010000 		.quad	.LBB141
 4258      00000000 
 4259 02c8 A4010000 		.quad	.LBE141
 4259      00000000 
 4260 02d0 00000000 		.quad	0
 4260      00000000 
 4261 02d8 00000000 		.quad	0
 4261      00000000 
 4262 02e0 00000000 		.quad	.Ltext0
 4262      00000000 
 4263 02e8 DC020000 		.quad	.Letext0
 4263      00000000 
 4264 02f0 00000000 		.quad	.LFB3010
 4264      00000000 
 4265 02f8 FF010000 		.quad	.LFE3010
 4265      00000000 
 4266 0300 00000000 		.quad	0
 4266      00000000 
 4267 0308 00000000 		.quad	0
 4267      00000000 
 4268              		.section	.debug_line,"dr"
 4269              	.Ldebug_line0:
 4270 0000 C4010000 		.section	.debug_str,"dr"
 4270      0200B100 
 4270      00000101 
 4270      FB0E0D00 
 4270      01010101 
 4271              	.LASF4:
 4272 0000 66617273 		.ascii "farsh_key\0"
 4272      685F6B65 
 4272      7900
 4273              	.LASF1:
 4274 000a 64617461 		.ascii "data_ptr\0"
 4274      5F707472 
 4274      00
 4275              	.LASF0:
 4276 0013 48696768 		.ascii "HighPart\0"
 4276      50617274 
 4276      00
 4277              	.LASF3:
 4278 001c 656C656D 		.ascii "elements\0"
 4278      656E7473 
 4278      00
 4279              	.LASF2:
 4280 0025 62797465 		.ascii "bytes\0"
 4280      7300
 4281              		.ident	"GCC: (i686-posix-sjlj-rev2, Built by MinGW-W64 project) 4.9.2"
DEFINED SYMBOLS
                            *ABS*:0000000000000000 main.cpp
  M:\Temp\ccghJ3D2.s:9      .text:0000000000000000 _Z11farsh_keyedPKvyPKj
  M:\Temp\ccghJ3D2.s:319    .text:0000000000000210 _Z13farsh_keyed_nPKvyPKjiPj
  M:\Temp\ccghJ3D2.s:412    .text:0000000000000270 _Z7farsh_nPKvyiPj
  M:\Temp\ccghJ3D2.s:871    .rdata:0000000000000080 _ZL9farsh_key
  M:\Temp\ccghJ3D2.s:506    .text:00000000000002d0 _Z5farshPKvy
  M:\Temp\ccghJ3D2.s:533    .text.startup:0000000000000000 main
  M:\Temp\ccghJ3D2.s:868    .bss:0000000000000000 _ZZ4mainE4data

UNDEFINED SYMBOLS
__main
__imp_QueryPerformanceFrequency
__imp_QueryPerformanceCounter
memcpy
printf
