   1              		.file	"main.cpp"
   2              		.text
   3              		.p2align 4,,15
   4              		.globl	__Z11farsh_keyedPKvjS0_
   6              	__Z11farsh_keyedPKvjS0_:
   7 0000 55       		pushl	%ebp
   8 0001 57       		pushl	%edi
   9 0002 56       		pushl	%esi
  10 0003 53       		pushl	%ebx
  11 0004 83EC5C   		subl	$92, %esp
  12 0007 8B6C2470 		movl	112(%esp), %ebp
  13 000b 8B442474 		movl	116(%esp), %eax
  14 000f 8D7C0500 		leal	0(%ebp,%eax), %edi
  15 0013 39FD     		cmpl	%edi, %ebp
  16 0015 897C2424 		movl	%edi, 36(%esp)
  17 0019 0F838004 		jae	L18
  17      0000
  18 001f 3D000400 		cmpl	$1024, %eax
  18      00
  19 0024 BA000400 		movl	$1024, %edx
  19      00
  20 0029 8D7C2448 		leal	72(%esp), %edi
  21 002d 0F46D0   		cmovbe	%eax, %edx
  22 0030 B8000000 		movl	$0, %eax
  22      00
  23 0035 C7442438 		movl	$0, 56(%esp)
  23      00000000 
  24 003d 89D1     		movl	%edx, %ecx
  25 003f 89D6     		movl	%edx, %esi
  26 0041 89542414 		movl	%edx, 20(%esp)
  27 0045 C1E902   		shrl	$2, %ecx
  28 0048 C7442410 		movl	$0, 16(%esp)
  28      00000000 
  29 0050 C7442418 		movl	$0, 24(%esp)
  29      00000000 
  30 0058 83E1FE   		andl	$-2, %ecx
  31 005b C744241C 		movl	$0, 28(%esp)
  31      00000000 
  32 0063 894C240C 		movl	%ecx, 12(%esp)
  33 0067 C1E102   		sall	$2, %ecx
  34 006a 29CE     		subl	%ecx, %esi
  35 006c 894C242C 		movl	%ecx, 44(%esp)
  36 0070 89F5     		movl	%esi, %ebp
  37 0072 89F2     		movl	%esi, %edx
  38 0074 89F3     		movl	%esi, %ebx
  39 0076 0F45C7   		cmovne	%edi, %eax
  40 0079 83E502   		andl	$2, %ebp
  41 007c 83E201   		andl	$1, %edx
  42 007f C1EB02   		shrl	$2, %ebx
  43 0082 89742420 		movl	%esi, 32(%esp)
  44 0086 89442434 		movl	%eax, 52(%esp)
  45 008a 896C2430 		movl	%ebp, 48(%esp)
  46 008e 89542428 		movl	%edx, 40(%esp)
  47 0092 895C243C 		movl	%ebx, 60(%esp)
  48 0096 8D76008D 		.p2align 4,,10
  48      BC270000 
  48      0000
  49              	L15:
  50 00a0 817C2414 		cmpl	$1024, 20(%esp)
  50      00040000 
  51 00a8 0F84A202 		je	L60
  51      0000
  52 00ae 8B6C2470 		movl	112(%esp), %ebp
  53 00b2 8B74242C 		movl	44(%esp), %esi
  54 00b6 8D7C2448 		leal	72(%esp), %edi
  55 00ba C7442448 		movl	$0, 72(%esp)
  55      00000000 
  56 00c2 C744244C 		movl	$0, 76(%esp)
  56      00000000 
  57 00ca 01EE     		addl	%ebp, %esi
  58 00cc 837C2420 		cmpl	$4, 32(%esp)
  58      04
  59 00d1 7206     		jb	L6
  60 00d3 8B4C243C 		movl	60(%esp), %ecx
  61 00d7 F3A5     		rep movsl
  62              	L6:
  63 00d9 8B542430 		movl	48(%esp), %edx
  64 00dd 31ED     		xorl	%ebp, %ebp
  65 00df 85D2     		testl	%edx, %edx
  66 00e1 740B     		je	L7
  67 00e3 0FB706   		movzwl	(%esi), %eax
  68 00e6 BD020000 		movl	$2, %ebp
  68      00
  69 00eb 668907   		movw	%ax, (%edi)
  70              	L7:
  71 00ee 8B5C2428 		movl	40(%esp), %ebx
  72 00f2 85DB     		testl	%ebx, %ebx
  73 00f4 7407     		je	L8
  74 00f6 0FB60C2E 		movzbl	(%esi,%ebp), %ecx
  75 00fa 880C2F   		movb	%cl, (%edi,%ebp)
  76              	L8:
  77 00fd 8B7C2420 		movl	32(%esp), %edi
  78 0101 85FF     		testl	%edi, %edi
  79 0103 0F84F701 		je	L61
  79      0000
  80 0109 8B74240C 		movl	12(%esp), %esi
  81 010d 85F6     		testl	%esi, %esi
  82 010f 0F846B03 		je	L62
  82      0000
  83              	L16:
  84 0115 8B442470 		movl	112(%esp), %eax
  85 0119 8B74240C 		movl	12(%esp), %esi
  86 011d 8B18     		movl	(%eax), %ebx
  87 011f 8B442478 		movl	120(%esp), %eax
  88 0123 8D4EFF   		leal	-1(%esi), %ecx
  89 0126 D1E9     		shrl	%ecx
  90 0128 0318     		addl	(%eax), %ebx
  91 012a 8B442470 		movl	112(%esp), %eax
  92 012e 83E103   		andl	$3, %ecx
  93 0131 8B5004   		movl	4(%eax), %edx
  94 0134 8B442478 		movl	120(%esp), %eax
  95 0138 8B7804   		movl	4(%eax), %edi
  96 013b 01D7     		addl	%edx, %edi
  97 013d 89F8     		movl	%edi, %eax
  98 013f BF020000 		movl	$2, %edi
  98      00
  99 0144 F7E3     		mull	%ebx
 100 0146 83FE02   		cmpl	$2, %esi
 101 0149 890424   		movl	%eax, (%esp)
 102 014c 8B442470 		movl	112(%esp), %eax
 103 0150 89542404 		movl	%edx, 4(%esp)
 104 0154 8D5808   		leal	8(%eax), %ebx
 105 0157 8B442478 		movl	120(%esp), %eax
 106 015b 8D6808   		leal	8(%eax), %ebp
 107 015e 0F86F800 		jbe	L53
 107      0000
 108 0164 85C9     		testl	%ecx, %ecx
 109 0166 7477     		je	L56
 110 0168 83F901   		cmpl	$1, %ecx
 111 016b 744F     		je	L45
 112 016d 83F902   		cmpl	$2, %ecx
 113 0170 742D     		je	L46
 114 0172 8B4C2478 		movl	120(%esp), %ecx
 115 0176 8B03     		movl	(%ebx), %eax
 116 0178 BF040000 		movl	$4, %edi
 116      00
 117 017d 034108   		addl	8(%ecx), %eax
 118 0180 89C2     		movl	%eax, %edx
 119 0182 8B4304   		movl	4(%ebx), %eax
 120 0185 034504   		addl	4(%ebp), %eax
 121 0188 8B6C2470 		movl	112(%esp), %ebp
 122 018c F7E2     		mull	%edx
 123 018e 010424   		addl	%eax, (%esp)
 124 0191 8D5D10   		leal	16(%ebp), %ebx
 125 0194 11542404 		adcl	%edx, 4(%esp)
 126 0198 8B542478 		movl	120(%esp), %edx
 127 019c 8D6A10   		leal	16(%edx), %ebp
 128              	L46:
 129 019f 8B03     		movl	(%ebx), %eax
 130 01a1 8B5304   		movl	4(%ebx), %edx
 131 01a4 034500   		addl	0(%ebp), %eax
 132 01a7 035504   		addl	4(%ebp), %edx
 133 01aa F7E2     		mull	%edx
 134 01ac 010424   		addl	%eax, (%esp)
 135 01af 11542404 		adcl	%edx, 4(%esp)
 136 01b3 83C702   		addl	$2, %edi
 137 01b6 83C308   		addl	$8, %ebx
 138 01b9 83C508   		addl	$8, %ebp
 139              	L45:
 140 01bc 8B03     		movl	(%ebx), %eax
 141 01be 8B5304   		movl	4(%ebx), %edx
 142 01c1 034500   		addl	0(%ebp), %eax
 143 01c4 035504   		addl	4(%ebp), %edx
 144 01c7 F7E2     		mull	%edx
 145 01c9 010424   		addl	%eax, (%esp)
 146 01cc 11542404 		adcl	%edx, 4(%esp)
 147 01d0 83C702   		addl	$2, %edi
 148 01d3 83C308   		addl	$8, %ebx
 149 01d6 83C508   		addl	$8, %ebp
 150 01d9 397C240C 		cmpl	%edi, 12(%esp)
 151 01dd 767D     		jbe	L53
 152              	L56:
 153 01df 897C2408 		movl	%edi, 8(%esp)
 154 01e3 8B3424   		movl	(%esp), %esi
 155 01e6 8B7C2404 		movl	4(%esp), %edi
 156              	L11:
 157 01ea 8B03     		movl	(%ebx), %eax
 158 01ec 034500   		addl	0(%ebp), %eax
 159 01ef 8B4D08   		movl	8(%ebp), %ecx
 160 01f2 89C2     		movl	%eax, %edx
 161 01f4 8B4304   		movl	4(%ebx), %eax
 162 01f7 034504   		addl	4(%ebp), %eax
 163 01fa F7E2     		mull	%edx
 164 01fc 01C6     		addl	%eax, %esi
 165 01fe 11D7     		adcl	%edx, %edi
 166 0200 8B5308   		movl	8(%ebx), %edx
 167 0203 01D1     		addl	%edx, %ecx
 168 0205 8B530C   		movl	12(%ebx), %edx
 169 0208 03550C   		addl	12(%ebp), %edx
 170 020b 89D0     		movl	%edx, %eax
 171 020d 891424   		movl	%edx, (%esp)
 172 0210 F7E1     		mull	%ecx
 173 0212 01C6     		addl	%eax, %esi
 174 0214 8B4310   		movl	16(%ebx), %eax
 175 0217 11D7     		adcl	%edx, %edi
 176 0219 034510   		addl	16(%ebp), %eax
 177 021c 89C2     		movl	%eax, %edx
 178 021e 8B4314   		movl	20(%ebx), %eax
 179 0221 034514   		addl	20(%ebp), %eax
 180 0224 F7E2     		mull	%edx
 181 0226 01C6     		addl	%eax, %esi
 182 0228 8B4318   		movl	24(%ebx), %eax
 183 022b 11D7     		adcl	%edx, %edi
 184 022d 034518   		addl	24(%ebp), %eax
 185 0230 89C2     		movl	%eax, %edx
 186 0232 8B431C   		movl	28(%ebx), %eax
 187 0235 03451C   		addl	28(%ebp), %eax
 188 0238 F7E2     		mull	%edx
 189 023a 01C6     		addl	%eax, %esi
 190 023c 11D7     		adcl	%edx, %edi
 191 023e 83442408 		addl	$8, 8(%esp)
 191      08
 192 0243 83C320   		addl	$32, %ebx
 193 0246 8B442408 		movl	8(%esp), %eax
 194 024a 83C520   		addl	$32, %ebp
 195 024d 3944240C 		cmpl	%eax, 12(%esp)
 196 0251 7797     		ja	L11
 197 0253 897C2404 		movl	%edi, 4(%esp)
 198 0257 893424   		movl	%esi, (%esp)
 199 025a 89C7     		movl	%eax, %edi
 200              	L53:
 201 025c 8B542434 		movl	52(%esp), %edx
 202 0260 8B5C2404 		movl	4(%esp), %ebx
 203 0264 8D0CBD00 		leal	0(,%edi,4), %ecx
 203      000000
 204 026b 8B3424   		movl	(%esp), %esi
 205 026e 8D7904   		leal	4(%ecx), %edi
 206 0271 85D2     		testl	%edx, %edx
 207 0273 89DD     		movl	%ebx, %ebp
 208 0275 89D3     		movl	%edx, %ebx
 209 0277 89F0     		movl	%esi, %eax
 210 0279 0F84F501 		je	L63
 210      0000
 211              	L17:
 212 027f 8B442478 		movl	120(%esp), %eax
 213 0283 8B13     		movl	(%ebx), %edx
 214 0285 031408   		addl	(%eax,%ecx), %edx
 215 0288 89D1     		movl	%edx, %ecx
 216 028a 8B5304   		movl	4(%ebx), %edx
 217 028d 031438   		addl	(%eax,%edi), %edx
 218 0290 8B5C2404 		movl	4(%esp), %ebx
 219 0294 89D0     		movl	%edx, %eax
 220 0296 F7E1     		mull	%ecx
 221 0298 8B0C24   		movl	(%esp), %ecx
 222 029b 01C1     		addl	%eax, %ecx
 223 029d 11D3     		adcl	%edx, %ebx
 224 029f 31FF     		xorl	%edi, %edi
 225 02a1 8D140B   		leal	(%ebx,%ecx), %edx
 226 02a4 89D6     		movl	%edx, %esi
 227              	L5:
 228 02a6 8B5C2410 		movl	16(%esp), %ebx
 229 02aa 8B542478 		movl	120(%esp), %edx
 230 02ae 89F9     		movl	%edi, %ecx
 231 02b0 8B442414 		movl	20(%esp), %eax
 232 02b4 01442470 		addl	%eax, 112(%esp)
 233 02b8 03049A   		addl	(%edx,%ebx,4), %eax
 234 02bb 0FAFC8   		imull	%eax, %ecx
 235 02be F7E6     		mull	%esi
 236 02c0 01CA     		addl	%ecx, %edx
 237 02c2 01442418 		addl	%eax, 24(%esp)
 238 02c6 89D9     		movl	%ebx, %ecx
 239 02c8 1154241C 		adcl	%edx, 28(%esp)
 240 02cc 83C101   		addl	$1, %ecx
 241 02cf 81F90001 		cmpl	$256, %ecx
 241      0000
 242 02d5 894C2410 		movl	%ecx, 16(%esp)
 243 02d9 7437     		je	L64
 244              	L14:
 245 02db 8B442424 		movl	36(%esp), %eax
 246 02df 3B442470 		cmpl	112(%esp), %eax
 247 02e3 0F87B7FD 		ja	L15
 247      FFFF
 248 02e9 8B6C241C 		movl	28(%esp), %ebp
 249 02ed 8B542418 		movl	24(%esp), %edx
 250 02f1 83C45C   		addl	$92, %esp
 251 02f4 5B       		popl	%ebx
 252 02f5 5E       		popl	%esi
 253 02f6 89E8     		movl	%ebp, %eax
 254 02f8 01D0     		addl	%edx, %eax
 255 02fa 5F       		popl	%edi
 256 02fb 5D       		popl	%ebp
 257 02fc C3       		ret
 258 02fd 8D7600   		.p2align 4,,10
 259              	L61:
 260 0300 8B54240C 		movl	12(%esp), %edx
 261 0304 31F6     		xorl	%esi, %esi
 262 0306 31FF     		xorl	%edi, %edi
 263 0308 85D2     		testl	%edx, %edx
 264 030a 0F8505FE 		jne	L16
 264      FFFF
 265 0310 EB94     		jmp	L5
 266              		.p2align 4,,10
 267              	L64:
 268 0312 8B6C241C 		movl	28(%esp), %ebp
 269 0316 8B7C2418 		movl	24(%esp), %edi
 270 031a 8B742478 		movl	120(%esp), %esi
 271 031e C7442410 		movl	$0, 16(%esp)
 271      00000000 
 272 0326 89E8     		movl	%ebp, %eax
 273 0328 01F8     		addl	%edi, %eax
 274 032a 8B7C2438 		movl	56(%esp), %edi
 275 032e F724BE   		mull	(%esi,%edi,4)
 276 0331 01442418 		addl	%eax, 24(%esp)
 277 0335 B8000000 		movl	$0, %eax
 277      00
 278 033a 1154241C 		adcl	%edx, 28(%esp)
 279 033e 83C701   		addl	$1, %edi
 280 0341 81FF0001 		cmpl	$256, %edi
 280      0000
 281 0347 0F45C7   		cmovne	%edi, %eax
 282 034a 89442438 		movl	%eax, 56(%esp)
 283 034e EB8B     		jmp	L14
 284              		.p2align 4,,10
 285              	L60:
 286 0350 660FEFC0 		pxor	%xmm0, %xmm0
 287 0354 8B742470 		movl	112(%esp), %esi
 288 0358 8B4C2478 		movl	120(%esp), %ecx
 289 035c 31FF     		xorl	%edi, %edi
 290 035e 6690     		.p2align 4,,10
 291              	L4:
 292 0360 F30F6F0C 		movdqu	(%ecx,%edi), %xmm1
 292      39
 293 0365 F30F6F1C 		movdqu	(%esi,%edi), %xmm3
 293      3E
 294 036a 660FFED9 		paddd	%xmm1, %xmm3
 295 036e 660F70D3 		pshufd	$49, %xmm3, %xmm2
 295      31
 296 0373 F30F6F6C 		movdqu	16(%ecx,%edi), %xmm5
 296      3910
 297 0379 660FF4DA 		pmuludq	%xmm2, %xmm3
 298 037d F30F6F7C 		movdqu	32(%esi,%edi), %xmm7
 298      3E20
 299 0383 660FD4C3 		paddq	%xmm3, %xmm0
 300 0387 F30F6F64 		movdqu	16(%esi,%edi), %xmm4
 300      3E10
 301 038d F30F6F5C 		movdqu	32(%ecx,%edi), %xmm3
 301      3920
 302 0393 660FFEE5 		paddd	%xmm5, %xmm4
 303 0397 660F70F4 		pshufd	$49, %xmm4, %xmm6
 303      31
 304 039c 660FFEDF 		paddd	%xmm7, %xmm3
 305 03a0 660F70CB 		pshufd	$49, %xmm3, %xmm1
 305      31
 306 03a5 F30F6F54 		movdqu	48(%esi,%edi), %xmm2
 306      3E30
 307 03ab 660FF4E6 		pmuludq	%xmm6, %xmm4
 308 03af F30F6F6C 		movdqu	64(%esi,%edi), %xmm5
 308      3E40
 309 03b5 660FD4C4 		paddq	%xmm4, %xmm0
 310 03b9 660FF4D9 		pmuludq	%xmm1, %xmm3
 311 03bd 660FD4D8 		paddq	%xmm0, %xmm3
 312 03c1 F30F6F74 		movdqu	64(%ecx,%edi), %xmm6
 312      3940
 313 03c7 F30F6F44 		movdqu	48(%ecx,%edi), %xmm0
 313      3930
 314 03cd 660FFEF5 		paddd	%xmm5, %xmm6
 315 03d1 660F70FE 		pshufd	$49, %xmm6, %xmm7
 315      31
 316 03d6 660FFEC2 		paddd	%xmm2, %xmm0
 317 03da 660F70E0 		pshufd	$49, %xmm0, %xmm4
 317      31
 318 03df F30F6F54 		movdqu	96(%esi,%edi), %xmm2
 318      3E60
 319 03e5 660FF4F7 		pmuludq	%xmm7, %xmm6
 320 03e9 660FF4C4 		pmuludq	%xmm4, %xmm0
 321 03ed F30F6F64 		movdqu	96(%ecx,%edi), %xmm4
 321      3960
 322 03f3 660FD4C3 		paddq	%xmm3, %xmm0
 323 03f7 660FD4F0 		paddq	%xmm0, %xmm6
 324 03fb F30F6F5C 		movdqu	80(%esi,%edi), %xmm3
 324      3E50
 325 0401 660FFEE2 		paddd	%xmm2, %xmm4
 326 0405 660F70EC 		pshufd	$49, %xmm4, %xmm5
 326      31
 327 040a F30F6F44 		movdqu	80(%ecx,%edi), %xmm0
 327      3950
 328 0410 660FFEC3 		paddd	%xmm3, %xmm0
 329 0414 660F70C8 		pshufd	$49, %xmm0, %xmm1
 329      31
 330 0419 660FF4E5 		pmuludq	%xmm5, %xmm4
 331 041d 660FF4C1 		pmuludq	%xmm1, %xmm0
 332 0421 660FD4C6 		paddq	%xmm6, %xmm0
 333 0425 F30F6F74 		movdqu	112(%esi,%edi), %xmm6
 333      3E70
 334 042b 660FD4E0 		paddq	%xmm0, %xmm4
 335 042f F30F6F44 		movdqu	112(%ecx,%edi), %xmm0
 335      3970
 336 0435 83EF80   		subl	$-128, %edi
 337 0438 81FF0004 		cmpl	$1024, %edi
 337      0000
 338 043e 660FFEC6 		paddd	%xmm6, %xmm0
 339 0442 660F70F8 		pshufd	$49, %xmm0, %xmm7
 339      31
 340 0447 660FF4C7 		pmuludq	%xmm7, %xmm0
 341 044b 660FD4C4 		paddq	%xmm4, %xmm0
 342 044f 0F850BFF 		jne	L4
 342      FFFF
 343 0455 660F70D8 		pshufd	$14, %xmm0, %xmm3
 343      0E
 344 045a 31FF     		xorl	%edi, %edi
 345 045c 660FD4C3 		paddq	%xmm3, %xmm0
 346 0460 660F70C8 		pshufd	$1, %xmm0, %xmm1
 346      01
 347 0465 660FFEC1 		paddd	%xmm1, %xmm0
 348 0469 660F7EC3 		movd	%xmm0, %ebx
 349 046d 89DE     		movl	%ebx, %esi
 350 046f E932FEFF 		jmp	L5
 350      FF
 351              		.p2align 4,,10
 352              	L63:
 353 0474 01E8     		addl	%ebp, %eax
 354 0476 31FF     		xorl	%edi, %edi
 355 0478 89C6     		movl	%eax, %esi
 356 047a E927FEFF 		jmp	L5
 356      FF
 357 047f 90       		.p2align 4,,10
 358              	L62:
 359 0480 BF040000 		movl	$4, %edi
 359      00
 360 0485 31C9     		xorl	%ecx, %ecx
 361 0487 C7042400 		movl	$0, (%esp)
 361      000000
 362 048e C7442404 		movl	$0, 4(%esp)
 362      00000000 
 363 0496 8D5C2448 		leal	72(%esp), %ebx
 364 049a E9E0FDFF 		jmp	L17
 364      FF
 365              	L18:
 366 049f 83C45C   		addl	$92, %esp
 367 04a2 31C0     		xorl	%eax, %eax
 368 04a4 5B       		popl	%ebx
 369 04a5 5E       		popl	%esi
 370 04a6 5F       		popl	%edi
 371 04a7 5D       		popl	%ebp
 372 04a8 C3       		ret
 373 04a9 8DB42600 		.p2align 4,,15
 373      000000
 374              		.globl	__Z13farsh_keyed_nPKvjS0_iPv
 376              	__Z13farsh_keyed_nPKvjS0_iPv:
 377 04b0 55       		pushl	%ebp
 378 04b1 57       		pushl	%edi
 379 04b2 56       		pushl	%esi
 380 04b3 53       		pushl	%ebx
 381 04b4 83EC2C   		subl	$44, %esp
 382 04b7 8B44244C 		movl	76(%esp), %eax
 383 04bb 8B7C2440 		movl	64(%esp), %edi
 384 04bf 8B6C2444 		movl	68(%esp), %ebp
 385 04c3 85C0     		testl	%eax, %eax
 386 04c5 0F8E7902 		jle	L65
 386      0000
 387 04cb 8B54244C 		movl	76(%esp), %edx
 388 04cf 8B5C2448 		movl	72(%esp), %ebx
 389 04d3 896C2404 		movl	%ebp, 4(%esp)
 390 04d7 893C24   		movl	%edi, (%esp)
 391 04da 8D4AFF   		leal	-1(%edx), %ecx
 392 04dd 895C2408 		movl	%ebx, 8(%esp)
 393 04e1 BB010000 		movl	$1, %ebx
 393      00
 394 04e6 83E107   		andl	$7, %ecx
 395 04e9 894C241C 		movl	%ecx, 28(%esp)
 396 04ed E80EFBFF 		call	__Z11farsh_keyedPKvjS0_
 396      FF
 397 04f2 8B742450 		movl	80(%esp), %esi
 398 04f6 3B5C244C 		cmpl	76(%esp), %ebx
 399 04fa 8B54241C 		movl	28(%esp), %edx
 400 04fe 8906     		movl	%eax, (%esi)
 401 0500 8B442448 		movl	72(%esp), %eax
 402 0504 8D7004   		leal	4(%eax), %esi
 403 0507 0F843702 		je	L65
 403      0000
 404 050d 85D2     		testl	%edx, %edx
 405 050f 0F840501 		je	L69
 405      0000
 406 0515 83FA01   		cmpl	$1, %edx
 407 0518 0F84D500 		je	L95
 407      0000
 408 051e 83FA02   		cmpl	$2, %edx
 409 0521 0F84AF00 		je	L96
 409      0000
 410 0527 83FA03   		cmpl	$3, %edx
 411 052a 0F848900 		je	L97
 411      0000
 412 0530 83FA04   		cmpl	$4, %edx
 413 0533 7467     		je	L98
 414 0535 83FA05   		cmpl	$5, %edx
 415 0538 7445     		je	L99
 416 053a 83FA06   		cmpl	$6, %edx
 417 053d 7423     		je	L100
 418 053f 89742408 		movl	%esi, 8(%esp)
 419 0543 896C2404 		movl	%ebp, 4(%esp)
 420 0547 893C24   		movl	%edi, (%esp)
 421 054a E8B1FAFF 		call	__Z11farsh_keyedPKvjS0_
 421      FF
 422 054f 8B742448 		movl	72(%esp), %esi
 423 0553 8B4C2450 		movl	80(%esp), %ecx
 424 0557 8D7608   		leal	8(%esi), %esi
 425 055a 890499   		movl	%eax, (%ecx,%ebx,4)
 426 055d BB020000 		movl	$2, %ebx
 426      00
 427              	L100:
 428 0562 89742408 		movl	%esi, 8(%esp)
 429 0566 896C2404 		movl	%ebp, 4(%esp)
 430 056a 83C604   		addl	$4, %esi
 431 056d 893C24   		movl	%edi, (%esp)
 432 0570 E88BFAFF 		call	__Z11farsh_keyedPKvjS0_
 432      FF
 433 0575 8B542450 		movl	80(%esp), %edx
 434 0579 89049A   		movl	%eax, (%edx,%ebx,4)
 435 057c 83C301   		addl	$1, %ebx
 436              	L99:
 437 057f 89742408 		movl	%esi, 8(%esp)
 438 0583 896C2404 		movl	%ebp, 4(%esp)
 439 0587 83C604   		addl	$4, %esi
 440 058a 893C24   		movl	%edi, (%esp)
 441 058d E86EFAFF 		call	__Z11farsh_keyedPKvjS0_
 441      FF
 442 0592 8B4C2450 		movl	80(%esp), %ecx
 443 0596 890499   		movl	%eax, (%ecx,%ebx,4)
 444 0599 83C301   		addl	$1, %ebx
 445              	L98:
 446 059c 89742408 		movl	%esi, 8(%esp)
 447 05a0 896C2404 		movl	%ebp, 4(%esp)
 448 05a4 83C604   		addl	$4, %esi
 449 05a7 893C24   		movl	%edi, (%esp)
 450 05aa E851FAFF 		call	__Z11farsh_keyedPKvjS0_
 450      FF
 451 05af 8B542450 		movl	80(%esp), %edx
 452 05b3 89049A   		movl	%eax, (%edx,%ebx,4)
 453 05b6 83C301   		addl	$1, %ebx
 454              	L97:
 455 05b9 89742408 		movl	%esi, 8(%esp)
 456 05bd 896C2404 		movl	%ebp, 4(%esp)
 457 05c1 83C604   		addl	$4, %esi
 458 05c4 893C24   		movl	%edi, (%esp)
 459 05c7 E834FAFF 		call	__Z11farsh_keyedPKvjS0_
 459      FF
 460 05cc 8B4C2450 		movl	80(%esp), %ecx
 461 05d0 890499   		movl	%eax, (%ecx,%ebx,4)
 462 05d3 83C301   		addl	$1, %ebx
 463              	L96:
 464 05d6 89742408 		movl	%esi, 8(%esp)
 465 05da 896C2404 		movl	%ebp, 4(%esp)
 466 05de 83C604   		addl	$4, %esi
 467 05e1 893C24   		movl	%edi, (%esp)
 468 05e4 E817FAFF 		call	__Z11farsh_keyedPKvjS0_
 468      FF
 469 05e9 8B542450 		movl	80(%esp), %edx
 470 05ed 89049A   		movl	%eax, (%edx,%ebx,4)
 471 05f0 83C301   		addl	$1, %ebx
 472              	L95:
 473 05f3 89742408 		movl	%esi, 8(%esp)
 474 05f7 896C2404 		movl	%ebp, 4(%esp)
 475 05fb 83C604   		addl	$4, %esi
 476 05fe 893C24   		movl	%edi, (%esp)
 477 0601 E8FAF9FF 		call	__Z11farsh_keyedPKvjS0_
 477      FF
 478 0606 8B4C2450 		movl	80(%esp), %ecx
 479 060a 890499   		movl	%eax, (%ecx,%ebx,4)
 480 060d 83C301   		addl	$1, %ebx
 481 0610 3B5C244C 		cmpl	76(%esp), %ebx
 482 0614 0F842A01 		je	L65
 482      0000
 483              	L69:
 484 061a 89742408 		movl	%esi, 8(%esp)
 485 061e 896C2404 		movl	%ebp, 4(%esp)
 486 0622 893C24   		movl	%edi, (%esp)
 487 0625 E8D6F9FF 		call	__Z11farsh_keyedPKvjS0_
 487      FF
 488 062a 8B542450 		movl	80(%esp), %edx
 489 062e 8D4E04   		leal	4(%esi), %ecx
 490 0631 89049A   		movl	%eax, (%edx,%ebx,4)
 491 0634 8D4301   		leal	1(%ebx), %eax
 492 0637 894C2408 		movl	%ecx, 8(%esp)
 493 063b 896C2404 		movl	%ebp, 4(%esp)
 494 063f 893C24   		movl	%edi, (%esp)
 495 0642 8944241C 		movl	%eax, 28(%esp)
 496 0646 E8B5F9FF 		call	__Z11farsh_keyedPKvjS0_
 496      FF
 497 064b 8B54241C 		movl	28(%esp), %edx
 498 064f 8B4C2450 		movl	80(%esp), %ecx
 499 0653 890491   		movl	%eax, (%ecx,%edx,4)
 500 0656 8D4E08   		leal	8(%esi), %ecx
 501 0659 8D4302   		leal	2(%ebx), %eax
 502 065c 896C2404 		movl	%ebp, 4(%esp)
 503 0660 893C24   		movl	%edi, (%esp)
 504 0663 894C2408 		movl	%ecx, 8(%esp)
 505 0667 8944241C 		movl	%eax, 28(%esp)
 506 066b E890F9FF 		call	__Z11farsh_keyedPKvjS0_
 506      FF
 507 0670 8B54241C 		movl	28(%esp), %edx
 508 0674 8B4C2450 		movl	80(%esp), %ecx
 509 0678 890491   		movl	%eax, (%ecx,%edx,4)
 510 067b 8D4E0C   		leal	12(%esi), %ecx
 511 067e 8D4303   		leal	3(%ebx), %eax
 512 0681 896C2404 		movl	%ebp, 4(%esp)
 513 0685 893C24   		movl	%edi, (%esp)
 514 0688 894C2408 		movl	%ecx, 8(%esp)
 515 068c 8944241C 		movl	%eax, 28(%esp)
 516 0690 E86BF9FF 		call	__Z11farsh_keyedPKvjS0_
 516      FF
 517 0695 8B54241C 		movl	28(%esp), %edx
 518 0699 8B4C2450 		movl	80(%esp), %ecx
 519 069d 890491   		movl	%eax, (%ecx,%edx,4)
 520 06a0 8D4E10   		leal	16(%esi), %ecx
 521 06a3 8D4304   		leal	4(%ebx), %eax
 522 06a6 896C2404 		movl	%ebp, 4(%esp)
 523 06aa 893C24   		movl	%edi, (%esp)
 524 06ad 894C2408 		movl	%ecx, 8(%esp)
 525 06b1 8944241C 		movl	%eax, 28(%esp)
 526 06b5 E846F9FF 		call	__Z11farsh_keyedPKvjS0_
 526      FF
 527 06ba 8B54241C 		movl	28(%esp), %edx
 528 06be 8B4C2450 		movl	80(%esp), %ecx
 529 06c2 890491   		movl	%eax, (%ecx,%edx,4)
 530 06c5 8D4E14   		leal	20(%esi), %ecx
 531 06c8 8D4305   		leal	5(%ebx), %eax
 532 06cb 896C2404 		movl	%ebp, 4(%esp)
 533 06cf 893C24   		movl	%edi, (%esp)
 534 06d2 894C2408 		movl	%ecx, 8(%esp)
 535 06d6 8944241C 		movl	%eax, 28(%esp)
 536 06da E821F9FF 		call	__Z11farsh_keyedPKvjS0_
 536      FF
 537 06df 8B54241C 		movl	28(%esp), %edx
 538 06e3 8B4C2450 		movl	80(%esp), %ecx
 539 06e7 890491   		movl	%eax, (%ecx,%edx,4)
 540 06ea 8D4E18   		leal	24(%esi), %ecx
 541 06ed 8D4306   		leal	6(%ebx), %eax
 542 06f0 896C2404 		movl	%ebp, 4(%esp)
 543 06f4 893C24   		movl	%edi, (%esp)
 544 06f7 894C2408 		movl	%ecx, 8(%esp)
 545 06fb 8944241C 		movl	%eax, 28(%esp)
 546 06ff E8FCF8FF 		call	__Z11farsh_keyedPKvjS0_
 546      FF
 547 0704 8B54241C 		movl	28(%esp), %edx
 548 0708 8B4C2450 		movl	80(%esp), %ecx
 549 070c 890491   		movl	%eax, (%ecx,%edx,4)
 550 070f 8D4E1C   		leal	28(%esi), %ecx
 551 0712 8D4307   		leal	7(%ebx), %eax
 552 0715 896C2404 		movl	%ebp, 4(%esp)
 553 0719 893C24   		movl	%edi, (%esp)
 554 071c 83C308   		addl	$8, %ebx
 555 071f 894C2408 		movl	%ecx, 8(%esp)
 556 0723 8944241C 		movl	%eax, 28(%esp)
 557 0727 83C620   		addl	$32, %esi
 558 072a E8D1F8FF 		call	__Z11farsh_keyedPKvjS0_
 558      FF
 559 072f 3B5C244C 		cmpl	76(%esp), %ebx
 560 0733 8B4C2450 		movl	80(%esp), %ecx
 561 0737 8B54241C 		movl	28(%esp), %edx
 562 073b 890491   		movl	%eax, (%ecx,%edx,4)
 563 073e 0F85D6FE 		jne	L69
 563      FFFF
 564              	L65:
 565 0744 83C42C   		addl	$44, %esp
 566 0747 5B       		popl	%ebx
 567 0748 5E       		popl	%esi
 568 0749 5F       		popl	%edi
 569 074a 5D       		popl	%ebp
 570 074b C3       		ret
 571 074c 8D742600 		.p2align 4,,15
 572              		.globl	__Z7farsh_nPKvjiiPv
 574              	__Z7farsh_nPKvjiiPv:
 575 0750 55       		pushl	%ebp
 576 0751 57       		pushl	%edi
 577 0752 56       		pushl	%esi
 578 0753 53       		pushl	%ebx
 579 0754 83EC2C   		subl	$44, %esp
 580 0757 8B442448 		movl	72(%esp), %eax
 581 075b 8B54244C 		movl	76(%esp), %edx
 582 075f 8B7C2440 		movl	64(%esp), %edi
 583 0763 8B6C2444 		movl	68(%esp), %ebp
 584 0767 8D1C8580 		leal	__ZL10FARSH_KEYS(,%eax,4), %ebx
 584      000000
 585 076e 85D2     		testl	%edx, %edx
 586 0770 89DE     		movl	%ebx, %esi
 587 0772 895C2418 		movl	%ebx, 24(%esp)
 588 0776 0F8E7102 		jle	L111
 588      0000
 589 077c 8B4C244C 		movl	76(%esp), %ecx
 590 0780 895C2408 		movl	%ebx, 8(%esp)
 591 0784 8D7604   		leal	4(%esi), %esi
 592 0787 896C2404 		movl	%ebp, 4(%esp)
 593 078b 893C24   		movl	%edi, (%esp)
 594 078e 8D41FF   		leal	-1(%ecx), %eax
 595 0791 83E007   		andl	$7, %eax
 596 0794 8944241C 		movl	%eax, 28(%esp)
 597 0798 E863F8FF 		call	__Z11farsh_keyedPKvjS0_
 597      FF
 598 079d 8B5C2450 		movl	80(%esp), %ebx
 599 07a1 8B54241C 		movl	28(%esp), %edx
 600 07a5 8903     		movl	%eax, (%ebx)
 601 07a7 BB010000 		movl	$1, %ebx
 601      00
 602 07ac 3B5C244C 		cmpl	76(%esp), %ebx
 603 07b0 0F843702 		je	L111
 603      0000
 604 07b6 85D2     		testl	%edx, %edx
 605 07b8 0F840501 		je	L115
 605      0000
 606 07be 83FA01   		cmpl	$1, %edx
 607 07c1 0F84D500 		je	L141
 607      0000
 608 07c7 83FA02   		cmpl	$2, %edx
 609 07ca 0F84AF00 		je	L142
 609      0000
 610 07d0 83FA03   		cmpl	$3, %edx
 611 07d3 0F848900 		je	L143
 611      0000
 612 07d9 83FA04   		cmpl	$4, %edx
 613 07dc 7467     		je	L144
 614 07de 83FA05   		cmpl	$5, %edx
 615 07e1 7445     		je	L145
 616 07e3 83FA06   		cmpl	$6, %edx
 617 07e6 7423     		je	L146
 618 07e8 89742408 		movl	%esi, 8(%esp)
 619 07ec 896C2404 		movl	%ebp, 4(%esp)
 620 07f0 893C24   		movl	%edi, (%esp)
 621 07f3 E808F8FF 		call	__Z11farsh_keyedPKvjS0_
 621      FF
 622 07f8 8B4C2450 		movl	80(%esp), %ecx
 623 07fc 8B742418 		movl	24(%esp), %esi
 624 0800 890499   		movl	%eax, (%ecx,%ebx,4)
 625 0803 83C608   		addl	$8, %esi
 626 0806 BB020000 		movl	$2, %ebx
 626      00
 627              	L146:
 628 080b 89742408 		movl	%esi, 8(%esp)
 629 080f 896C2404 		movl	%ebp, 4(%esp)
 630 0813 83C604   		addl	$4, %esi
 631 0816 893C24   		movl	%edi, (%esp)
 632 0819 E8E2F7FF 		call	__Z11farsh_keyedPKvjS0_
 632      FF
 633 081e 8B542450 		movl	80(%esp), %edx
 634 0822 89049A   		movl	%eax, (%edx,%ebx,4)
 635 0825 83C301   		addl	$1, %ebx
 636              	L145:
 637 0828 89742408 		movl	%esi, 8(%esp)
 638 082c 896C2404 		movl	%ebp, 4(%esp)
 639 0830 83C604   		addl	$4, %esi
 640 0833 893C24   		movl	%edi, (%esp)
 641 0836 E8C5F7FF 		call	__Z11farsh_keyedPKvjS0_
 641      FF
 642 083b 8B4C2450 		movl	80(%esp), %ecx
 643 083f 890499   		movl	%eax, (%ecx,%ebx,4)
 644 0842 83C301   		addl	$1, %ebx
 645              	L144:
 646 0845 89742408 		movl	%esi, 8(%esp)
 647 0849 896C2404 		movl	%ebp, 4(%esp)
 648 084d 83C604   		addl	$4, %esi
 649 0850 893C24   		movl	%edi, (%esp)
 650 0853 E8A8F7FF 		call	__Z11farsh_keyedPKvjS0_
 650      FF
 651 0858 8B542450 		movl	80(%esp), %edx
 652 085c 89049A   		movl	%eax, (%edx,%ebx,4)
 653 085f 83C301   		addl	$1, %ebx
 654              	L143:
 655 0862 89742408 		movl	%esi, 8(%esp)
 656 0866 896C2404 		movl	%ebp, 4(%esp)
 657 086a 83C604   		addl	$4, %esi
 658 086d 893C24   		movl	%edi, (%esp)
 659 0870 E88BF7FF 		call	__Z11farsh_keyedPKvjS0_
 659      FF
 660 0875 8B4C2450 		movl	80(%esp), %ecx
 661 0879 890499   		movl	%eax, (%ecx,%ebx,4)
 662 087c 83C301   		addl	$1, %ebx
 663              	L142:
 664 087f 89742408 		movl	%esi, 8(%esp)
 665 0883 896C2404 		movl	%ebp, 4(%esp)
 666 0887 83C604   		addl	$4, %esi
 667 088a 893C24   		movl	%edi, (%esp)
 668 088d E86EF7FF 		call	__Z11farsh_keyedPKvjS0_
 668      FF
 669 0892 8B542450 		movl	80(%esp), %edx
 670 0896 89049A   		movl	%eax, (%edx,%ebx,4)
 671 0899 83C301   		addl	$1, %ebx
 672              	L141:
 673 089c 89742408 		movl	%esi, 8(%esp)
 674 08a0 896C2404 		movl	%ebp, 4(%esp)
 675 08a4 83C604   		addl	$4, %esi
 676 08a7 893C24   		movl	%edi, (%esp)
 677 08aa E851F7FF 		call	__Z11farsh_keyedPKvjS0_
 677      FF
 678 08af 8B4C2450 		movl	80(%esp), %ecx
 679 08b3 890499   		movl	%eax, (%ecx,%ebx,4)
 680 08b6 83C301   		addl	$1, %ebx
 681 08b9 3B5C244C 		cmpl	76(%esp), %ebx
 682 08bd 0F842A01 		je	L111
 682      0000
 683              	L115:
 684 08c3 89742408 		movl	%esi, 8(%esp)
 685 08c7 896C2404 		movl	%ebp, 4(%esp)
 686 08cb 893C24   		movl	%edi, (%esp)
 687 08ce E82DF7FF 		call	__Z11farsh_keyedPKvjS0_
 687      FF
 688 08d3 8B542450 		movl	80(%esp), %edx
 689 08d7 8D4E04   		leal	4(%esi), %ecx
 690 08da 89049A   		movl	%eax, (%edx,%ebx,4)
 691 08dd 8D4301   		leal	1(%ebx), %eax
 692 08e0 894C2408 		movl	%ecx, 8(%esp)
 693 08e4 896C2404 		movl	%ebp, 4(%esp)
 694 08e8 893C24   		movl	%edi, (%esp)
 695 08eb 89442418 		movl	%eax, 24(%esp)
 696 08ef E80CF7FF 		call	__Z11farsh_keyedPKvjS0_
 696      FF
 697 08f4 8B542418 		movl	24(%esp), %edx
 698 08f8 8B4C2450 		movl	80(%esp), %ecx
 699 08fc 890491   		movl	%eax, (%ecx,%edx,4)
 700 08ff 8D4E08   		leal	8(%esi), %ecx
 701 0902 8D4302   		leal	2(%ebx), %eax
 702 0905 896C2404 		movl	%ebp, 4(%esp)
 703 0909 893C24   		movl	%edi, (%esp)
 704 090c 894C2408 		movl	%ecx, 8(%esp)
 705 0910 89442418 		movl	%eax, 24(%esp)
 706 0914 E8E7F6FF 		call	__Z11farsh_keyedPKvjS0_
 706      FF
 707 0919 8B542418 		movl	24(%esp), %edx
 708 091d 8B4C2450 		movl	80(%esp), %ecx
 709 0921 890491   		movl	%eax, (%ecx,%edx,4)
 710 0924 8D4E0C   		leal	12(%esi), %ecx
 711 0927 8D4303   		leal	3(%ebx), %eax
 712 092a 896C2404 		movl	%ebp, 4(%esp)
 713 092e 893C24   		movl	%edi, (%esp)
 714 0931 894C2408 		movl	%ecx, 8(%esp)
 715 0935 89442418 		movl	%eax, 24(%esp)
 716 0939 E8C2F6FF 		call	__Z11farsh_keyedPKvjS0_
 716      FF
 717 093e 8B542418 		movl	24(%esp), %edx
 718 0942 8B4C2450 		movl	80(%esp), %ecx
 719 0946 890491   		movl	%eax, (%ecx,%edx,4)
 720 0949 8D4E10   		leal	16(%esi), %ecx
 721 094c 8D4304   		leal	4(%ebx), %eax
 722 094f 896C2404 		movl	%ebp, 4(%esp)
 723 0953 893C24   		movl	%edi, (%esp)
 724 0956 894C2408 		movl	%ecx, 8(%esp)
 725 095a 89442418 		movl	%eax, 24(%esp)
 726 095e E89DF6FF 		call	__Z11farsh_keyedPKvjS0_
 726      FF
 727 0963 8B542418 		movl	24(%esp), %edx
 728 0967 8B4C2450 		movl	80(%esp), %ecx
 729 096b 890491   		movl	%eax, (%ecx,%edx,4)
 730 096e 8D4E14   		leal	20(%esi), %ecx
 731 0971 8D4305   		leal	5(%ebx), %eax
 732 0974 896C2404 		movl	%ebp, 4(%esp)
 733 0978 893C24   		movl	%edi, (%esp)
 734 097b 894C2408 		movl	%ecx, 8(%esp)
 735 097f 89442418 		movl	%eax, 24(%esp)
 736 0983 E878F6FF 		call	__Z11farsh_keyedPKvjS0_
 736      FF
 737 0988 8B542418 		movl	24(%esp), %edx
 738 098c 8B4C2450 		movl	80(%esp), %ecx
 739 0990 890491   		movl	%eax, (%ecx,%edx,4)
 740 0993 8D4E18   		leal	24(%esi), %ecx
 741 0996 8D4306   		leal	6(%ebx), %eax
 742 0999 896C2404 		movl	%ebp, 4(%esp)
 743 099d 893C24   		movl	%edi, (%esp)
 744 09a0 894C2408 		movl	%ecx, 8(%esp)
 745 09a4 89442418 		movl	%eax, 24(%esp)
 746 09a8 E853F6FF 		call	__Z11farsh_keyedPKvjS0_
 746      FF
 747 09ad 8B542418 		movl	24(%esp), %edx
 748 09b1 8B4C2450 		movl	80(%esp), %ecx
 749 09b5 890491   		movl	%eax, (%ecx,%edx,4)
 750 09b8 8D4E1C   		leal	28(%esi), %ecx
 751 09bb 8D4307   		leal	7(%ebx), %eax
 752 09be 896C2404 		movl	%ebp, 4(%esp)
 753 09c2 893C24   		movl	%edi, (%esp)
 754 09c5 83C308   		addl	$8, %ebx
 755 09c8 894C2408 		movl	%ecx, 8(%esp)
 756 09cc 89442418 		movl	%eax, 24(%esp)
 757 09d0 83C620   		addl	$32, %esi
 758 09d3 E828F6FF 		call	__Z11farsh_keyedPKvjS0_
 758      FF
 759 09d8 3B5C244C 		cmpl	76(%esp), %ebx
 760 09dc 8B4C2450 		movl	80(%esp), %ecx
 761 09e0 8B542418 		movl	24(%esp), %edx
 762 09e4 890491   		movl	%eax, (%ecx,%edx,4)
 763 09e7 0F85D6FE 		jne	L115
 763      FFFF
 764              	L111:
 765 09ed 83C42C   		addl	$44, %esp
 766 09f0 5B       		popl	%ebx
 767 09f1 5E       		popl	%esi
 768 09f2 5F       		popl	%edi
 769 09f3 5D       		popl	%ebp
 770 09f4 C3       		ret
 771 09f5 8D742600 		.p2align 4,,15
 771      8DBC2700 
 771      000000
 772              		.globl	__Z5farshPKvj
 774              	__Z5farshPKvj:
 775 0a00 83EC1C   		subl	$28, %esp
 776 0a03 8B442424 		movl	36(%esp), %eax
 777 0a07 8B542420 		movl	32(%esp), %edx
 778 0a0b C7442408 		movl	$__ZL10FARSH_KEYS, 8(%esp)
 778      80000000 
 779 0a13 89442404 		movl	%eax, 4(%esp)
 780 0a17 891424   		movl	%edx, (%esp)
 781 0a1a E8E1F5FF 		call	__Z11farsh_keyedPKvjS0_
 781      FF
 782 0a1f 83C41C   		addl	$28, %esp
 783 0a22 C3       		ret
 785 0a23 90909090 		.section .rdata,"dr"
 785      90909090 
 785      90909090 
 785      90
 786              	LC0:
 787 0000 20282578 		.ascii " (%x)\0"
 787      2900
 788 0006 0000     		.align 4
 789              	LC5:
 790 0008 3A20252E 		.ascii ": %.3lf milliseconds = %.3lf GB/s = %.3lf GiB/s\12\0"
 790      336C6620 
 790      6D696C6C 
 790      69736563 
 790      6F6E6473 
 791              	LC6:
 792 0039 48617368 		.ascii "Hashing %d GiB\0"
 792      696E6720 
 792      25642047 
 792      694200
 793              		.section	.text.startup,"x"
 794              		.p2align 4,,15
 795              		.globl	_main
 797              	_main:
 798 0000 8D4C2404 		leal	4(%esp), %ecx
 799 0004 83E4F0   		andl	$-16, %esp
 800 0007 FF71FC   		pushl	-4(%ecx)
 801 000a 55       		pushl	%ebp
 802 000b 89E5     		movl	%esp, %ebp
 803 000d 57       		pushl	%edi
 804 000e 56       		pushl	%esi
 805 000f 53       		pushl	%ebx
 806 0010 51       		pushl	%ecx
 807 0011 83EC68   		subl	$104, %esp
 808 0014 E8000000 		call	___main
 808      00
 809 0019 C6050000 		movb	$0, __ZZ4mainE4data
 809      000000
 810 0020 B8010000 		movl	$1, %eax
 810      00
 811 0025 BA17CD5B 		movl	$123456791, %edx
 811      07
 812              	L160:
 813 002a 89C1     		movl	%eax, %ecx
 814 002c 89D7     		movl	%edx, %edi
 815 002e 8D7001   		leal	1(%eax), %esi
 816 0031 83E10F   		andl	$15, %ecx
 817 0034 D3EF     		shrl	%cl, %edi
 818 0036 89F1     		movl	%esi, %ecx
 819 0038 8D7003   		leal	3(%eax), %esi
 820 003b 89FB     		movl	%edi, %ebx
 821 003d 83E10F   		andl	$15, %ecx
 822 0040 8D7802   		leal	2(%eax), %edi
 823 0043 88980000 		movb	%bl, __ZZ4mainE4data(%eax)
 823      0000
 824 0049 8D9A17CD 		leal	123456791(%edx), %ebx
 824      5B07
 825 004f D3EB     		shrl	%cl, %ebx
 826 0051 89F9     		movl	%edi, %ecx
 827 0053 8D7804   		leal	4(%eax), %edi
 828 0056 88980100 		movb	%bl, __ZZ4mainE4data+1(%eax)
 828      0000
 829 005c 8D9A2E9A 		leal	246913582(%edx), %ebx
 829      B70E
 830 0062 83E10F   		andl	$15, %ecx
 831 0065 D3EB     		shrl	%cl, %ebx
 832 0067 89F1     		movl	%esi, %ecx
 833 0069 8D7005   		leal	5(%eax), %esi
 834 006c 88980200 		movb	%bl, __ZZ4mainE4data+2(%eax)
 834      0000
 835 0072 8D9A4567 		leal	370370373(%edx), %ebx
 835      1316
 836 0078 83E10F   		andl	$15, %ecx
 837 007b D3EB     		shrl	%cl, %ebx
 838 007d 89F9     		movl	%edi, %ecx
 839 007f 8D7806   		leal	6(%eax), %edi
 840 0082 88980300 		movb	%bl, __ZZ4mainE4data+3(%eax)
 840      0000
 841 0088 8D9A5C34 		leal	493827164(%edx), %ebx
 841      6F1D
 842 008e 83E10F   		andl	$15, %ecx
 843 0091 D3EB     		shrl	%cl, %ebx
 844 0093 89F1     		movl	%esi, %ecx
 845 0095 8D7007   		leal	7(%eax), %esi
 846 0098 88980400 		movb	%bl, __ZZ4mainE4data+4(%eax)
 846      0000
 847 009e 8D9A7301 		leal	617283955(%edx), %ebx
 847      CB24
 848 00a4 83E10F   		andl	$15, %ecx
 849 00a7 83C008   		addl	$8, %eax
 850 00aa D3EB     		shrl	%cl, %ebx
 851 00ac 89F9     		movl	%edi, %ecx
 852 00ae 8898FDFF 		movb	%bl, __ZZ4mainE4data-3(%eax)
 852      FFFF
 853 00b4 8D9A8ACE 		leal	740740746(%edx), %ebx
 853      262C
 854 00ba 83E10F   		andl	$15, %ecx
 855 00bd D3EB     		shrl	%cl, %ebx
 856 00bf 89F1     		movl	%esi, %ecx
 857 00c1 8898FEFF 		movb	%bl, __ZZ4mainE4data-2(%eax)
 857      FFFF
 858 00c7 8D9AA19B 		leal	864197537(%edx), %ebx
 858      8233
 859 00cd 83E10F   		andl	$15, %ecx
 860 00d0 81C2B868 		addl	$987654328, %edx
 860      DE3A
 861 00d6 D3EB     		shrl	%cl, %ebx
 862 00d8 8898FFFF 		movb	%bl, __ZZ4mainE4data-1(%eax)
 862      FFFF
 863 00de 3D017000 		cmpl	$28673, %eax
 863      00
 864 00e3 0F8541FF 		jne	L160
 864      FFFF
 865 00e9 C7442408 		movl	$__ZL10FARSH_KEYS, 8(%esp)
 865      80000000 
 866 00f1 C7442404 		movl	$28673, 4(%esp)
 866      01700000 
 867 00f9 BE017000 		movl	$28673, %esi
 867      00
 868 00fe C7042400 		movl	$__ZZ4mainE4data, (%esp)
 868      000000
 869 0105 BB007000 		movl	$28672, %ebx
 869      00
 870 010a E8000000 		call	__Z11farsh_keyedPKvjS0_
 870      00
 871 010f 83F82A   		cmpl	$42, %eax
 872 0112 0F853E01 		jne	L162
 872      0000
 873 0118 E95F0100 		jmp	L161
 873      00
 874 011d 8D7600   		.p2align 4,,10
 875              	L216:
 876 0120 8D53FF   		leal	-1(%ebx), %edx
 877 0123 89F7     		movl	%esi, %edi
 878 0125 C7442408 		movl	$__ZL10FARSH_KEYS, 8(%esp)
 878      80000000 
 879 012d 29D7     		subl	%edx, %edi
 880 012f 89542404 		movl	%edx, 4(%esp)
 881 0133 89F9     		movl	%edi, %ecx
 882 0135 81C10000 		addl	$__ZZ4mainE4data, %ecx
 882      0000
 883 013b 890C24   		movl	%ecx, (%esp)
 884 013e E8000000 		call	__Z11farsh_keyedPKvjS0_
 884      00
 885 0143 83F82A   		cmpl	$42, %eax
 886 0146 0F843001 		je	L161
 886      0000
 887 014c 8D43FE   		leal	-2(%ebx), %eax
 888 014f 89F2     		movl	%esi, %edx
 889 0151 C7442408 		movl	$__ZL10FARSH_KEYS, 8(%esp)
 889      80000000 
 890 0159 29C2     		subl	%eax, %edx
 891 015b 89442404 		movl	%eax, 4(%esp)
 892 015f 89D7     		movl	%edx, %edi
 893 0161 81C70000 		addl	$__ZZ4mainE4data, %edi
 893      0000
 894 0167 893C24   		movl	%edi, (%esp)
 895 016a E8000000 		call	__Z11farsh_keyedPKvjS0_
 895      00
 896 016f 83F82A   		cmpl	$42, %eax
 897 0172 0F840401 		je	L161
 897      0000
 898 0178 8D4BFD   		leal	-3(%ebx), %ecx
 899 017b 89F0     		movl	%esi, %eax
 900 017d C7442408 		movl	$__ZL10FARSH_KEYS, 8(%esp)
 900      80000000 
 901 0185 29C8     		subl	%ecx, %eax
 902 0187 894C2404 		movl	%ecx, 4(%esp)
 903 018b 89C2     		movl	%eax, %edx
 904 018d 81C20000 		addl	$__ZZ4mainE4data, %edx
 904      0000
 905 0193 891424   		movl	%edx, (%esp)
 906 0196 E8000000 		call	__Z11farsh_keyedPKvjS0_
 906      00
 907 019b 83F82A   		cmpl	$42, %eax
 908 019e 0F84D800 		je	L161
 908      0000
 909 01a4 8D4BFC   		leal	-4(%ebx), %ecx
 910 01a7 89F7     		movl	%esi, %edi
 911 01a9 C7442408 		movl	$__ZL10FARSH_KEYS, 8(%esp)
 911      80000000 
 912 01b1 29CF     		subl	%ecx, %edi
 913 01b3 894C2404 		movl	%ecx, 4(%esp)
 914 01b7 89F8     		movl	%edi, %eax
 915 01b9 05000000 		addl	$__ZZ4mainE4data, %eax
 915      00
 916 01be 890424   		movl	%eax, (%esp)
 917 01c1 E8000000 		call	__Z11farsh_keyedPKvjS0_
 917      00
 918 01c6 83F82A   		cmpl	$42, %eax
 919 01c9 0F84AD00 		je	L161
 919      0000
 920 01cf 8D53FB   		leal	-5(%ebx), %edx
 921 01d2 89F1     		movl	%esi, %ecx
 922 01d4 C7442408 		movl	$__ZL10FARSH_KEYS, 8(%esp)
 922      80000000 
 923 01dc 29D1     		subl	%edx, %ecx
 924 01de 89542404 		movl	%edx, 4(%esp)
 925 01e2 89CF     		movl	%ecx, %edi
 926 01e4 81C70000 		addl	$__ZZ4mainE4data, %edi
 926      0000
 927 01ea 893C24   		movl	%edi, (%esp)
 928 01ed E8000000 		call	__Z11farsh_keyedPKvjS0_
 928      00
 929 01f2 83F82A   		cmpl	$42, %eax
 930 01f5 0F848100 		je	L161
 930      0000
 931 01fb 8D43FA   		leal	-6(%ebx), %eax
 932 01fe 89F2     		movl	%esi, %edx
 933 0200 C7442408 		movl	$__ZL10FARSH_KEYS, 8(%esp)
 933      80000000 
 934 0208 29C2     		subl	%eax, %edx
 935 020a 89442404 		movl	%eax, 4(%esp)
 936 020e 89D1     		movl	%edx, %ecx
 937 0210 81C10000 		addl	$__ZZ4mainE4data, %ecx
 937      0000
 938 0216 890C24   		movl	%ecx, (%esp)
 939 0219 E8000000 		call	__Z11farsh_keyedPKvjS0_
 939      00
 940 021e 83F82A   		cmpl	$42, %eax
 941 0221 7459     		je	L161
 942 0223 8D43F9   		leal	-7(%ebx), %eax
 943 0226 89F7     		movl	%esi, %edi
 944 0228 C7442408 		movl	$__ZL10FARSH_KEYS, 8(%esp)
 944      80000000 
 945 0230 29C7     		subl	%eax, %edi
 946 0232 89442404 		movl	%eax, 4(%esp)
 947 0236 89FA     		movl	%edi, %edx
 948 0238 81C20000 		addl	$__ZZ4mainE4data, %edx
 948      0000
 949 023e 891424   		movl	%edx, (%esp)
 950 0241 E8000000 		call	__Z11farsh_keyedPKvjS0_
 950      00
 951 0246 83F82A   		cmpl	$42, %eax
 952 0249 7431     		je	L161
 953 024b 83EB08   		subl	$8, %ebx
 954 024e 81FBF06F 		cmpl	$28656, %ebx
 954      0000
 955 0254 7426     		je	L161
 956              	L162:
 957 0256 89F0     		movl	%esi, %eax
 958 0258 C7442408 		movl	$__ZL10FARSH_KEYS, 8(%esp)
 958      80000000 
 959 0260 895C2404 		movl	%ebx, 4(%esp)
 960 0264 29D8     		subl	%ebx, %eax
 961 0266 05000000 		addl	$__ZZ4mainE4data, %eax
 961      00
 962 026b 890424   		movl	%eax, (%esp)
 963 026e E8000000 		call	__Z11farsh_keyedPKvjS0_
 963      00
 964 0273 83F82A   		cmpl	$42, %eax
 965 0276 0F85A4FE 		jne	L216
 965      FFFF
 966              	L161:
 967 027c 8D5DD8   		leal	-40(%ebp), %ebx
 968 027f C7442404 		movl	$100, 4(%esp)
 968      64000000 
 969 0287 C7042439 		movl	$LC6, (%esp)
 969      000000
 970 028e E8000000 		call	_printf
 970      00
 971 0293 891C24   		movl	%ebx, (%esp)
 972 0296 8D75C8   		leal	-56(%ebp), %esi
 973 0299 FF150000 		call	*__imp__QueryPerformanceFrequency@4
 973      0000
 974 029f A1000000 		movl	__imp__QueryPerformanceCounter@4, %eax
 974      00
 975 02a4 83EC04   		subl	$4, %esp
 976 02a7 893424   		movl	%esi, (%esp)
 977 02aa 89C7     		movl	%eax, %edi
 978 02ac 8945B0   		movl	%eax, -80(%ebp)
 979 02af FFD0     		call	*%eax
 980 02b1 8D4DD0   		leal	-48(%ebp), %ecx
 981 02b4 83EC04   		subl	$4, %esp
 982 02b7 890C24   		movl	%ecx, (%esp)
 983 02ba FFD7     		call	*%edi
 984 02bc 8B45D0   		movl	-48(%ebp), %eax
 985 02bf 83EC04   		subl	$4, %esp
 986 02c2 2B45C8   		subl	-56(%ebp), %eax
 987 02c5 8B55D4   		movl	-44(%ebp), %edx
 988 02c8 1B55CC   		sbbl	-52(%ebp), %edx
 989 02cb 893424   		movl	%esi, (%esp)
 990 02ce 8945E0   		movl	%eax, -32(%ebp)
 991 02d1 8955E4   		movl	%edx, -28(%ebp)
 992 02d4 FFD7     		call	*%edi
 993 02d6 C745B401 		movl	$1, -76(%ebp)
 993      000000
 994 02dd 83EC04   		subl	$4, %esp
 995              		.p2align 4,,10
 996              	L170:
 997 02e0 0FB64DB4 		movzbl	-76(%ebp), %ecx
 998 02e4 C745B800 		movl	$0, -72(%ebp)
 998      000000
 999 02eb 31F6     		xorl	%esi, %esi
 1000 02ed 31FF     		xorl	%edi, %edi
 1001 02ef 31DB     		xorl	%ebx, %ebx
 1002 02f1 83E901   		subl	$1, %ecx
 1003 02f4 880D0000 		movb	%cl, __ZZ4mainE4data
 1003      0000
 1004 02fa B9000000 		movl	$__ZZ4mainE4data, %ecx
 1004      00
 1005 02ff 90       		.p2align 4,,10
 1006              	L163:
 1007 0300 660FEFC0 		pxor	%xmm0, %xmm0
 1008 0304 31C0     		xorl	%eax, %eax
 1009 0306 8D76008D 		.p2align 4,,10
 1009      BC270000 
 1009      0000
 1010              	L164:
 1011 0310 F30F6F88 		movdqu	__ZL10FARSH_KEYS(%eax), %xmm1
 1011      80000000 
 1012 0318 F30F6F1C 		movdqu	(%ecx,%eax), %xmm3
 1012      01
 1013 031d 660FFED9 		paddd	%xmm1, %xmm3
 1014 0321 660F70D3 		pshufd	$49, %xmm3, %xmm2
 1014      31
 1015 0326 F30F6FA8 		movdqu	__ZL10FARSH_KEYS+16(%eax), %xmm5
 1015      90000000 
 1016 032e 660FF4DA 		pmuludq	%xmm2, %xmm3
 1017 0332 F30F6F7C 		movdqu	32(%ecx,%eax), %xmm7
 1017      0120
 1018 0338 660FD4C3 		paddq	%xmm3, %xmm0
 1019 033c F30F6F64 		movdqu	16(%ecx,%eax), %xmm4
 1019      0110
 1020 0342 F30F6F98 		movdqu	__ZL10FARSH_KEYS+32(%eax), %xmm3
 1020      A0000000 
 1021 034a 660FFEE5 		paddd	%xmm5, %xmm4
 1022 034e 660F70F4 		pshufd	$49, %xmm4, %xmm6
 1022      31
 1023 0353 660FFEDF 		paddd	%xmm7, %xmm3
 1024 0357 660F70CB 		pshufd	$49, %xmm3, %xmm1
 1024      31
 1025 035c F30F6F54 		movdqu	48(%ecx,%eax), %xmm2
 1025      0130
 1026 0362 660FF4E6 		pmuludq	%xmm6, %xmm4
 1027 0366 F30F6F6C 		movdqu	64(%ecx,%eax), %xmm5
 1027      0140
 1028 036c 660FD4C4 		paddq	%xmm4, %xmm0
 1029 0370 660FF4D9 		pmuludq	%xmm1, %xmm3
 1030 0374 660FD4D8 		paddq	%xmm0, %xmm3
 1031 0378 F30F6FB0 		movdqu	__ZL10FARSH_KEYS+64(%eax), %xmm6
 1031      C0000000 
 1032 0380 F30F6F80 		movdqu	__ZL10FARSH_KEYS+48(%eax), %xmm0
 1032      B0000000 
 1033 0388 660FFEF5 		paddd	%xmm5, %xmm6
 1034 038c 660F70FE 		pshufd	$49, %xmm6, %xmm7
 1034      31
 1035 0391 660FFEC2 		paddd	%xmm2, %xmm0
 1036 0395 660F70E0 		pshufd	$49, %xmm0, %xmm4
 1036      31
 1037 039a F30F6F54 		movdqu	96(%ecx,%eax), %xmm2
 1037      0160
 1038 03a0 660FF4F7 		pmuludq	%xmm7, %xmm6
 1039 03a4 660FF4C4 		pmuludq	%xmm4, %xmm0
 1040 03a8 F30F6FA0 		movdqu	__ZL10FARSH_KEYS+96(%eax), %xmm4
 1040      E0000000 
 1041 03b0 660FD4C3 		paddq	%xmm3, %xmm0
 1042 03b4 660FD4F0 		paddq	%xmm0, %xmm6
 1043 03b8 F30F6F5C 		movdqu	80(%ecx,%eax), %xmm3
 1043      0150
 1044 03be 660FFEE2 		paddd	%xmm2, %xmm4
 1045 03c2 660F70EC 		pshufd	$49, %xmm4, %xmm5
 1045      31
 1046 03c7 F30F6F80 		movdqu	__ZL10FARSH_KEYS+80(%eax), %xmm0
 1046      D0000000 
 1047 03cf 660FFEC3 		paddd	%xmm3, %xmm0
 1048 03d3 660F70C8 		pshufd	$49, %xmm0, %xmm1
 1048      31
 1049 03d8 660FF4E5 		pmuludq	%xmm5, %xmm4
 1050 03dc 660FF4C1 		pmuludq	%xmm1, %xmm0
 1051 03e0 660FD4C6 		paddq	%xmm6, %xmm0
 1052 03e4 F30F6F74 		movdqu	112(%ecx,%eax), %xmm6
 1052      0170
 1053 03ea 660FD4E0 		paddq	%xmm0, %xmm4
 1054 03ee 83E880   		subl	$-128, %eax
 1055 03f1 F30F6F80 		movdqu	__ZL10FARSH_KEYS-16(%eax), %xmm0
 1055      70000000 
 1056 03f9 3D000400 		cmpl	$1024, %eax
 1056      00
 1057 03fe 660FFEC6 		paddd	%xmm6, %xmm0
 1058 0402 660F70F8 		pshufd	$49, %xmm0, %xmm7
 1058      31
 1059 0407 660FF4C7 		pmuludq	%xmm7, %xmm0
 1060 040b 660FD4C4 		paddq	%xmm4, %xmm0
 1061 040f 0F85FBFE 		jne	L164
 1061      FFFF
 1062 0415 660F70D8 		pshufd	$14, %xmm0, %xmm3
 1062      0E
 1063 041a 8B049D80 		movl	__ZL10FARSH_KEYS(,%ebx,4), %eax
 1063      000000
 1064 0421 81C10004 		addl	$1024, %ecx
 1064      0000
 1065 0427 660FD4C3 		paddq	%xmm3, %xmm0
 1066 042b 660F70C8 		pshufd	$1, %xmm0, %xmm1
 1066      01
 1067 0430 05000400 		addl	$1024, %eax
 1067      00
 1068 0435 660FFEC1 		paddd	%xmm1, %xmm0
 1069 0439 660F7EC2 		movd	%xmm0, %edx
 1070 043d F7E2     		mull	%edx
 1071 043f 01C6     		addl	%eax, %esi
 1072 0441 11D7     		adcl	%edx, %edi
 1073 0443 83C301   		addl	$1, %ebx
 1074 0446 81FB0001 		cmpl	$256, %ebx
 1074      0000
 1075 044c 7432     		je	L217
 1076              	L165:
 1077 044e 81F90070 		cmpl	$__ZZ4mainE4data+28672, %ecx
 1077      0000
 1078 0454 0F82A6FE 		jb	L163
 1078      FFFF
 1079 045a 01FE     		addl	%edi, %esi
 1080 045c 83FE2A   		cmpl	$42, %esi
 1081 045f 744B     		je	L167
 1082 0461 837DB42B 		cmpl	$43, -76(%ebp)
 1083 0465 0F84B100 		je	L218
 1083      0000
 1084 046b 817DB492 		cmpl	$3744914, -76(%ebp)
 1084      243900
 1085 0472 7438     		je	L167
 1086              	L169:
 1087 0474 8345B401 		addl	$1, -76(%ebp)
 1088 0478 E963FEFF 		jmp	L170
 1088      FF
 1089 047d 8D7600   		.p2align 4,,10
 1090              	L217:
 1091 0480 8B5DB8   		movl	-72(%ebp), %ebx
 1092 0483 89F8     		movl	%edi, %eax
 1093 0485 01F0     		addl	%esi, %eax
 1094 0487 F7249D80 		mull	__ZL10FARSH_KEYS(,%ebx,4)
 1094      000000
 1095 048e 01C6     		addl	%eax, %esi
 1096 0490 B8000000 		movl	$0, %eax
 1096      00
 1097 0495 11D7     		adcl	%edx, %edi
 1098 0497 83C301   		addl	$1, %ebx
 1099 049a 89DA     		movl	%ebx, %edx
 1100 049c 31DB     		xorl	%ebx, %ebx
 1101 049e 81FA0001 		cmpl	$256, %edx
 1101      0000
 1102 04a4 0F45C2   		cmovne	%edx, %eax
 1103 04a7 8945B8   		movl	%eax, -72(%ebp)
 1104 04aa EBA2     		jmp	L165
 1105              	L167:
 1106 04ac 8D5DD0   		leal	-48(%ebp), %ebx
 1107 04af 891C24   		movl	%ebx, (%esp)
 1108 04b2 FF55B0   		call	*-80(%ebp)
 1109 04b5 8B75D0   		movl	-48(%ebp), %esi
 1110 04b8 83EC04   		subl	$4, %esp
 1111 04bb 2B75C8   		subl	-56(%ebp), %esi
 1112 04be 8B55D4   		movl	-44(%ebp), %edx
 1113 04c1 1B55CC   		sbbl	-52(%ebp), %edx
 1114 04c4 2B75E0   		subl	-32(%ebp), %esi
 1115 04c7 C7042408 		movl	$LC5, (%esp)
 1115      000000
 1116 04ce 1B55E4   		sbbl	-28(%ebp), %edx
 1117 04d1 8975B8   		movl	%esi, -72(%ebp)
 1118 04d4 8955BC   		movl	%edx, -68(%ebp)
 1119 04d7 DF6DB8   		fildq	-72(%ebp)
 1120 04da D9057C08 		flds	LC1
 1120      0000
 1121 04e0 DCC9     		fmul	%st, %st(1)
 1122 04e2 DF6DD8   		fildq	-40(%ebp)
 1123 04e5 DEFA     		fdivrp	%st, %st(2)
 1124 04e7 D8F9     		fdivr	%st(1), %st
 1125 04e9 D83D8008 		fdivrs	LC2
 1125      0000
 1126 04ef D9C0     		fld	%st(0)
 1127 04f1 D80D8408 		fmuls	LC3
 1127      0000
 1128 04f7 DD5C2414 		fstpl	20(%esp)
 1129 04fb D8358808 		fdivs	LC4
 1129      0000
 1130 0501 DD5C240C 		fstpl	12(%esp)
 1131 0505 DD5C2404 		fstpl	4(%esp)
 1132 0509 E8000000 		call	_printf
 1132      00
 1133 050e 8D65F0   		leal	-16(%ebp), %esp
 1134 0511 31C0     		xorl	%eax, %eax
 1135 0513 59       		popl	%ecx
 1136 0514 5B       		popl	%ebx
 1137 0515 5E       		popl	%esi
 1138 0516 5F       		popl	%edi
 1139 0517 5D       		popl	%ebp
 1140 0518 8D61FC   		leal	-4(%ecx), %esp
 1141 051b C3       		ret
 1142              	L218:
 1143 051c 89742404 		movl	%esi, 4(%esp)
 1144 0520 C7042400 		movl	$LC0, (%esp)
 1144      000000
 1145 0527 E8000000 		call	_printf
 1145      00
 1146 052c E943FFFF 		jmp	L169
 1146      FF
 1147              	.lcomm __ZZ4mainE4data,28673,64
 1148 0531 90909090 		.section .rdata,"dr"
 1148      90909090 
 1148      90909090 
 1148      909090
 1149 0048 00000000 		.align 64
 1149      00000000 
 1149      00000000 
 1149      00000000 
 1149      00000000 
 1150              	__ZL10FARSH_KEYS:
 1151 0080 396CFEB8 		.long	-1191285703
 1152 0084 BE4BA423 		.long	597969854
 1153 0088 2C81017C 		.long	2080473388
 1154 008c 1CAD21F7 		.long	-148787940
 1155 0090 E96DD4DE 		.long	-556503575
 1156 0094 DB979083 		.long	-2087675941
 1157 0098 A4A44072 		.long	1916839076
 1158 009c 1F67B3B7 		.long	-1212979425
 1159 00a0 4EE679CB 		.long	-881203634
 1160 00a4 78E5C0CC 		.long	-859773576
 1161 00a8 7DD05A82 		.long	-2107977603
 1162 00ac 2172FFCC 		.long	-855674335
 1163 00b0 744608B8 		.long	-1207417228
 1164 00b4 8E2443F7 		.long	-146594674
 1165 00b8 E69035E0 		.long	-533360410
 1166 00bc 4C263A81 		.long	-2126895540
 1167 00c0 BB52283C 		.long	1009275579
 1168 00c4 CB00C391 		.long	-1849491253
 1169 00c8 8B65D088 		.long	-1999608437
 1170 00cc A32E531B 		.long	458436259
 1171 00d0 97486471 		.long	1902397591
 1172 00d4 4EF90DA2 		.long	-1576142514
 1173 00d8 46EF1938 		.long	941223750
 1174 00dc D8ACDEA9 		.long	-1445024552
 1175 00e0 3F76FAA8 		.long	-1459980737
 1176 00e4 3F349CE3 		.long	-476302273
 1177 00e8 C7BBDCF9 		.long	-102974521
 1178 00ec 1D4F0BC7 		.long	-955560163
 1179 00f0 4BE0518A 		.long	-1974345653
 1180 00f4 3159B4CD 		.long	-843818703
 1181 00f8 C97E9FC8 		.long	-929071415
 1182 00fc 647378D9 		.long	-646417564
 1183 0100 52076A4F 		.long	1332348754
 1184 0104 9C079BA7 		.long	-1483012196
 1185 0108 9994C48F 		.long	-1882942311
 1186 010c A9B7C98E 		.long	-1899382871
 1187 0110 4922C933 		.long	868819529
 1188 0114 4F40B64E 		.long	1320566863
 1189 0118 4EFB2AFB 		.long	-81069234
 1190 011c 554281A4 		.long	-1535032747
 1191 0120 981B0E2F 		.long	789453720
 1192 0124 243BE9AC 		.long	-1394001116
 1193 0128 CD508818 		.long	411586765
 1194 012c A7745C6C 		.long	1817998503
 1195 0130 0444FA66 		.long	1727677444
 1196 0134 83ACC5EA 		.long	-356143997
 1197 0138 C3EBD334 		.long	886303683
 1198 013c FFA081C5 		.long	-981360385
 1199 0140 EB6313FA 		.long	-99392533
 1200 0144 51DD0D17 		.long	386784593
 1201 0148 49DAF0B7 		.long	-1208952247
 1202 014c 265516D3 		.long	-753511130
 1203 0150 9E68D429 		.long	701786270
 1204 0154 58BE162B 		.long	722910808
 1205 0158 FCA1477D 		.long	2101846524
 1206 015c D1B8F88F 		.long	-1879525167
 1207 0160 CE31D07A 		.long	2060464590
 1208 0164 8F3ACB45 		.long	1170946703
 1209 0168 28041695 		.long	-1793719256
 1210 016c CAFBD7AF 		.long	-1344799798
 1211 0170 7E404BBB 		.long	-1152696194
 1212 0174 A4745299 		.long	-1722649436
 1213 0178 932D9AEB 		.long	-342217325
 1214 017c 0889E73B 		.long	1005029640
 1215 0180 6C5F47ED 		.long	-314089620
 1216 0184 F2D89C91 		.long	-1851991822
 1217 0188 5A1E86D3 		.long	-746185126
 1218 018c 0C39316E 		.long	1848719628
 1219 0190 493A6AFE 		.long	-26592695
 1220 0194 1409ADDC 		.long	-592639724
 1221 0198 EB8B5006 		.long	105941995
 1222 019c F39983A8 		.long	-1467770381
 1223 01a0 2F1158B0 		.long	-1336405713
 1224 01a4 79FAB0E8 		.long	-391054727
 1225 01a8 06DAB429 		.long	699718150
 1226 01ac FB53C2ED 		.long	-306031621
 1227 01b0 AD6DE9C3 		.long	-1008112211
 1228 01b4 832B376E 		.long	1849109379
 1229 01b8 53B1784F 		.long	1333309779
 1230 01bc 866EFAFF 		.long	-364922
 1231 01c0 ECEEBE21 		.long	566161132
 1232 01c4 02EACA01 		.long	30075394
 1233 01c8 0DE56712 		.long	308798733
 1234 01cc 2F09E611 		.long	300288303
 1235 01d0 98D219E8 		.long	-400960872
 1236 01d4 DD802F83 		.long	-2094038819
 1237 01d8 77244E0C 		.long	206447735
 1238 01dc EB8678BC 		.long	-1132951829
 1239 01e0 37665001 		.long	22046263
 1240 01e4 6896A88B 		.long	-1951885720
 1241 01e8 A0E7116D 		.long	1829889952
 1242 01ec 15FD12FC 		.long	-65864427
 1243 01f0 194CA586 		.long	-2035987431
 1244 01f4 DDE33C59 		.long	1497162717
 1245 01f8 E53FB1D2 		.long	-760135707
 1246 01fc 532B778E 		.long	-1904792749
 1247 0200 CC604AAE 		.long	-1370857268
 1248 0204 1B3B7A64 		.long	1685732123
 1249 0208 E0867754 		.long	1417119456
 1250 020c 8E37C43E 		.long	1053046670
 1251 0210 89CF7A8D 		.long	-1921331319
 1252 0214 47F936CA 		.long	-902366905
 1253 0218 EFD5890E 		.long	243914223
 1254 021c 3C6ADAAA 		.long	-1428526532
 1255 0220 09A1A46D 		.long	1839505673
 1256 0224 1CE1C69A 		.long	-1698242276
 1257 0228 EF916668 		.long	1751552495
 1258 022c 2BBD57A3 		.long	-1554531029
 1259 0230 9A1B6FD1 		.long	-781247590
 1260 0234 0303C738 		.long	952566531
 1261 0238 B322467D 		.long	2101748403
 1262 023c 8FFA6829 		.long	694745743
 1263 0240 B9BCA58C 		.long	-1935295303
 1264 0244 0510D6FC 		.long	-53080059
 1265 0248 965E8B22 		.long	579559062
 1266 024c 19CC9D2C 		.long	748538905
 1267 0250 3C24CF57 		.long	1473193020
 1268 0254 C1F9533C 		.long	1012136385
 1269 0258 2C95C70C 		.long	214406444
 1270 025c F0E46D68 		.long	1752032496
 1271 0260 B547A793 		.long	-1817753675
 1272 0264 10A5874E 		.long	1317512464
 1273 0268 AE915E97 		.long	-1755410002
 1274 026c 8EB9104C 		.long	1276164494
 1275 0270 8C067F8A 		.long	-1971386740
 1276 0274 AB196B34 		.long	879434155
 1277 0278 25A63C35 		.long	893167141
 1278 027c E0500AF2 		.long	-234204960
 1279 0280 F62199CE 		.long	-828825098
 1280 0284 14E066DF 		.long	-546906092
 1281 0288 4BEF110A 		.long	168947531
 1282 028c DF4DC88B 		.long	-1949807137
 1283 0290 225DD284 		.long	-2066588382
 1284 0294 6D9323C8 		.long	-937192595
 1285 0298 C31E7494 		.long	-1804329277
 1286 029c 608A2788 		.long	-2010674592
 1287 02a0 319364B8 		.long	-1201368271
 1288 02a4 107A707A 		.long	2054191632
 1289 02a8 D6CA9272 		.long	1922222806
 1290 02ac C244C6A7 		.long	-1480178494
 1291 02b0 FA6B15BD 		.long	-1122669574
 1292 02b4 78956C64 		.long	1684837752
 1293 02b8 D5DFF4B7 		.long	-1208688683
 1294 02bc A777829F 		.long	-1618839641
 1295 02c0 4E921370 		.long	1880330830
 1296 02c4 C34C67AD 		.long	-1385739069
 1297 02c8 059DAE2C 		.long	749640965
 1298 02cc 229A2A91 		.long	-1859479006
 1299 02d0 FA537CF6 		.long	-159624198
 1300 02d4 A9227E8D 		.long	-1921113431
 1301 02d8 2B37AE59 		.long	1504589611
 1302 02dc F3990185 		.long	-2063492621
 1303 02e0 2C10A263 		.long	1671565356
 1304 02e4 6112FFD6 		.long	-687926687
 1305 02e8 E18E7356 		.long	1450413793
 1306 02ec 5B1495AA 		.long	-1433070501
 1307 02f0 3228D1FD 		.long	-36624334
 1308 02f4 EB4D685B 		.long	1533562347
 1309 02f8 94DE8407 		.long	126148244
 1310 02fc 0E3962AA 		.long	-1436403442
 1311 0300 19CF7CBB 		.long	-1149448423
 1312 0304 72D5EF0F 		.long	267375986
 1313 0308 CA415B56 		.long	1448821194
 1314 030c 02D20622 		.long	570872322
 1315 0310 7984602D 		.long	761300089
 1316 0314 3DCD0F4C 		.long	1276103997
 1317 0318 E33B6DD3 		.long	-747815965
 1318 031c 659A5A15 		.long	358259301
 1319 0320 32E7F910 		.long	284813106
 1320 0324 1E0F9BAC 		.long	-1399124194
 1321 0328 3BA0721F 		.long	527605819
 1322 032c AE4094EA 		.long	-359382866
 1323 0330 4F4B675B 		.long	1533496143
 1324 0334 D127A831 		.long	833103825
 1325 0338 4F95CAEC 		.long	-322267825
 1326 033c 1ED62C3D 		.long	1026348574
 1327 0340 A43D8D76 		.long	1988967844
 1328 0344 C15A7493 		.long	-1821091135
 1329 0348 CB585D1D 		.long	492656843
 1330 034c B6F3864B 		.long	1267135414
 1331 0350 3A92BA2A 		.long	716870202
 1332 0354 4C81650E 		.long	241533260
 1333 0358 D963E08A 		.long	-1965005863
 1334 035c B06969CD 		.long	-848729680
 1335 0360 85156436 		.long	912528773
 1336 0364 9DF52A74 		.long	1948972445
 1337 0368 16133A61 		.long	1631195926
 1338 036c 71A48E33 		.long	864986225
 1339 0370 F31A8647 		.long	1199971059
 1340 0374 C39D4730 		.long	809999811
 1341 0378 81A47012 		.long	309372033
 1342 037c 69107708 		.long	142020713
 1343 0380 D2F0C4E3 		.long	-473632558
 1344 0384 4C872902 		.long	36276044
 1345 0388 C13B8A5A 		.long	1519008705
 1346 038c 33970DE3 		.long	-485648589
 1347 0390 A2E55BD0 		.long	-799283806
 1348 0394 BA31AFE2 		.long	-491834950
 1349 0398 F9492022 		.long	572541433
 1350 039c 6A3B929F 		.long	-1617806486
 1351 03a0 EC643F03 		.long	54486252
 1352 03a4 2BB628E5 		.long	-450316757
 1353 03a8 BDEF0182 		.long	-2113802307
 1354 03ac 77D80721 		.long	554162295
 1355 03b0 F12E31D8 		.long	-667865359
 1356 03b4 999F67A5 		.long	-1519935591
 1357 03b8 1BB53017 		.long	389068059
 1358 03bc D2162675 		.long	1965430482
 1359 03c0 09593005 		.long	87054601
 1360 03c4 0B44CA0D 		.long	231359499
 1361 03c8 D9CD9320 		.long	546557401
 1362 03cc 50AB0964 		.long	1678355280
 1363 03d0 CC8E5CBA 		.long	-1168339252
 1364 03d4 EA08478D 		.long	-1924724502
 1365 03d8 17099F42 		.long	1117718807
 1366 03dc B0FA62B7 		.long	-1218250064
 1367 03e0 75EA6151 		.long	1365371509
 1368 03e4 EBA0EB45 		.long	1173070059
 1369 03e8 414BF3B6 		.long	-1225569471
 1370 03ec 23710452 		.long	1376022819
 1371 03f0 231518E4 		.long	-468183773
 1372 03f4 0AE9748D 		.long	-1921718006
 1373 03f8 1C40FA54 		.long	1425686556
 1374 03fc C70CDADD 		.long	-572912441
 1375 0400 2A18DF63 		.long	1675565098
 1376 0404 F63E40C6 		.long	-968868106
 1377 0408 E8C68E34 		.long	881772264
 1378 040c F557FFB9 		.long	-1174448139
 1379 0410 BDB852F6 		.long	-162350915
 1380 0414 F3B0860F 		.long	260485363
 1381 0418 8A083AFB 		.long	-80082806
 1382 041c 3315C74D 		.long	1304892723
 1383 0420 D217367B 		.long	2067142610
 1384 0424 EB874EA3 		.long	-1555134485
 1385 0428 DD9B2ABA 		.long	-1171612707
 1386 042c 061338E3 		.long	-482864378
 1387 0430 BBD6BA14 		.long	347788987
 1388 0434 C2C76DC9 		.long	-915552318
 1389 0438 B6543B33 		.long	859526326
 1390 043c FA7CE49B 		.long	-1679524614
 1391 0440 9992CF1D 		.long	500142745
 1392 0444 995FEAE7 		.long	-404070503
 1393 0448 CDEA8FB3 		.long	-1282413875
 1394 044c F7E2CFC3 		.long	-1009786121
 1395 0450 22E8875B 		.long	1535633442
 1396 0454 56ABC539 		.long	969255766
 1397 0458 8FA1F418 		.long	418685327
 1398 045c 9C4D482D 		.long	759713180
 1399 0460 19D56341 		.long	1097061657
 1400 0464 989E7679 		.long	2037816984
 1401 0468 F0678AF5 		.long	-175478800
 1402 046c 020C5940 		.long	1079577602
 1403 0470 C0719631 		.long	831943104
 1404 0474 3A136B26 		.long	644551482
 1405 0478 87B281AF 		.long	-1350454649
 1406 047c 37F7316A 		.long	1781659447
 1407 0480 9701BCE3 		.long	-474218089
 1408 0484 13990755 		.long	1426561299
 1409 0488 96C6729F 		.long	-1619868010
 1410 048c C8003E36 		.long	910033096
 1411 0490 47391553 		.long	1393899847
 1412 0494 7F12FDEB 		.long	-335736193
 1413 0498 1905F600 		.long	16123161
 1414 049c 2AB6A646 		.long	1185330730
 1415 04a0 8033B893 		.long	-1816644736
 1416 04a4 2493E23F 		.long	1071813412
 1417 04a8 9170C6DF 		.long	-540643183
 1418 04ac 6D38620F 		.long	258095213
 1419 04b0 795E37DC 		.long	-600351111
 1420 04b4 3E3FEA8F 		.long	-1880473794
 1421 04b8 D06384DF 		.long	-544971824
 1422 04bc 7BFA0237 		.long	922942075
 1423 04c0 5E435439 		.long	961823582
 1424 04c4 48A6CA87 		.long	-2016762296
 1425 04c8 EE8B15A9 		.long	-1458205714
 1426 04cc 250CF308 		.long	150146085
 1427 04d0 3629B866 		.long	1723345206
 1428 04d4 EB3FFCE7 		.long	-402898965
 1429 04d8 50543C18 		.long	406606928
 1430 04dc 4543EFD7 		.long	-672185531
 1431 04e0 63798C79 		.long	2039249251
 1432 04e4 57F52CC0 		.long	-1070795433
 1433 04e8 D1538509 		.long	159732689
 1434 04ec AA1243FA 		.long	-96267606
 1435 04f0 83F89EE2 		.long	-492898173
 1436 04f4 8D12AF7C 		.long	2091848333
 1437 04f8 7DA0B374 		.long	1957929085
 1438 04fc 00000000 		.space 896
 1438      00000000 
 1438      00000000 
 1438      00000000 
 1438      00000000 
 1439              		.align 4
 1440              	LC1:
 1441 087c 00007A44 		.long	1148846080
 1442              		.align 4
 1443              	LC2:
 1444 0880 0000C851 		.long	1372061696
 1445              		.align 4
 1446              	LC3:
 1447 0884 00008030 		.long	813694976
 1448              		.align 4
 1449              	LC4:
 1450 0888 286B6E4E 		.long	1315859240
 1451              		.ident	"GCC: (i686-posix-sjlj-rev2, Built by MinGW-W64 project) 4.9.2"
DEFINED SYMBOLS
                            *ABS*:0000000000000000 main.cpp
  M:\Temp\ccqYYV6e.s:6      .text:0000000000000000 __Z11farsh_keyedPKvjS0_
  M:\Temp\ccqYYV6e.s:376    .text:00000000000004b0 __Z13farsh_keyed_nPKvjS0_iPv
  M:\Temp\ccqYYV6e.s:574    .text:0000000000000750 __Z7farsh_nPKvjiiPv
  M:\Temp\ccqYYV6e.s:1150   .rdata:0000000000000080 __ZL10FARSH_KEYS
  M:\Temp\ccqYYV6e.s:774    .text:0000000000000a00 __Z5farshPKvj
  M:\Temp\ccqYYV6e.s:797    .text.startup:0000000000000000 _main
  M:\Temp\ccqYYV6e.s:1147   .bss:0000000000000000 __ZZ4mainE4data

UNDEFINED SYMBOLS
___main
__imp__QueryPerformanceFrequency@4
__imp__QueryPerformanceCounter@4
_printf
