   1              		.file	"main.cpp"
   2              		.text
   3              		.p2align 4,,15
   4              		.globl	_Z11farsh_keyedPKvyS0_
   6              		.seh_proc	_Z11farsh_keyedPKvyS0_
   7              	_Z11farsh_keyedPKvyS0_:
   8 0000 4157     		pushq	%r15
   9              		.seh_pushreg	%r15
  10 0002 4156     		pushq	%r14
  11              		.seh_pushreg	%r14
  12 0004 4155     		pushq	%r13
  13              		.seh_pushreg	%r13
  14 0006 4154     		pushq	%r12
  15              		.seh_pushreg	%r12
  16 0008 55       		pushq	%rbp
  17              		.seh_pushreg	%rbp
  18 0009 57       		pushq	%rdi
  19              		.seh_pushreg	%rdi
  20 000a 56       		pushq	%rsi
  21              		.seh_pushreg	%rsi
  22 000b 53       		pushq	%rbx
  23              		.seh_pushreg	%rbx
  24 000c 4883EC58 		subq	$88, %rsp
  25              		.seh_stackalloc	88
  26              		.seh_endprologue
  27 0010 488D0411 		leaq	(%rcx,%rdx), %rax
  28 0014 4889CB   		movq	%rcx, %rbx
  29 0017 4C89C6   		movq	%r8, %rsi
  30 001a 4839C1   		cmpq	%rax, %rcx
  31 001d 48894424 		movq	%rax, 40(%rsp)
  31      28
  32 0022 0F83AC03 		jae	.L14
  32      0000
  33 0028 4881FA00 		cmpq	$1024, %rdx
  33      040000
  34 002f 41BF0004 		movl	$1024, %r15d
  34      0000
  35 0035 41BD0000 		movl	$0, %r13d
  35      0000
  36 003b 4C0F46FA 		cmovbe	%rdx, %r15
  37 003f 4C8D5424 		leaq	64(%rsp), %r10
  37      40
  38 0044 4C89FF   		movq	%r15, %rdi
  39 0047 4D89FE   		movq	%r15, %r14
  40 004a 48C1EF02 		shrq	$2, %rdi
  41 004e 4883E7FE 		andq	$-2, %rdi
  42 0052 488D14BD 		leaq	0(,%rdi,4), %rdx
  42      00000000 
  43 005a 4929D6   		subq	%rdx, %r14
  44 005d 48895424 		movq	%rdx, 48(%rsp)
  44      30
  45 0062 4D0F45EA 		cmovne	%r10, %r13
  46 0066 4531E4   		xorl	%r12d, %r12d
  47 0069 31ED     		xorl	%ebp, %ebp
  48 006b 4C896C24 		movq	%r13, 56(%rsp)
  48      38
  49 0070 4531ED   		xorl	%r13d, %r13d
  50              		.p2align 4,,10
  51              	.L12:
  52 0073 4981FF00 		cmpq	$1024, %r15
  52      040000
  53 007a 0F841002 		je	.L53
  53      0000
  54 0080 488B4C24 		movq	48(%rsp), %rcx
  54      30
  55 0085 4D89F0   		movq	%r14, %r8
  56 0088 48C74424 		movq	$0, 64(%rsp)
  56      40000000 
  56      00
  57 0091 488D140B 		leaq	(%rbx,%rcx), %rdx
  58 0095 4C89D1   		movq	%r10, %rcx
  59 0098 E8000000 		call	memcpy
  59      00
  60 009d 4D85F6   		testq	%r14, %r14
  61 00a0 4989C2   		movq	%rax, %r10
  62 00a3 0F849C01 		je	.L54
  62      0000
  63 00a9 4885FF   		testq	%rdi, %rdi
  64 00ac 0F841103 		je	.L55
  64      0000
  65              	.L8:
  66 00b2 448B5B04 		movl	4(%rbx), %r11d
  67 00b6 488D57FF 		leaq	-1(%rdi), %rdx
  68 00ba 448B0B   		movl	(%rbx), %r9d
  69 00bd 48D1EA   		shrq	%rdx
  70 00c0 44030E   		addl	(%rsi), %r9d
  71 00c3 83E203   		andl	$3, %edx
  72 00c6 4489D9   		movl	%r11d, %ecx
  73 00c9 034E04   		addl	4(%rsi), %ecx
  74 00cc 41BB0200 		movl	$2, %r11d
  74      0000
  75 00d2 4C0FAFC9 		imulq	%rcx, %r9
  76 00d6 4883FF02 		cmpq	$2, %rdi
  77 00da 0F86ED00 		jbe	.L46
  77      0000
  78 00e0 4885D2   		testq	%rdx, %rdx
  79 00e3 746D     		je	.L18
  80 00e5 4883FA01 		cmpq	$1, %rdx
  81 00e9 7443     		je	.L40
  82 00eb 4883FA02 		cmpq	$2, %rdx
  83 00ef 741D     		je	.L41
  84 00f1 448B430C 		movl	12(%rbx), %r8d
  85 00f5 41BB0400 		movl	$4, %r11d
  85      0000
  86 00fb 8B5308   		movl	8(%rbx), %edx
  87 00fe 035608   		addl	8(%rsi), %edx
  88 0101 4489C0   		movl	%r8d, %eax
  89 0104 03460C   		addl	12(%rsi), %eax
  90 0107 480FAFD0 		imulq	%rax, %rdx
  91 010b 4901D1   		addq	%rdx, %r9
  92              	.L41:
  93 010e 428B4C9B 		movl	4(%rbx,%r11,4), %ecx
  93      04
  94 0113 428B049B 		movl	(%rbx,%r11,4), %eax
  95 0117 4203049E 		addl	(%rsi,%r11,4), %eax
  96 011b 4189C8   		movl	%ecx, %r8d
  97 011e 4603449E 		addl	4(%rsi,%r11,4), %r8d
  97      04
  98 0123 4983C302 		addq	$2, %r11
  99 0127 490FAFC0 		imulq	%r8, %rax
 100 012b 4901C1   		addq	%rax, %r9
 101              	.L40:
 102 012e 428B549B 		movl	4(%rbx,%r11,4), %edx
 102      04
 103 0133 468B049B 		movl	(%rbx,%r11,4), %r8d
 104 0137 4603049E 		addl	(%rsi,%r11,4), %r8d
 105 013b 89D1     		movl	%edx, %ecx
 106 013d 42034C9E 		addl	4(%rsi,%r11,4), %ecx
 106      04
 107 0142 4983C302 		addq	$2, %r11
 108 0146 4C0FAFC1 		imulq	%rcx, %r8
 109 014a 4D01C1   		addq	%r8, %r9
 110 014d 4C39DF   		cmpq	%r11, %rdi
 111 0150 767B     		jbe	.L46
 112              	.L18:
 113 0152 428B449B 		movl	4(%rbx,%r11,4), %eax
 113      04
 114 0157 4D8D4302 		leaq	2(%r11), %r8
 115 015b 428B149B 		movl	(%rbx,%r11,4), %edx
 116 015f 4203149E 		addl	(%rsi,%r11,4), %edx
 117 0163 89C1     		movl	%eax, %ecx
 118 0165 42034C9E 		addl	4(%rsi,%r11,4), %ecx
 118      04
 119 016a 428B4483 		movl	4(%rbx,%r8,4), %eax
 119      04
 120 016f 42034486 		addl	4(%rsi,%r8,4), %eax
 120      04
 121 0174 480FAFD1 		imulq	%rcx, %rdx
 122 0178 428B0C83 		movl	(%rbx,%r8,4), %ecx
 123 017c 42030C86 		addl	(%rsi,%r8,4), %ecx
 124 0180 480FAFC1 		imulq	%rcx, %rax
 125 0184 4901D1   		addq	%rdx, %r9
 126 0187 498D5304 		leaq	4(%r11), %rdx
 127 018b 448B4493 		movl	4(%rbx,%rdx,4), %r8d
 127      04
 128 0190 44034496 		addl	4(%rsi,%rdx,4), %r8d
 128      04
 129 0195 4D8D0C01 		leaq	(%r9,%rax), %r9
 130 0199 8B0493   		movl	(%rbx,%rdx,4), %eax
 131 019c 030496   		addl	(%rsi,%rdx,4), %eax
 132 019f 490FAFC0 		imulq	%r8, %rax
 133 01a3 4D8D4306 		leaq	6(%r11), %r8
 134 01a7 4983C308 		addq	$8, %r11
 135 01ab 428B1483 		movl	(%rbx,%r8,4), %edx
 136 01af 42031486 		addl	(%rsi,%r8,4), %edx
 137 01b3 498D0C01 		leaq	(%r9,%rax), %rcx
 138 01b7 468B4C83 		movl	4(%rbx,%r8,4), %r9d
 138      04
 139 01bc 46034C86 		addl	4(%rsi,%r8,4), %r9d
 139      04
 140 01c1 4C0FAFCA 		imulq	%rdx, %r9
 141 01c5 4901C9   		addq	%rcx, %r9
 142 01c8 4C39DF   		cmpq	%r11, %rdi
 143 01cb 7785     		ja	.L18
 144              	.L46:
 145 01cd 488B4C24 		movq	56(%rsp), %rcx
 145      38
 146 01d2 49C1E302 		salq	$2, %r11
 147 01d6 4D8D4304 		leaq	4(%r11), %r8
 148 01da 4885C9   		testq	%rcx, %rcx
 149 01dd 4889C8   		movq	%rcx, %rax
 150 01e0 7414     		je	.L50
 151              	.L13:
 152 01e2 8B5004   		movl	4(%rax), %edx
 153 01e5 8B00     		movl	(%rax), %eax
 154 01e7 42031406 		addl	(%rsi,%r8), %edx
 155 01eb 4203041E 		addl	(%rsi,%r11), %eax
 156 01ef 480FAFD0 		imulq	%rax, %rdx
 157 01f3 4901D1   		addq	%rdx, %r9
 158              	.L50:
 159 01f6 4D89CB   		movq	%r9, %r11
 160 01f9 49C1EB20 		shrq	$32, %r11
 161 01fd 4501D9   		addl	%r11d, %r9d
 162              	.L5:
 163 0200 4C63C5   		movslq	%ebp, %r8
 164 0203 83C501   		addl	$1, %ebp
 165 0206 4C01FB   		addq	%r15, %rbx
 166 0209 428B0C86 		movl	(%rsi,%r8,4), %ecx
 167 020d 4C01F9   		addq	%r15, %rcx
 168 0210 4C0FAFC9 		imulq	%rcx, %r9
 169 0214 4D01CD   		addq	%r9, %r13
 170 0217 81FD0001 		cmpl	$256, %ebp
 170      0000
 171 021d 7434     		je	.L56
 172              	.L11:
 173 021f 48395C24 		cmpq	%rbx, 40(%rsp)
 173      28
 174 0224 0F8749FE 		ja	.L12
 174      FFFF
 175 022a 4C89E8   		movq	%r13, %rax
 176 022d 48C1E820 		shrq	$32, %rax
 177 0231 4401E8   		addl	%r13d, %eax
 178              	.L47:
 179 0234 4883C458 		addq	$88, %rsp
 180 0238 5B       		popq	%rbx
 181 0239 5E       		popq	%rsi
 182 023a 5F       		popq	%rdi
 183 023b 5D       		popq	%rbp
 184 023c 415C     		popq	%r12
 185 023e 415D     		popq	%r13
 186 0240 415E     		popq	%r14
 187 0242 415F     		popq	%r15
 188 0244 C3       		ret
 189              		.p2align 4,,10
 190              	.L54:
 191 0245 4531C9   		xorl	%r9d, %r9d
 192 0248 4885FF   		testq	%rdi, %rdi
 193 024b 0F8561FE 		jne	.L8
 193      FFFF
 194 0251 EBAD     		jmp	.L5
 195              		.p2align 4,,10
 196              	.L56:
 197 0253 4963C4   		movslq	%r12d, %rax
 198 0256 4C89EA   		movq	%r13, %rdx
 199 0259 4183C401 		addl	$1, %r12d
 200 025d 448B0C86 		movl	(%rsi,%rax,4), %r9d
 201 0261 48C1EA20 		shrq	$32, %rdx
 202 0265 6631ED   		xorw	%bp, %bp
 203 0268 41B80000 		movl	$0, %r8d
 203      0000
 204 026e 468D1C2A 		leal	(%rdx,%r13), %r11d
 205 0272 4D0FAFCB 		imulq	%r11, %r9
 206 0276 4D01CD   		addq	%r9, %r13
 207 0279 4181FC00 		cmpl	$256, %r12d
 207      010000
 208 0280 450F44E0 		cmove	%r8d, %r12d
 209 0284 EB99     		jmp	.L11
 210 0286 662E0F1F 		.p2align 4,,10
 210      84000000 
 210      0000
 211              	.L53:
 212 0290 4531C9   		xorl	%r9d, %r9d
 213 0293 660FEFC0 		pxor	%xmm0, %xmm0
 214 0297 660F1F84 		.p2align 4,,10
 214      00000000 
 214      00
 215              	.L4:
 216 02a0 F3420F6F 		movdqu	(%rsi,%r9), %xmm1
 216      0C0E
 217 02a6 F3420F6F 		movdqu	(%rbx,%r9), %xmm3
 217      1C0B
 218 02ac F3420F6F 		movdqu	16(%rsi,%r9), %xmm5
 218      6C0E10
 219 02b3 660FFED9 		paddd	%xmm1, %xmm3
 220 02b7 F3420F6F 		movdqu	16(%rbx,%r9), %xmm4
 220      640B10
 221 02be 660F70D3 		pshufd	$49, %xmm3, %xmm2
 221      31
 222 02c3 660FF4DA 		pmuludq	%xmm2, %xmm3
 223 02c7 F3420F6F 		movdqu	32(%rsi,%r9), %xmm1
 223      4C0E20
 224 02ce 660FFEE5 		paddd	%xmm5, %xmm4
 225 02d2 F3420F6F 		movdqu	32(%rbx,%r9), %xmm2
 225      540B20
 226 02d9 F3420F6F 		movdqu	48(%rbx,%r9), %xmm5
 226      6C0B30
 227 02e0 660FD4C3 		paddq	%xmm3, %xmm0
 228 02e4 660F70DC 		pshufd	$49, %xmm4, %xmm3
 228      31
 229 02e9 660FF4E3 		pmuludq	%xmm3, %xmm4
 230 02ed 660FFECA 		paddd	%xmm2, %xmm1
 231 02f1 F3420F6F 		movdqu	64(%rbx,%r9), %xmm2
 231      540B40
 232 02f8 660FD4C4 		paddq	%xmm4, %xmm0
 233 02fc 660F70E1 		pshufd	$49, %xmm1, %xmm4
 233      31
 234 0301 660FF4CC 		pmuludq	%xmm4, %xmm1
 235 0305 660FD4C8 		paddq	%xmm0, %xmm1
 236 0309 F3420F6F 		movdqu	48(%rsi,%r9), %xmm0
 236      440E30
 237 0310 660FFEC5 		paddd	%xmm5, %xmm0
 238 0314 F3420F6F 		movdqu	80(%rbx,%r9), %xmm5
 238      6C0B50
 239 031b 660F70D8 		pshufd	$49, %xmm0, %xmm3
 239      31
 240 0320 660FF4C3 		pmuludq	%xmm3, %xmm0
 241 0324 660FD4C1 		paddq	%xmm1, %xmm0
 242 0328 F3420F6F 		movdqu	64(%rsi,%r9), %xmm1
 242      4C0E40
 243 032f 660FFECA 		paddd	%xmm2, %xmm1
 244 0333 F3420F6F 		movdqu	96(%rbx,%r9), %xmm2
 244      540B60
 245 033a 660F70E1 		pshufd	$49, %xmm1, %xmm4
 245      31
 246 033f 660FF4CC 		pmuludq	%xmm4, %xmm1
 247 0343 660FD4C8 		paddq	%xmm0, %xmm1
 248 0347 F3420F6F 		movdqu	80(%rsi,%r9), %xmm0
 248      440E50
 249 034e 660FFEC5 		paddd	%xmm5, %xmm0
 250 0352 F3420F6F 		movdqu	112(%rbx,%r9), %xmm5
 250      6C0B70
 251 0359 660F70D8 		pshufd	$49, %xmm0, %xmm3
 251      31
 252 035e 660FF4C3 		pmuludq	%xmm3, %xmm0
 253 0362 660FD4C1 		paddq	%xmm1, %xmm0
 254 0366 F3420F6F 		movdqu	96(%rsi,%r9), %xmm1
 254      4C0E60
 255 036d 660FFECA 		paddd	%xmm2, %xmm1
 256 0371 660F70E1 		pshufd	$49, %xmm1, %xmm4
 256      31
 257 0376 660FF4CC 		pmuludq	%xmm4, %xmm1
 258 037a 660FD4C8 		paddq	%xmm0, %xmm1
 259 037e F3420F6F 		movdqu	112(%rsi,%r9), %xmm0
 259      440E70
 260 0385 4983E980 		subq	$-128, %r9
 261 0389 4981F900 		cmpq	$1024, %r9
 261      040000
 262 0390 660FFEC5 		paddd	%xmm5, %xmm0
 263 0394 660F70D8 		pshufd	$49, %xmm0, %xmm3
 263      31
 264 0399 660FF4C3 		pmuludq	%xmm3, %xmm0
 265 039d 660FD4C1 		paddq	%xmm1, %xmm0
 266 03a1 0F85F9FE 		jne	.L4
 266      FFFF
 267 03a7 660F70D0 		pshufd	$14, %xmm0, %xmm2
 267      0E
 268 03ac 660FD4C2 		paddq	%xmm2, %xmm0
 269 03b0 660F70C8 		pshufd	$1, %xmm0, %xmm1
 269      01
 270 03b5 660FFEC1 		paddd	%xmm1, %xmm0
 271 03b9 66410F7E 		movd	%xmm0, %r9d
 271      C1
 272 03be E93DFEFF 		jmp	.L5
 272      FF
 273              		.p2align 4,,10
 274              	.L55:
 275 03c3 41B80400 		movl	$4, %r8d
 275      0000
 276 03c9 4531DB   		xorl	%r11d, %r11d
 277 03cc 4531C9   		xorl	%r9d, %r9d
 278 03cf E90EFEFF 		jmp	.L13
 278      FF
 279              	.L14:
 280 03d4 31C0     		xorl	%eax, %eax
 281 03d6 E959FEFF 		jmp	.L47
 281      FF
 282              		.seh_endproc
 283 03db 0F1F4400 		.p2align 4,,15
 283      00
 284              		.globl	_Z13farsh_keyed_nPKvyS0_iPv
 286              		.seh_proc	_Z13farsh_keyed_nPKvyS0_iPv
 287              	_Z13farsh_keyed_nPKvyS0_iPv:
 288 03e0 4156     		pushq	%r14
 289              		.seh_pushreg	%r14
 290 03e2 4155     		pushq	%r13
 291              		.seh_pushreg	%r13
 292 03e4 4154     		pushq	%r12
 293              		.seh_pushreg	%r12
 294 03e6 55       		pushq	%rbp
 295              		.seh_pushreg	%rbp
 296 03e7 57       		pushq	%rdi
 297              		.seh_pushreg	%rdi
 298 03e8 56       		pushq	%rsi
 299              		.seh_pushreg	%rsi
 300 03e9 53       		pushq	%rbx
 301              		.seh_pushreg	%rbx
 302 03ea 4883EC20 		subq	$32, %rsp
 303              		.seh_stackalloc	32
 304              		.seh_endprologue
 305 03ee 4C8BA424 		movq	128(%rsp), %r12
 305      80000000 
 306 03f6 4585C9   		testl	%r9d, %r9d
 307 03f9 0F8ECB01 		jle	.L57
 307      0000
 308 03ff 458D69FF 		leal	-1(%r9), %r13d
 309 0403 BB040000 		movl	$4, %ebx
 309      00
 310 0408 4C89C5   		movq	%r8, %rbp
 311 040b 4E8D34AD 		leaq	4(,%r13,4), %r14
 311      04000000 
 312 0413 4889D7   		movq	%rdx, %rdi
 313 0416 4889CE   		movq	%rcx, %rsi
 314 0419 E8E2FBFF 		call	_Z11farsh_keyedPKvyS0_
 314      FF
 315 041e 4183E507 		andl	$7, %r13d
 316 0422 4C39F3   		cmpq	%r14, %rbx
 317 0425 41890424 		movl	%eax, (%r12)
 318 0429 0F849B01 		je	.L57
 318      0000
 319 042f 4D85ED   		testq	%r13, %r13
 320 0432 0F84DE00 		je	.L59
 320      0000
 321 0438 4983FD01 		cmpq	$1, %r13
 322 043c 0F84B300 		je	.L85
 322      0000
 323 0442 4983FD02 		cmpq	$2, %r13
 324 0446 0F849100 		je	.L86
 324      0000
 325 044c 4983FD03 		cmpq	$3, %r13
 326 0450 7473     		je	.L87
 327 0452 4983FD04 		cmpq	$4, %r13
 328 0456 7455     		je	.L88
 329 0458 4983FD05 		cmpq	$5, %r13
 330 045c 7437     		je	.L89
 331 045e 4983FD06 		cmpq	$6, %r13
 332 0462 7419     		je	.L90
 333 0464 4C8D4504 		leaq	4(%rbp), %r8
 334 0468 4889FA   		movq	%rdi, %rdx
 335 046b 4889F1   		movq	%rsi, %rcx
 336 046e E88DFBFF 		call	_Z11farsh_keyedPKvyS0_
 336      FF
 337 0473 BB080000 		movl	$8, %ebx
 337      00
 338 0478 41894424 		movl	%eax, 4(%r12)
 338      04
 339              	.L90:
 340 047d 4C8D441D 		leaq	0(%rbp,%rbx), %r8
 340      00
 341 0482 4889FA   		movq	%rdi, %rdx
 342 0485 4889F1   		movq	%rsi, %rcx
 343 0488 E873FBFF 		call	_Z11farsh_keyedPKvyS0_
 343      FF
 344 048d 4189041C 		movl	%eax, (%r12,%rbx)
 345 0491 4883C304 		addq	$4, %rbx
 346              	.L89:
 347 0495 4C8D441D 		leaq	0(%rbp,%rbx), %r8
 347      00
 348 049a 4889FA   		movq	%rdi, %rdx
 349 049d 4889F1   		movq	%rsi, %rcx
 350 04a0 E85BFBFF 		call	_Z11farsh_keyedPKvyS0_
 350      FF
 351 04a5 4189041C 		movl	%eax, (%r12,%rbx)
 352 04a9 4883C304 		addq	$4, %rbx
 353              	.L88:
 354 04ad 4C8D441D 		leaq	0(%rbp,%rbx), %r8
 354      00
 355 04b2 4889FA   		movq	%rdi, %rdx
 356 04b5 4889F1   		movq	%rsi, %rcx
 357 04b8 E843FBFF 		call	_Z11farsh_keyedPKvyS0_
 357      FF
 358 04bd 4189041C 		movl	%eax, (%r12,%rbx)
 359 04c1 4883C304 		addq	$4, %rbx
 360              	.L87:
 361 04c5 4C8D441D 		leaq	0(%rbp,%rbx), %r8
 361      00
 362 04ca 4889FA   		movq	%rdi, %rdx
 363 04cd 4889F1   		movq	%rsi, %rcx
 364 04d0 E82BFBFF 		call	_Z11farsh_keyedPKvyS0_
 364      FF
 365 04d5 4189041C 		movl	%eax, (%r12,%rbx)
 366 04d9 4883C304 		addq	$4, %rbx
 367              	.L86:
 368 04dd 4C8D441D 		leaq	0(%rbp,%rbx), %r8
 368      00
 369 04e2 4889FA   		movq	%rdi, %rdx
 370 04e5 4889F1   		movq	%rsi, %rcx
 371 04e8 E813FBFF 		call	_Z11farsh_keyedPKvyS0_
 371      FF
 372 04ed 4189041C 		movl	%eax, (%r12,%rbx)
 373 04f1 4883C304 		addq	$4, %rbx
 374              	.L85:
 375 04f5 4C8D441D 		leaq	0(%rbp,%rbx), %r8
 375      00
 376 04fa 4889FA   		movq	%rdi, %rdx
 377 04fd 4889F1   		movq	%rsi, %rcx
 378 0500 E8FBFAFF 		call	_Z11farsh_keyedPKvyS0_
 378      FF
 379 0505 4189041C 		movl	%eax, (%r12,%rbx)
 380 0509 4883C304 		addq	$4, %rbx
 381 050d 4C39F3   		cmpq	%r14, %rbx
 382 0510 0F84B400 		je	.L57
 382      0000
 383              	.L59:
 384 0516 4C8D441D 		leaq	0(%rbp,%rbx), %r8
 384      00
 385 051b 4889FA   		movq	%rdi, %rdx
 386 051e 4889F1   		movq	%rsi, %rcx
 387 0521 E8DAFAFF 		call	_Z11farsh_keyedPKvyS0_
 387      FF
 388 0526 4C8D441D 		leaq	4(%rbp,%rbx), %r8
 388      04
 389 052b 4889FA   		movq	%rdi, %rdx
 390 052e 4889F1   		movq	%rsi, %rcx
 391 0531 4189041C 		movl	%eax, (%r12,%rbx)
 392 0535 E8C6FAFF 		call	_Z11farsh_keyedPKvyS0_
 392      FF
 393 053a 4C8D441D 		leaq	8(%rbp,%rbx), %r8
 393      08
 394 053f 4889FA   		movq	%rdi, %rdx
 395 0542 4889F1   		movq	%rsi, %rcx
 396 0545 4189441C 		movl	%eax, 4(%r12,%rbx)
 396      04
 397 054a E8B1FAFF 		call	_Z11farsh_keyedPKvyS0_
 397      FF
 398 054f 4C8D441D 		leaq	12(%rbp,%rbx), %r8
 398      0C
 399 0554 4889FA   		movq	%rdi, %rdx
 400 0557 4889F1   		movq	%rsi, %rcx
 401 055a 4189441C 		movl	%eax, 8(%r12,%rbx)
 401      08
 402 055f E89CFAFF 		call	_Z11farsh_keyedPKvyS0_
 402      FF
 403 0564 4C8D441D 		leaq	16(%rbp,%rbx), %r8
 403      10
 404 0569 4889FA   		movq	%rdi, %rdx
 405 056c 4889F1   		movq	%rsi, %rcx
 406 056f 4189441C 		movl	%eax, 12(%r12,%rbx)
 406      0C
 407 0574 E887FAFF 		call	_Z11farsh_keyedPKvyS0_
 407      FF
 408 0579 4C8D441D 		leaq	20(%rbp,%rbx), %r8
 408      14
 409 057e 4889FA   		movq	%rdi, %rdx
 410 0581 4889F1   		movq	%rsi, %rcx
 411 0584 4189441C 		movl	%eax, 16(%r12,%rbx)
 411      10
 412 0589 E872FAFF 		call	_Z11farsh_keyedPKvyS0_
 412      FF
 413 058e 4C8D441D 		leaq	24(%rbp,%rbx), %r8
 413      18
 414 0593 4889FA   		movq	%rdi, %rdx
 415 0596 4889F1   		movq	%rsi, %rcx
 416 0599 4189441C 		movl	%eax, 20(%r12,%rbx)
 416      14
 417 059e E85DFAFF 		call	_Z11farsh_keyedPKvyS0_
 417      FF
 418 05a3 4C8D441D 		leaq	28(%rbp,%rbx), %r8
 418      1C
 419 05a8 4889FA   		movq	%rdi, %rdx
 420 05ab 4889F1   		movq	%rsi, %rcx
 421 05ae 4189441C 		movl	%eax, 24(%r12,%rbx)
 421      18
 422 05b3 E848FAFF 		call	_Z11farsh_keyedPKvyS0_
 422      FF
 423 05b8 4189441C 		movl	%eax, 28(%r12,%rbx)
 423      1C
 424 05bd 4883C320 		addq	$32, %rbx
 425 05c1 4C39F3   		cmpq	%r14, %rbx
 426 05c4 0F854CFF 		jne	.L59
 426      FFFF
 427              	.L57:
 428 05ca 4883C420 		addq	$32, %rsp
 429 05ce 5B       		popq	%rbx
 430 05cf 5E       		popq	%rsi
 431 05d0 5F       		popq	%rdi
 432 05d1 5D       		popq	%rbp
 433 05d2 415C     		popq	%r12
 434 05d4 415D     		popq	%r13
 435 05d6 415E     		popq	%r14
 436 05d8 C3       		ret
 437              		.seh_endproc
 438 05d9 0F1F8000 		.p2align 4,,15
 438      000000
 439              		.globl	_Z7farsh_nPKvyiiPv
 441              		.seh_proc	_Z7farsh_nPKvyiiPv
 442              	_Z7farsh_nPKvyiiPv:
 443 05e0 4157     		pushq	%r15
 444              		.seh_pushreg	%r15
 445 05e2 4156     		pushq	%r14
 446              		.seh_pushreg	%r14
 447 05e4 4155     		pushq	%r13
 448              		.seh_pushreg	%r13
 449 05e6 4154     		pushq	%r12
 450              		.seh_pushreg	%r12
 451 05e8 55       		pushq	%rbp
 452              		.seh_pushreg	%rbp
 453 05e9 57       		pushq	%rdi
 454              		.seh_pushreg	%rdi
 455 05ea 56       		pushq	%rsi
 456              		.seh_pushreg	%rsi
 457 05eb 53       		pushq	%rbx
 458              		.seh_pushreg	%rbx
 459 05ec 4883EC28 		subq	$40, %rsp
 460              		.seh_stackalloc	40
 461              		.seh_endprologue
 462 05f0 4C8BA424 		movq	144(%rsp), %r12
 462      90000000 
 463 05f8 4D63C0   		movslq	%r8d, %r8
 464 05fb 4585C9   		testl	%r9d, %r9d
 465 05fe 4A8D3485 		leaq	0(,%r8,4), %rsi
 465      00000000 
 466 0606 0F8E0701 		jle	.L98
 466      0000
 467 060c 4183E901 		subl	$1, %r9d
 468 0610 BB040000 		movl	$4, %ebx
 468      00
 469 0615 4889D5   		movq	%rdx, %rbp
 470 0618 4C8D2D80 		leaq	_ZL10FARSH_KEYS(%rip), %r13
 470      000000
 471 061f 4D89CF   		movq	%r9, %r15
 472 0622 4889CF   		movq	%rcx, %rdi
 473 0625 4E8D348D 		leaq	4(,%r9,4), %r14
 473      04000000 
 474 062d 4183E703 		andl	$3, %r15d
 475 0631 4D8D4435 		leaq	0(%r13,%rsi), %r8
 475      00
 476 0636 E8C5F9FF 		call	_Z11farsh_keyedPKvyS0_
 476      FF
 477 063b 4C39F3   		cmpq	%r14, %rbx
 478 063e 41890424 		movl	%eax, (%r12)
 479 0642 0F84CB00 		je	.L98
 479      0000
 480 0648 4D85FF   		testq	%r15, %r15
 481 064b 745F     		je	.L100
 482 064d 4983FF01 		cmpq	$1, %r15
 483 0651 743A     		je	.L114
 484 0653 4983FF02 		cmpq	$2, %r15
 485 0657 741A     		je	.L115
 486 0659 4D8D4435 		leaq	4(%r13,%rsi), %r8
 486      04
 487 065e 4889EA   		movq	%rbp, %rdx
 488 0661 4889F9   		movq	%rdi, %rcx
 489 0664 E897F9FF 		call	_Z11farsh_keyedPKvyS0_
 489      FF
 490 0669 BB080000 		movl	$8, %ebx
 490      00
 491 066e 41894424 		movl	%eax, 4(%r12)
 491      04
 492              	.L115:
 493 0673 4C8D0433 		leaq	(%rbx,%rsi), %r8
 494 0677 4889EA   		movq	%rbp, %rdx
 495 067a 4889F9   		movq	%rdi, %rcx
 496 067d 4D01E8   		addq	%r13, %r8
 497 0680 E87BF9FF 		call	_Z11farsh_keyedPKvyS0_
 497      FF
 498 0685 4189041C 		movl	%eax, (%r12,%rbx)
 499 0689 4883C304 		addq	$4, %rbx
 500              	.L114:
 501 068d 4C8D0433 		leaq	(%rbx,%rsi), %r8
 502 0691 4889EA   		movq	%rbp, %rdx
 503 0694 4889F9   		movq	%rdi, %rcx
 504 0697 4D01E8   		addq	%r13, %r8
 505 069a E861F9FF 		call	_Z11farsh_keyedPKvyS0_
 505      FF
 506 069f 4189041C 		movl	%eax, (%r12,%rbx)
 507 06a3 4883C304 		addq	$4, %rbx
 508 06a7 4C39F3   		cmpq	%r14, %rbx
 509 06aa 7467     		je	.L98
 510              	.L100:
 511 06ac 4C8D0433 		leaq	(%rbx,%rsi), %r8
 512 06b0 4889EA   		movq	%rbp, %rdx
 513 06b3 4889F9   		movq	%rdi, %rcx
 514 06b6 4D01E8   		addq	%r13, %r8
 515 06b9 E842F9FF 		call	_Z11farsh_keyedPKvyS0_
 515      FF
 516 06be 4C8D441E 		leaq	4(%rsi,%rbx), %r8
 516      04
 517 06c3 4889EA   		movq	%rbp, %rdx
 518 06c6 4889F9   		movq	%rdi, %rcx
 519 06c9 4D01E8   		addq	%r13, %r8
 520 06cc 4189041C 		movl	%eax, (%r12,%rbx)
 521 06d0 E82BF9FF 		call	_Z11farsh_keyedPKvyS0_
 521      FF
 522 06d5 4C8D441E 		leaq	8(%rsi,%rbx), %r8
 522      08
 523 06da 4889EA   		movq	%rbp, %rdx
 524 06dd 4889F9   		movq	%rdi, %rcx
 525 06e0 4D01E8   		addq	%r13, %r8
 526 06e3 4189441C 		movl	%eax, 4(%r12,%rbx)
 526      04
 527 06e8 E813F9FF 		call	_Z11farsh_keyedPKvyS0_
 527      FF
 528 06ed 4C8D441E 		leaq	12(%rsi,%rbx), %r8
 528      0C
 529 06f2 4889EA   		movq	%rbp, %rdx
 530 06f5 4889F9   		movq	%rdi, %rcx
 531 06f8 4189441C 		movl	%eax, 8(%r12,%rbx)
 531      08
 532 06fd 4D01E8   		addq	%r13, %r8
 533 0700 E8FBF8FF 		call	_Z11farsh_keyedPKvyS0_
 533      FF
 534 0705 4189441C 		movl	%eax, 12(%r12,%rbx)
 534      0C
 535 070a 4883C310 		addq	$16, %rbx
 536 070e 4C39F3   		cmpq	%r14, %rbx
 537 0711 7599     		jne	.L100
 538              	.L98:
 539 0713 4883C428 		addq	$40, %rsp
 540 0717 5B       		popq	%rbx
 541 0718 5E       		popq	%rsi
 542 0719 5F       		popq	%rdi
 543 071a 5D       		popq	%rbp
 544 071b 415C     		popq	%r12
 545 071d 415D     		popq	%r13
 546 071f 415E     		popq	%r14
 547 0721 415F     		popq	%r15
 548 0723 C3       		ret
 549              		.seh_endproc
 550 0724 6666662E 		.p2align 4,,15
 550      0F1F8400 
 550      00000000 
 551              		.globl	_Z5farshPKvy
 553              		.seh_proc	_Z5farshPKvy
 554              	_Z5farshPKvy:
 555              		.seh_endprologue
 556 0730 4C8D0580 		leaq	_ZL10FARSH_KEYS(%rip), %r8
 556      000000
 557 0737 E9C4F8FF 		jmp	_Z11farsh_keyedPKvyS0_
 557      FF
 558              		.seh_endproc
 560 073c 90909090 		.section .rdata,"dr"
 561              	.LC0:
 562 0000 20282578 		.ascii " (%x)\0"
 562      2900
 563 0006 0000     		.align 8
 564              	.LC5:
 565 0008 3A20252E 		.ascii ": %.3lf milliseconds = %.3lf GB/s = %.3lf GiB/s\12\0"
 565      336C6620 
 565      6D696C6C 
 565      69736563 
 565      6F6E6473 
 566              	.LC6:
 567 0039 48617368 		.ascii "Hashing %d GiB\0"
 567      696E6720 
 567      25642047 
 567      694200
 568              		.section	.text.startup,"x"
 569              		.p2align 4,,15
 570              		.globl	main
 572              		.seh_proc	main
 573              	main:
 574 0000 4155     		pushq	%r13
 575              		.seh_pushreg	%r13
 576 0002 4154     		pushq	%r12
 577              		.seh_pushreg	%r12
 578 0004 55       		pushq	%rbp
 579              		.seh_pushreg	%rbp
 580 0005 57       		pushq	%rdi
 581              		.seh_pushreg	%rdi
 582 0006 56       		pushq	%rsi
 583              		.seh_pushreg	%rsi
 584 0007 53       		pushq	%rbx
 585              		.seh_pushreg	%rbx
 586 0008 4883EC48 		subq	$72, %rsp
 587              		.seh_stackalloc	72
 588              		.seh_endprologue
 589 000c 488D3500 		leaq	_ZZ4mainE4data(%rip), %rsi
 589      000000
 590 0013 E8000000 		call	__main
 590      00
 591 0018 B8010000 		movl	$1, %eax
 591      00
 592 001d C605FFFF 		movb	$0, _ZZ4mainE4data(%rip)
 592      FFFF00
 593 0024 41B817CD 		movl	$123456791, %r8d
 593      5B07
 594 002a 488D1501 		leaq	1+_ZZ4mainE4data(%rip), %rdx
 594      000000
 595              	.L121:
 596 0031 89C1     		movl	%eax, %ecx
 597 0033 4489C7   		movl	%r8d, %edi
 598 0036 4883C208 		addq	$8, %rdx
 599 003a 458D8817 		leal	123456791(%r8), %r9d
 599      CD5B07
 600 0041 83E10F   		andl	$15, %ecx
 601 0044 418DA82E 		leal	246913582(%r8), %ebp
 601      9AB70E
 602 004b D3EF     		shrl	%cl, %edi
 603 004d 8D4801   		leal	1(%rax), %ecx
 604 0050 40887AF8 		movb	%dil, -8(%rdx)
 605 0054 458D9045 		leal	370370373(%r8), %r10d
 605      671316
 606 005b 83E10F   		andl	$15, %ecx
 607 005e 458D985C 		leal	493827164(%r8), %r11d
 607      346F1D
 608 0065 41D3E9   		shrl	%cl, %r9d
 609 0068 8D4802   		leal	2(%rax), %ecx
 610 006b 44884AF9 		movb	%r9b, -7(%rdx)
 611 006f 458DA073 		leal	617283955(%r8), %r12d
 611      01CB24
 612 0076 83E10F   		andl	$15, %ecx
 613 0079 458DA88A 		leal	740740746(%r8), %r13d
 613      CE262C
 614 0080 D3ED     		shrl	%cl, %ebp
 615 0082 8D4803   		leal	3(%rax), %ecx
 616 0085 40886AFA 		movb	%bpl, -6(%rdx)
 617 0089 418DB8A1 		leal	864197537(%r8), %edi
 617      9B8233
 618 0090 83E10F   		andl	$15, %ecx
 619 0093 4181C0B8 		addl	$987654328, %r8d
 619      68DE3A
 620 009a 41D3EA   		shrl	%cl, %r10d
 621 009d 8D4804   		leal	4(%rax), %ecx
 622 00a0 448852FB 		movb	%r10b, -5(%rdx)
 623 00a4 83E10F   		andl	$15, %ecx
 624 00a7 41D3EB   		shrl	%cl, %r11d
 625 00aa 8D4805   		leal	5(%rax), %ecx
 626 00ad 44885AFC 		movb	%r11b, -4(%rdx)
 627 00b1 83E10F   		andl	$15, %ecx
 628 00b4 41D3EC   		shrl	%cl, %r12d
 629 00b7 8D4806   		leal	6(%rax), %ecx
 630 00ba 448862FD 		movb	%r12b, -3(%rdx)
 631 00be 83E10F   		andl	$15, %ecx
 632 00c1 41D3ED   		shrl	%cl, %r13d
 633 00c4 8D4807   		leal	7(%rax), %ecx
 634 00c7 83C008   		addl	$8, %eax
 635 00ca 44886AFE 		movb	%r13b, -2(%rdx)
 636 00ce 83E10F   		andl	$15, %ecx
 637 00d1 D3EF     		shrl	%cl, %edi
 638 00d3 40887AFF 		movb	%dil, -1(%rdx)
 639 00d7 3D017000 		cmpl	$28673, %eax
 639      00
 640 00dc 0F854FFF 		jne	.L121
 640      FFFF
 641 00e2 BA017000 		movl	$28673, %edx
 641      00
 642 00e7 BD017000 		movl	$28673, %ebp
 642      00
 643 00ec BB007000 		movl	$28672, %ebx
 643      00
 644 00f1 4C8D0580 		leaq	_ZL10FARSH_KEYS(%rip), %r8
 644      000000
 645 00f8 488D0D00 		leaq	_ZZ4mainE4data(%rip), %rcx
 645      000000
 646 00ff E8000000 		call	_Z11farsh_keyedPKvyS0_
 646      00
 647 0104 83F82A   		cmpl	$42, %eax
 648 0107 0F85F400 		jne	.L123
 648      0000
 649 010d E9100100 		jmp	.L122
 649      00
 650              		.p2align 4,,10
 651              	.L176:
 652 0112 488D53FF 		leaq	-1(%rbx), %rdx
 653 0116 4889E9   		movq	%rbp, %rcx
 654 0119 4C8D0580 		leaq	_ZL10FARSH_KEYS(%rip), %r8
 654      000000
 655 0120 4829D1   		subq	%rdx, %rcx
 656 0123 4801F1   		addq	%rsi, %rcx
 657 0126 E8000000 		call	_Z11farsh_keyedPKvyS0_
 657      00
 658 012b 83F82A   		cmpl	$42, %eax
 659 012e 0F84EE00 		je	.L122
 659      0000
 660 0134 488D53FE 		leaq	-2(%rbx), %rdx
 661 0138 4889E9   		movq	%rbp, %rcx
 662 013b 4C8D0580 		leaq	_ZL10FARSH_KEYS(%rip), %r8
 662      000000
 663 0142 4829D1   		subq	%rdx, %rcx
 664 0145 4801F1   		addq	%rsi, %rcx
 665 0148 E8000000 		call	_Z11farsh_keyedPKvyS0_
 665      00
 666 014d 83F82A   		cmpl	$42, %eax
 667 0150 0F84CC00 		je	.L122
 667      0000
 668 0156 488D53FD 		leaq	-3(%rbx), %rdx
 669 015a 4889E9   		movq	%rbp, %rcx
 670 015d 4C8D0580 		leaq	_ZL10FARSH_KEYS(%rip), %r8
 670      000000
 671 0164 4829D1   		subq	%rdx, %rcx
 672 0167 4801F1   		addq	%rsi, %rcx
 673 016a E8000000 		call	_Z11farsh_keyedPKvyS0_
 673      00
 674 016f 83F82A   		cmpl	$42, %eax
 675 0172 0F84AA00 		je	.L122
 675      0000
 676 0178 488D53FC 		leaq	-4(%rbx), %rdx
 677 017c 4889E9   		movq	%rbp, %rcx
 678 017f 4C8D0580 		leaq	_ZL10FARSH_KEYS(%rip), %r8
 678      000000
 679 0186 4829D1   		subq	%rdx, %rcx
 680 0189 4801F1   		addq	%rsi, %rcx
 681 018c E8000000 		call	_Z11farsh_keyedPKvyS0_
 681      00
 682 0191 83F82A   		cmpl	$42, %eax
 683 0194 0F848800 		je	.L122
 683      0000
 684 019a 488D53FB 		leaq	-5(%rbx), %rdx
 685 019e 4889E9   		movq	%rbp, %rcx
 686 01a1 4C8D0580 		leaq	_ZL10FARSH_KEYS(%rip), %r8
 686      000000
 687 01a8 4829D1   		subq	%rdx, %rcx
 688 01ab 4801F1   		addq	%rsi, %rcx
 689 01ae E8000000 		call	_Z11farsh_keyedPKvyS0_
 689      00
 690 01b3 83F82A   		cmpl	$42, %eax
 691 01b6 746A     		je	.L122
 692 01b8 488D53FA 		leaq	-6(%rbx), %rdx
 693 01bc 4889E9   		movq	%rbp, %rcx
 694 01bf 4C8D0580 		leaq	_ZL10FARSH_KEYS(%rip), %r8
 694      000000
 695 01c6 4829D1   		subq	%rdx, %rcx
 696 01c9 4801F1   		addq	%rsi, %rcx
 697 01cc E8000000 		call	_Z11farsh_keyedPKvyS0_
 697      00
 698 01d1 83F82A   		cmpl	$42, %eax
 699 01d4 744C     		je	.L122
 700 01d6 488D53F9 		leaq	-7(%rbx), %rdx
 701 01da 4889E9   		movq	%rbp, %rcx
 702 01dd 4C8D0580 		leaq	_ZL10FARSH_KEYS(%rip), %r8
 702      000000
 703 01e4 4829D1   		subq	%rdx, %rcx
 704 01e7 4801F1   		addq	%rsi, %rcx
 705 01ea E8000000 		call	_Z11farsh_keyedPKvyS0_
 705      00
 706 01ef 83F82A   		cmpl	$42, %eax
 707 01f2 742E     		je	.L122
 708 01f4 4883EB08 		subq	$8, %rbx
 709 01f8 4881FBF0 		cmpq	$28656, %rbx
 709      6F0000
 710 01ff 7421     		je	.L122
 711              	.L123:
 712 0201 4C8D0580 		leaq	_ZL10FARSH_KEYS(%rip), %r8
 712      000000
 713 0208 4889E9   		movq	%rbp, %rcx
 714 020b 4889DA   		movq	%rbx, %rdx
 715 020e 4829D9   		subq	%rbx, %rcx
 716 0211 4801F1   		addq	%rsi, %rcx
 717 0214 E8000000 		call	_Z11farsh_keyedPKvyS0_
 717      00
 718 0219 83F82A   		cmpl	$42, %eax
 719 021c 0F85F0FE 		jne	.L176
 719      FFFF
 720              	.L122:
 721 0222 BA640000 		movl	$100, %edx
 721      00
 722 0227 41BD0100 		movl	$1, %r13d
 722      0000
 723 022d 4531E4   		xorl	%r12d, %r12d
 724 0230 488D7424 		leaq	32(%rsp), %rsi
 724      20
 725 0235 488D0D39 		leaq	.LC6(%rip), %rcx
 725      000000
 726 023c E8000000 		call	printf
 726      00
 727 0241 488D4E10 		leaq	16(%rsi), %rcx
 728 0245 FF150000 		call	*__imp_QueryPerformanceFrequency(%rip)
 728      0000
 729 024b 488B3D00 		movq	__imp_QueryPerformanceCounter(%rip), %rdi
 729      000000
 730 0252 4889F1   		movq	%rsi, %rcx
 731 0255 FFD7     		call	*%rdi
 732 0257 488D4E08 		leaq	8(%rsi), %rcx
 733 025b FFD7     		call	*%rdi
 734 025d 488B4424 		movq	40(%rsp), %rax
 734      28
 735 0262 4889F1   		movq	%rsi, %rcx
 736 0265 482B4424 		subq	32(%rsp), %rax
 736      20
 737 026a 488D1D80 		leaq	_ZL10FARSH_KEYS(%rip), %rbx
 737      000000
 738 0271 488D2D00 		leaq	28672+_ZZ4mainE4data(%rip), %rbp
 738      700000
 739 0278 48894424 		movq	%rax, 56(%rsp)
 739      38
 740 027d FFD7     		call	*%rdi
 741 027f 90       		.p2align 4,,10
 742              	.L131:
 743 0280 44882500 		movb	%r12b, _ZZ4mainE4data(%rip)
 743      000000
 744 0287 4531DB   		xorl	%r11d, %r11d
 745 028a 4531D2   		xorl	%r10d, %r10d
 746 028d 4531C9   		xorl	%r9d, %r9d
 747 0290 488D1500 		leaq	_ZZ4mainE4data(%rip), %rdx
 747      000000
 748 0297 660F1F84 		.p2align 4,,10
 748      00000000 
 748      00
 749              	.L124:
 750 02a0 4531C0   		xorl	%r8d, %r8d
 751 02a3 660FEFC0 		pxor	%xmm0, %xmm0
 752 02a7 660F1F84 		.p2align 4,,10
 752      00000000 
 752      00
 753              	.L125:
 754 02b0 F3420F6F 		movdqu	(%rbx,%r8), %xmm1
 754      0C03
 755 02b6 488D0D80 		leaq	_ZL10FARSH_KEYS(%rip), %rcx
 755      000000
 756 02bd F3420F6F 		movdqu	(%rdx,%r8), %xmm3
 756      1C02
 757 02c3 F3420F6F 		movdqu	16(%rbx,%r8), %xmm5
 757      6C0310
 758 02ca 660FFED9 		paddd	%xmm1, %xmm3
 759 02ce F3420F6F 		movdqu	16(%rdx,%r8), %xmm4
 759      640210
 760 02d5 660F70D3 		pshufd	$49, %xmm3, %xmm2
 760      31
 761 02da 660FF4DA 		pmuludq	%xmm2, %xmm3
 762 02de F3420F6F 		movdqu	32(%rbx,%r8), %xmm1
 762      4C0320
 763 02e5 660FFEE5 		paddd	%xmm5, %xmm4
 764 02e9 660FD4C3 		paddq	%xmm3, %xmm0
 765 02ed 660F70DC 		pshufd	$49, %xmm4, %xmm3
 765      31
 766 02f2 660FF4E3 		pmuludq	%xmm3, %xmm4
 767 02f6 660FD4C4 		paddq	%xmm4, %xmm0
 768 02fa F3420F6F 		movdqu	32(%rdx,%r8), %xmm4
 768      640220
 769 0301 660FFEE1 		paddd	%xmm1, %xmm4
 770 0305 660F6FEC 		movdqa	%xmm4, %xmm5
 771 0309 660F70D4 		pshufd	$49, %xmm4, %xmm2
 771      31
 772 030e F3420F6F 		movdqu	48(%rdx,%r8), %xmm4
 772      640230
 773 0315 660FF4EA 		pmuludq	%xmm2, %xmm5
 774 0319 660FD4C5 		paddq	%xmm5, %xmm0
 775 031d 660F6FD8 		movdqa	%xmm0, %xmm3
 776 0321 F3420F6F 		movdqu	48(%rbx,%r8), %xmm0
 776      440330
 777 0328 660F6FEB 		movdqa	%xmm3, %xmm5
 778 032c F3420F6F 		movdqu	64(%rdx,%r8), %xmm3
 778      5C0240
 779 0333 660FFEC4 		paddd	%xmm4, %xmm0
 780 0337 F3420F6F 		movdqu	64(%rbx,%r8), %xmm4
 780      640340
 781 033e 660F6FC8 		movdqa	%xmm0, %xmm1
 782 0342 660F70D0 		pshufd	$49, %xmm0, %xmm2
 782      31
 783 0347 660FF4CA 		pmuludq	%xmm2, %xmm1
 784 034b 660FFEDC 		paddd	%xmm4, %xmm3
 785 034f 660F70C3 		pshufd	$49, %xmm3, %xmm0
 785      31
 786 0354 660F6FD3 		movdqa	%xmm3, %xmm2
 787 0358 F3420F6F 		movdqu	80(%rbx,%r8), %xmm3
 787      5C0350
 788 035f 660FF4D0 		pmuludq	%xmm0, %xmm2
 789 0363 660FD4E9 		paddq	%xmm1, %xmm5
 790 0367 F3420F6F 		movdqu	80(%rdx,%r8), %xmm1
 790      4C0250
 791 036e 660FFED9 		paddd	%xmm1, %xmm3
 792 0372 660FD4EA 		paddq	%xmm2, %xmm5
 793 0376 F3420F6F 		movdqu	96(%rbx,%r8), %xmm2
 793      540360
 794 037d 660F6FC3 		movdqa	%xmm3, %xmm0
 795 0381 660F70E3 		pshufd	$49, %xmm3, %xmm4
 795      31
 796 0386 F3420F6F 		movdqu	96(%rdx,%r8), %xmm3
 796      5C0260
 797 038d 660FF4C4 		pmuludq	%xmm4, %xmm0
 798 0391 660FFEDA 		paddd	%xmm2, %xmm3
 799 0395 660F70E3 		pshufd	$49, %xmm3, %xmm4
 799      31
 800 039a 660F6FCB 		movdqa	%xmm3, %xmm1
 801 039e F3420F6F 		movdqu	112(%rdx,%r8), %xmm3
 801      5C0270
 802 03a5 660FD4E8 		paddq	%xmm0, %xmm5
 803 03a9 F3420F6F 		movdqu	112(%rbx,%r8), %xmm0
 803      440370
 804 03b0 660FF4CC 		pmuludq	%xmm4, %xmm1
 805 03b4 4983E880 		subq	$-128, %r8
 806 03b8 4981F800 		cmpq	$1024, %r8
 806      040000
 807 03bf 660FFEC3 		paddd	%xmm3, %xmm0
 808 03c3 660F6FE0 		movdqa	%xmm0, %xmm4
 809 03c7 660F70D0 		pshufd	$49, %xmm0, %xmm2
 809      31
 810 03cc 660FD4E9 		paddq	%xmm1, %xmm5
 811 03d0 660FF4E2 		pmuludq	%xmm2, %xmm4
 812 03d4 660FD4EC 		paddq	%xmm4, %xmm5
 813 03d8 660F6FC5 		movdqa	%xmm5, %xmm0
 814 03dc 0F85CEFE 		jne	.L125
 814      FFFF
 815 03e2 4D63C1   		movslq	%r9d, %r8
 816 03e5 660F70CD 		pshufd	$14, %xmm5, %xmm1
 816      0E
 817 03ea 660FD4C1 		paddq	%xmm1, %xmm0
 818 03ee 4183C101 		addl	$1, %r9d
 819 03f2 468B0481 		movl	(%rcx,%r8,4), %r8d
 820 03f6 660F70E8 		pshufd	$1, %xmm0, %xmm5
 820      01
 821 03fb 660FFEC5 		paddd	%xmm5, %xmm0
 822 03ff 4881C200 		addq	$1024, %rdx
 822      040000
 823 0406 660F7EC0 		movd	%xmm0, %eax
 824 040a 4981C000 		addq	$1024, %r8
 824      040000
 825 0411 490FAFC0 		imulq	%r8, %rax
 826 0415 4901C2   		addq	%rax, %r10
 827 0418 4181F900 		cmpl	$256, %r9d
 827      010000
 828 041f 743F     		je	.L177
 829              	.L126:
 830 0421 4839EA   		cmpq	%rbp, %rdx
 831 0424 0F8276FE 		jb	.L124
 831      FFFF
 832 042a 4C89D2   		movq	%r10, %rdx
 833 042d 48C1EA20 		shrq	$32, %rdx
 834 0431 4401D2   		addl	%r10d, %edx
 835 0434 83FA2A   		cmpl	$42, %edx
 836 0437 745A     		je	.L128
 837 0439 4183FC2A 		cmpl	$42, %r12d
 838 043d 0F84E700 		je	.L178
 838      0000
 839 0443 4181FD92 		cmpl	$3744914, %r13d
 839      243900
 840 044a 7447     		je	.L128
 841              	.L130:
 842 044c 4183C401 		addl	$1, %r12d
 843 0450 4183C501 		addl	$1, %r13d
 844 0454 E927FEFF 		jmp	.L131
 844      FF
 845 0459 0F1F8000 		.p2align 4,,10
 845      000000
 846              	.L177:
 847 0460 4C89D0   		movq	%r10, %rax
 848 0463 664531C9 		xorw	%r9w, %r9w
 849 0467 48C1E820 		shrq	$32, %rax
 850 046b 468D0410 		leal	(%rax,%r10), %r8d
 851 046f 4963C3   		movslq	%r11d, %rax
 852 0472 4183C301 		addl	$1, %r11d
 853 0476 8B0C81   		movl	(%rcx,%rax,4), %ecx
 854 0479 490FAFC8 		imulq	%r8, %rcx
 855 047d 41B80000 		movl	$0, %r8d
 855      0000
 856 0483 4901CA   		addq	%rcx, %r10
 857 0486 4181FB00 		cmpl	$256, %r11d
 857      010000
 858 048d 450F44D8 		cmove	%r8d, %r11d
 859 0491 EB8E     		jmp	.L126
 860              	.L128:
 861 0493 488D4E08 		leaq	8(%rsi), %rcx
 862 0497 FFD7     		call	*%rdi
 863 0499 488B7424 		movq	40(%rsp), %rsi
 863      28
 864 049e 660FEFC0 		pxor	%xmm0, %xmm0
 865 04a2 660FEFD2 		pxor	%xmm2, %xmm2
 866 04a6 482B7424 		subq	32(%rsp), %rsi
 866      20
 867 04ab 488D0D08 		leaq	.LC5(%rip), %rcx
 867      000000
 868 04b2 482B7424 		subq	56(%rsp), %rsi
 868      38
 869 04b7 F20F101D 		movsd	.LC1(%rip), %xmm3
 869      80080000 
 870 04bf F2480F2A 		cvtsi2sdq	48(%rsp), %xmm2
 870      542430
 871 04c6 F20F100D 		movsd	.LC2(%rip), %xmm1
 871      88080000 
 872 04ce F20F102D 		movsd	.LC3(%rip), %xmm5
 872      90080000 
 873 04d6 F2480F2A 		cvtsi2sdq	%rsi, %xmm0
 873      C6
 874 04db F20F59C3 		mulsd	%xmm3, %xmm0
 875 04df F20F5EC2 		divsd	%xmm2, %xmm0
 876 04e3 660F28E0 		movapd	%xmm0, %xmm4
 877 04e7 66480F7E 		movq	%xmm0, %rdx
 877      C2
 878 04ec F20F5EE3 		divsd	%xmm3, %xmm4
 879 04f0 F20F5ECC 		divsd	%xmm4, %xmm1
 880 04f4 F20F59E9 		mulsd	%xmm1, %xmm5
 881 04f8 F20F5E0D 		divsd	.LC4(%rip), %xmm1
 881      98080000 
 882 0500 660F28D1 		movapd	%xmm1, %xmm2
 883 0504 66490F7E 		movq	%xmm1, %r8
 883      C8
 884 0509 660F28C8 		movapd	%xmm0, %xmm1
 885 050d 660F28DD 		movapd	%xmm5, %xmm3
 886 0511 66490F7E 		movq	%xmm5, %r9
 886      E9
 887 0516 E8000000 		call	printf
 887      00
 888 051b 31C0     		xorl	%eax, %eax
 889 051d 4883C448 		addq	$72, %rsp
 890 0521 5B       		popq	%rbx
 891 0522 5E       		popq	%rsi
 892 0523 5F       		popq	%rdi
 893 0524 5D       		popq	%rbp
 894 0525 415C     		popq	%r12
 895 0527 415D     		popq	%r13
 896 0529 C3       		ret
 897              	.L178:
 898 052a 488D0D00 		leaq	.LC0(%rip), %rcx
 898      000000
 899 0531 E8000000 		call	printf
 899      00
 900 0536 E911FFFF 		jmp	.L130
 900      FF
 901              		.seh_endproc
 902              	.lcomm _ZZ4mainE4data,28673,64
 903 053b 90909090 		.section .rdata,"dr"
 903      90
 904 0048 00000000 		.align 64
 904      00000000 
 904      00000000 
 904      00000000 
 904      00000000 
 905              	_ZL10FARSH_KEYS:
 906 0080 396CFEB8 		.long	-1191285703
 907 0084 BE4BA423 		.long	597969854
 908 0088 2C81017C 		.long	2080473388
 909 008c 1CAD21F7 		.long	-148787940
 910 0090 E96DD4DE 		.long	-556503575
 911 0094 DB979083 		.long	-2087675941
 912 0098 A4A44072 		.long	1916839076
 913 009c 1F67B3B7 		.long	-1212979425
 914 00a0 4EE679CB 		.long	-881203634
 915 00a4 78E5C0CC 		.long	-859773576
 916 00a8 7DD05A82 		.long	-2107977603
 917 00ac 2172FFCC 		.long	-855674335
 918 00b0 744608B8 		.long	-1207417228
 919 00b4 8E2443F7 		.long	-146594674
 920 00b8 E69035E0 		.long	-533360410
 921 00bc 4C263A81 		.long	-2126895540
 922 00c0 BB52283C 		.long	1009275579
 923 00c4 CB00C391 		.long	-1849491253
 924 00c8 8B65D088 		.long	-1999608437
 925 00cc A32E531B 		.long	458436259
 926 00d0 97486471 		.long	1902397591
 927 00d4 4EF90DA2 		.long	-1576142514
 928 00d8 46EF1938 		.long	941223750
 929 00dc D8ACDEA9 		.long	-1445024552
 930 00e0 3F76FAA8 		.long	-1459980737
 931 00e4 3F349CE3 		.long	-476302273
 932 00e8 C7BBDCF9 		.long	-102974521
 933 00ec 1D4F0BC7 		.long	-955560163
 934 00f0 4BE0518A 		.long	-1974345653
 935 00f4 3159B4CD 		.long	-843818703
 936 00f8 C97E9FC8 		.long	-929071415
 937 00fc 647378D9 		.long	-646417564
 938 0100 52076A4F 		.long	1332348754
 939 0104 9C079BA7 		.long	-1483012196
 940 0108 9994C48F 		.long	-1882942311
 941 010c A9B7C98E 		.long	-1899382871
 942 0110 4922C933 		.long	868819529
 943 0114 4F40B64E 		.long	1320566863
 944 0118 4EFB2AFB 		.long	-81069234
 945 011c 554281A4 		.long	-1535032747
 946 0120 981B0E2F 		.long	789453720
 947 0124 243BE9AC 		.long	-1394001116
 948 0128 CD508818 		.long	411586765
 949 012c A7745C6C 		.long	1817998503
 950 0130 0444FA66 		.long	1727677444
 951 0134 83ACC5EA 		.long	-356143997
 952 0138 C3EBD334 		.long	886303683
 953 013c FFA081C5 		.long	-981360385
 954 0140 EB6313FA 		.long	-99392533
 955 0144 51DD0D17 		.long	386784593
 956 0148 49DAF0B7 		.long	-1208952247
 957 014c 265516D3 		.long	-753511130
 958 0150 9E68D429 		.long	701786270
 959 0154 58BE162B 		.long	722910808
 960 0158 FCA1477D 		.long	2101846524
 961 015c D1B8F88F 		.long	-1879525167
 962 0160 CE31D07A 		.long	2060464590
 963 0164 8F3ACB45 		.long	1170946703
 964 0168 28041695 		.long	-1793719256
 965 016c CAFBD7AF 		.long	-1344799798
 966 0170 7E404BBB 		.long	-1152696194
 967 0174 A4745299 		.long	-1722649436
 968 0178 932D9AEB 		.long	-342217325
 969 017c 0889E73B 		.long	1005029640
 970 0180 6C5F47ED 		.long	-314089620
 971 0184 F2D89C91 		.long	-1851991822
 972 0188 5A1E86D3 		.long	-746185126
 973 018c 0C39316E 		.long	1848719628
 974 0190 493A6AFE 		.long	-26592695
 975 0194 1409ADDC 		.long	-592639724
 976 0198 EB8B5006 		.long	105941995
 977 019c F39983A8 		.long	-1467770381
 978 01a0 2F1158B0 		.long	-1336405713
 979 01a4 79FAB0E8 		.long	-391054727
 980 01a8 06DAB429 		.long	699718150
 981 01ac FB53C2ED 		.long	-306031621
 982 01b0 AD6DE9C3 		.long	-1008112211
 983 01b4 832B376E 		.long	1849109379
 984 01b8 53B1784F 		.long	1333309779
 985 01bc 866EFAFF 		.long	-364922
 986 01c0 ECEEBE21 		.long	566161132
 987 01c4 02EACA01 		.long	30075394
 988 01c8 0DE56712 		.long	308798733
 989 01cc 2F09E611 		.long	300288303
 990 01d0 98D219E8 		.long	-400960872
 991 01d4 DD802F83 		.long	-2094038819
 992 01d8 77244E0C 		.long	206447735
 993 01dc EB8678BC 		.long	-1132951829
 994 01e0 37665001 		.long	22046263
 995 01e4 6896A88B 		.long	-1951885720
 996 01e8 A0E7116D 		.long	1829889952
 997 01ec 15FD12FC 		.long	-65864427
 998 01f0 194CA586 		.long	-2035987431
 999 01f4 DDE33C59 		.long	1497162717
 1000 01f8 E53FB1D2 		.long	-760135707
 1001 01fc 532B778E 		.long	-1904792749
 1002 0200 CC604AAE 		.long	-1370857268
 1003 0204 1B3B7A64 		.long	1685732123
 1004 0208 E0867754 		.long	1417119456
 1005 020c 8E37C43E 		.long	1053046670
 1006 0210 89CF7A8D 		.long	-1921331319
 1007 0214 47F936CA 		.long	-902366905
 1008 0218 EFD5890E 		.long	243914223
 1009 021c 3C6ADAAA 		.long	-1428526532
 1010 0220 09A1A46D 		.long	1839505673
 1011 0224 1CE1C69A 		.long	-1698242276
 1012 0228 EF916668 		.long	1751552495
 1013 022c 2BBD57A3 		.long	-1554531029
 1014 0230 9A1B6FD1 		.long	-781247590
 1015 0234 0303C738 		.long	952566531
 1016 0238 B322467D 		.long	2101748403
 1017 023c 8FFA6829 		.long	694745743
 1018 0240 B9BCA58C 		.long	-1935295303
 1019 0244 0510D6FC 		.long	-53080059
 1020 0248 965E8B22 		.long	579559062
 1021 024c 19CC9D2C 		.long	748538905
 1022 0250 3C24CF57 		.long	1473193020
 1023 0254 C1F9533C 		.long	1012136385
 1024 0258 2C95C70C 		.long	214406444
 1025 025c F0E46D68 		.long	1752032496
 1026 0260 B547A793 		.long	-1817753675
 1027 0264 10A5874E 		.long	1317512464
 1028 0268 AE915E97 		.long	-1755410002
 1029 026c 8EB9104C 		.long	1276164494
 1030 0270 8C067F8A 		.long	-1971386740
 1031 0274 AB196B34 		.long	879434155
 1032 0278 25A63C35 		.long	893167141
 1033 027c E0500AF2 		.long	-234204960
 1034 0280 F62199CE 		.long	-828825098
 1035 0284 14E066DF 		.long	-546906092
 1036 0288 4BEF110A 		.long	168947531
 1037 028c DF4DC88B 		.long	-1949807137
 1038 0290 225DD284 		.long	-2066588382
 1039 0294 6D9323C8 		.long	-937192595
 1040 0298 C31E7494 		.long	-1804329277
 1041 029c 608A2788 		.long	-2010674592
 1042 02a0 319364B8 		.long	-1201368271
 1043 02a4 107A707A 		.long	2054191632
 1044 02a8 D6CA9272 		.long	1922222806
 1045 02ac C244C6A7 		.long	-1480178494
 1046 02b0 FA6B15BD 		.long	-1122669574
 1047 02b4 78956C64 		.long	1684837752
 1048 02b8 D5DFF4B7 		.long	-1208688683
 1049 02bc A777829F 		.long	-1618839641
 1050 02c0 4E921370 		.long	1880330830
 1051 02c4 C34C67AD 		.long	-1385739069
 1052 02c8 059DAE2C 		.long	749640965
 1053 02cc 229A2A91 		.long	-1859479006
 1054 02d0 FA537CF6 		.long	-159624198
 1055 02d4 A9227E8D 		.long	-1921113431
 1056 02d8 2B37AE59 		.long	1504589611
 1057 02dc F3990185 		.long	-2063492621
 1058 02e0 2C10A263 		.long	1671565356
 1059 02e4 6112FFD6 		.long	-687926687
 1060 02e8 E18E7356 		.long	1450413793
 1061 02ec 5B1495AA 		.long	-1433070501
 1062 02f0 3228D1FD 		.long	-36624334
 1063 02f4 EB4D685B 		.long	1533562347
 1064 02f8 94DE8407 		.long	126148244
 1065 02fc 0E3962AA 		.long	-1436403442
 1066 0300 19CF7CBB 		.long	-1149448423
 1067 0304 72D5EF0F 		.long	267375986
 1068 0308 CA415B56 		.long	1448821194
 1069 030c 02D20622 		.long	570872322
 1070 0310 7984602D 		.long	761300089
 1071 0314 3DCD0F4C 		.long	1276103997
 1072 0318 E33B6DD3 		.long	-747815965
 1073 031c 659A5A15 		.long	358259301
 1074 0320 32E7F910 		.long	284813106
 1075 0324 1E0F9BAC 		.long	-1399124194
 1076 0328 3BA0721F 		.long	527605819
 1077 032c AE4094EA 		.long	-359382866
 1078 0330 4F4B675B 		.long	1533496143
 1079 0334 D127A831 		.long	833103825
 1080 0338 4F95CAEC 		.long	-322267825
 1081 033c 1ED62C3D 		.long	1026348574
 1082 0340 A43D8D76 		.long	1988967844
 1083 0344 C15A7493 		.long	-1821091135
 1084 0348 CB585D1D 		.long	492656843
 1085 034c B6F3864B 		.long	1267135414
 1086 0350 3A92BA2A 		.long	716870202
 1087 0354 4C81650E 		.long	241533260
 1088 0358 D963E08A 		.long	-1965005863
 1089 035c B06969CD 		.long	-848729680
 1090 0360 85156436 		.long	912528773
 1091 0364 9DF52A74 		.long	1948972445
 1092 0368 16133A61 		.long	1631195926
 1093 036c 71A48E33 		.long	864986225
 1094 0370 F31A8647 		.long	1199971059
 1095 0374 C39D4730 		.long	809999811
 1096 0378 81A47012 		.long	309372033
 1097 037c 69107708 		.long	142020713
 1098 0380 D2F0C4E3 		.long	-473632558
 1099 0384 4C872902 		.long	36276044
 1100 0388 C13B8A5A 		.long	1519008705
 1101 038c 33970DE3 		.long	-485648589
 1102 0390 A2E55BD0 		.long	-799283806
 1103 0394 BA31AFE2 		.long	-491834950
 1104 0398 F9492022 		.long	572541433
 1105 039c 6A3B929F 		.long	-1617806486
 1106 03a0 EC643F03 		.long	54486252
 1107 03a4 2BB628E5 		.long	-450316757
 1108 03a8 BDEF0182 		.long	-2113802307
 1109 03ac 77D80721 		.long	554162295
 1110 03b0 F12E31D8 		.long	-667865359
 1111 03b4 999F67A5 		.long	-1519935591
 1112 03b8 1BB53017 		.long	389068059
 1113 03bc D2162675 		.long	1965430482
 1114 03c0 09593005 		.long	87054601
 1115 03c4 0B44CA0D 		.long	231359499
 1116 03c8 D9CD9320 		.long	546557401
 1117 03cc 50AB0964 		.long	1678355280
 1118 03d0 CC8E5CBA 		.long	-1168339252
 1119 03d4 EA08478D 		.long	-1924724502
 1120 03d8 17099F42 		.long	1117718807
 1121 03dc B0FA62B7 		.long	-1218250064
 1122 03e0 75EA6151 		.long	1365371509
 1123 03e4 EBA0EB45 		.long	1173070059
 1124 03e8 414BF3B6 		.long	-1225569471
 1125 03ec 23710452 		.long	1376022819
 1126 03f0 231518E4 		.long	-468183773
 1127 03f4 0AE9748D 		.long	-1921718006
 1128 03f8 1C40FA54 		.long	1425686556
 1129 03fc C70CDADD 		.long	-572912441
 1130 0400 2A18DF63 		.long	1675565098
 1131 0404 F63E40C6 		.long	-968868106
 1132 0408 E8C68E34 		.long	881772264
 1133 040c F557FFB9 		.long	-1174448139
 1134 0410 BDB852F6 		.long	-162350915
 1135 0414 F3B0860F 		.long	260485363
 1136 0418 8A083AFB 		.long	-80082806
 1137 041c 3315C74D 		.long	1304892723
 1138 0420 D217367B 		.long	2067142610
 1139 0424 EB874EA3 		.long	-1555134485
 1140 0428 DD9B2ABA 		.long	-1171612707
 1141 042c 061338E3 		.long	-482864378
 1142 0430 BBD6BA14 		.long	347788987
 1143 0434 C2C76DC9 		.long	-915552318
 1144 0438 B6543B33 		.long	859526326
 1145 043c FA7CE49B 		.long	-1679524614
 1146 0440 9992CF1D 		.long	500142745
 1147 0444 995FEAE7 		.long	-404070503
 1148 0448 CDEA8FB3 		.long	-1282413875
 1149 044c F7E2CFC3 		.long	-1009786121
 1150 0450 22E8875B 		.long	1535633442
 1151 0454 56ABC539 		.long	969255766
 1152 0458 8FA1F418 		.long	418685327
 1153 045c 9C4D482D 		.long	759713180
 1154 0460 19D56341 		.long	1097061657
 1155 0464 989E7679 		.long	2037816984
 1156 0468 F0678AF5 		.long	-175478800
 1157 046c 020C5940 		.long	1079577602
 1158 0470 C0719631 		.long	831943104
 1159 0474 3A136B26 		.long	644551482
 1160 0478 87B281AF 		.long	-1350454649
 1161 047c 37F7316A 		.long	1781659447
 1162 0480 9701BCE3 		.long	-474218089
 1163 0484 13990755 		.long	1426561299
 1164 0488 96C6729F 		.long	-1619868010
 1165 048c C8003E36 		.long	910033096
 1166 0490 47391553 		.long	1393899847
 1167 0494 7F12FDEB 		.long	-335736193
 1168 0498 1905F600 		.long	16123161
 1169 049c 2AB6A646 		.long	1185330730
 1170 04a0 8033B893 		.long	-1816644736
 1171 04a4 2493E23F 		.long	1071813412
 1172 04a8 9170C6DF 		.long	-540643183
 1173 04ac 6D38620F 		.long	258095213
 1174 04b0 795E37DC 		.long	-600351111
 1175 04b4 3E3FEA8F 		.long	-1880473794
 1176 04b8 D06384DF 		.long	-544971824
 1177 04bc 7BFA0237 		.long	922942075
 1178 04c0 5E435439 		.long	961823582
 1179 04c4 48A6CA87 		.long	-2016762296
 1180 04c8 EE8B15A9 		.long	-1458205714
 1181 04cc 250CF308 		.long	150146085
 1182 04d0 3629B866 		.long	1723345206
 1183 04d4 EB3FFCE7 		.long	-402898965
 1184 04d8 50543C18 		.long	406606928
 1185 04dc 4543EFD7 		.long	-672185531
 1186 04e0 63798C79 		.long	2039249251
 1187 04e4 57F52CC0 		.long	-1070795433
 1188 04e8 D1538509 		.long	159732689
 1189 04ec AA1243FA 		.long	-96267606
 1190 04f0 83F89EE2 		.long	-492898173
 1191 04f4 8D12AF7C 		.long	2091848333
 1192 04f8 7DA0B374 		.long	1957929085
 1193 04fc 00000000 		.space 896
 1193      00000000 
 1193      00000000 
 1193      00000000 
 1193      00000000 
 1194 087c 00000000 		.align 8
 1195              	.LC1:
 1196 0880 00000000 		.long	0
 1197 0884 00408F40 		.long	1083129856
 1198              		.align 8
 1199              	.LC2:
 1200 0888 00000000 		.long	0
 1201 088c 00003942 		.long	1111031808
 1202              		.align 8
 1203              	.LC3:
 1204 0890 00000000 		.long	0
 1205 0894 0000103E 		.long	1041235968
 1206              		.align 8
 1207              	.LC4:
 1208 0898 00000000 		.long	0
 1209 089c 65CDCD41 		.long	1104006501
 1210              		.ident	"GCC: (i686-posix-sjlj-rev2, Built by MinGW-W64 project) 4.9.2"