   1              		.file	"main.cpp"
   2              		.text
   3              		.p2align 4,,15
   4              		.globl	__Z11farsh_keyedPKvjS0_
   6              	__Z11farsh_keyedPKvjS0_:
   7 0000 55       		pushl	%ebp
   8 0001 89E5     		movl	%esp, %ebp
   9 0003 57       		pushl	%edi
  10 0004 56       		pushl	%esi
  11 0005 53       		pushl	%ebx
  12 0006 83E4E0   		andl	$-32, %esp
  13 0009 83EC60   		subl	$96, %esp
  14 000c 8B450C   		movl	12(%ebp), %eax
  15 000f 8B7D08   		movl	8(%ebp), %edi
  16 0012 01C7     		addl	%eax, %edi
  17 0014 397D08   		cmpl	%edi, 8(%ebp)
  18 0017 897C2428 		movl	%edi, 40(%esp)
  19 001b 0F836F04 		jae	L18
  19      0000
  20 0021 3D000400 		cmpl	$1024, %eax
  20      00
  21 0026 BA000400 		movl	$1024, %edx
  21      00
  22 002b C7442414 		movl	$0, 20(%esp)
  22      00000000 
  23 0033 0F46D0   		cmovbe	%eax, %edx
  24 0036 B8000000 		movl	$0, %eax
  24      00
  25 003b C744243C 		movl	$0, 60(%esp)
  25      00000000 
  26 0043 89D1     		movl	%edx, %ecx
  27 0045 89D6     		movl	%edx, %esi
  28 0047 89542438 		movl	%edx, 56(%esp)
  29 004b C1E902   		shrl	$2, %ecx
  30 004e 8D542458 		leal	88(%esp), %edx
  31 0052 C7442430 		movl	$0, 48(%esp)
  31      00000000 
  32 005a 83E1FE   		andl	$-2, %ecx
  33 005d C7442434 		movl	$0, 52(%esp)
  33      00000000 
  34 0065 894C2448 		movl	%ecx, 72(%esp)
  35 0069 C1E102   		sall	$2, %ecx
  36 006c 29CE     		subl	%ecx, %esi
  37 006e 894C2424 		movl	%ecx, 36(%esp)
  38 0072 89F7     		movl	%esi, %edi
  39 0074 89F3     		movl	%esi, %ebx
  40 0076 0F45C2   		cmovne	%edx, %eax
  41 0079 8974242C 		movl	%esi, 44(%esp)
  42 007d 83E702   		andl	$2, %edi
  43 0080 83E301   		andl	$1, %ebx
  44 0083 C1EE02   		shrl	$2, %esi
  45 0086 89442418 		movl	%eax, 24(%esp)
  46 008a 897C2420 		movl	%edi, 32(%esp)
  47 008e 895C241C 		movl	%ebx, 28(%esp)
  48 0092 89742410 		movl	%esi, 16(%esp)
  49 0096 8D76008D 		.p2align 4,,10
  49      BC270000 
  49      0000
  50              	L15:
  51 00a0 817C2438 		cmpl	$1024, 56(%esp)
  51      00040000 
  52 00a8 0F849202 		je	L61
  52      0000
  53 00ae 8B4508   		movl	8(%ebp), %eax
  54 00b1 8B742424 		movl	36(%esp), %esi
  55 00b5 8D7C2458 		leal	88(%esp), %edi
  56 00b9 C7442458 		movl	$0, 88(%esp)
  56      00000000 
  57 00c1 C744245C 		movl	$0, 92(%esp)
  57      00000000 
  58 00c9 01C6     		addl	%eax, %esi
  59 00cb 837C242C 		cmpl	$4, 44(%esp)
  59      04
  60 00d0 7206     		jb	L6
  61 00d2 8B4C2410 		movl	16(%esp), %ecx
  62 00d6 F3A5     		rep movsl
  63              	L6:
  64 00d8 8B542420 		movl	32(%esp), %edx
  65 00dc 31C0     		xorl	%eax, %eax
  66 00de 85D2     		testl	%edx, %edx
  67 00e0 740B     		je	L7
  68 00e2 0FB71E   		movzwl	(%esi), %ebx
  69 00e5 B8020000 		movl	$2, %eax
  69      00
  70 00ea 66891F   		movw	%bx, (%edi)
  71              	L7:
  72 00ed 8B4C241C 		movl	28(%esp), %ecx
  73 00f1 85C9     		testl	%ecx, %ecx
  74 00f3 7407     		je	L8
  75 00f5 0FB61406 		movzbl	(%esi,%eax), %edx
  76 00f9 881407   		movb	%dl, (%edi,%eax)
  77              	L8:
  78 00fc 8B7C242C 		movl	44(%esp), %edi
  79 0100 85FF     		testl	%edi, %edi
  80 0102 0F84E801 		je	L62
  80      0000
  81 0108 8B742448 		movl	72(%esp), %esi
  82 010c 85F6     		testl	%esi, %esi
  83 010e 0F845C03 		je	L63
  83      0000
  84              	L16:
  85 0114 8B7D08   		movl	8(%ebp), %edi
  86 0117 8B442448 		movl	72(%esp), %eax
  87 011b 8B7508   		movl	8(%ebp), %esi
  88 011e 8B1F     		movl	(%edi), %ebx
  89 0120 8B7D10   		movl	16(%ebp), %edi
  90 0123 8D48FF   		leal	-1(%eax), %ecx
  91 0126 D1E9     		shrl	%ecx
  92 0128 031F     		addl	(%edi), %ebx
  93 012a 8B7D08   		movl	8(%ebp), %edi
  94 012d 83E103   		andl	$3, %ecx
  95 0130 8B5704   		movl	4(%edi), %edx
  96 0133 8B7D10   		movl	16(%ebp), %edi
  97 0136 035704   		addl	4(%edi), %edx
  98 0139 BF020000 		movl	$2, %edi
  98      00
  99 013e 89D0     		movl	%edx, %eax
 100 0140 F7E3     		mull	%ebx
 101 0142 8D5E08   		leal	8(%esi), %ebx
 102 0145 8B7510   		movl	16(%ebp), %esi
 103 0148 83C608   		addl	$8, %esi
 104 014b 837C2448 		cmpl	$2, 72(%esp)
 104      02
 105 0150 89442440 		movl	%eax, 64(%esp)
 106 0154 89542444 		movl	%edx, 68(%esp)
 107 0158 0F86EC00 		jbe	L53
 107      0000
 108 015e 85C9     		testl	%ecx, %ecx
 109 0160 7475     		je	L56
 110 0162 83F901   		cmpl	$1, %ecx
 111 0165 744D     		je	L45
 112 0167 83F902   		cmpl	$2, %ecx
 113 016a 742B     		je	L46
 114 016c 8B4D10   		movl	16(%ebp), %ecx
 115 016f 8B03     		movl	(%ebx), %eax
 116 0171 BF040000 		movl	$4, %edi
 116      00
 117 0176 034108   		addl	8(%ecx), %eax
 118 0179 89C2     		movl	%eax, %edx
 119 017b 8B4304   		movl	4(%ebx), %eax
 120 017e 034604   		addl	4(%esi), %eax
 121 0181 8B7510   		movl	16(%ebp), %esi
 122 0184 F7E2     		mull	%edx
 123 0186 01442440 		addl	%eax, 64(%esp)
 124 018a 8D7610   		leal	16(%esi), %esi
 125 018d 11542444 		adcl	%edx, 68(%esp)
 126 0191 8B5508   		movl	8(%ebp), %edx
 127 0194 8D5A10   		leal	16(%edx), %ebx
 128              	L46:
 129 0197 8B03     		movl	(%ebx), %eax
 130 0199 8B5304   		movl	4(%ebx), %edx
 131 019c 0306     		addl	(%esi), %eax
 132 019e 035604   		addl	4(%esi), %edx
 133 01a1 F7E2     		mull	%edx
 134 01a3 01442440 		addl	%eax, 64(%esp)
 135 01a7 11542444 		adcl	%edx, 68(%esp)
 136 01ab 83C702   		addl	$2, %edi
 137 01ae 83C308   		addl	$8, %ebx
 138 01b1 83C608   		addl	$8, %esi
 139              	L45:
 140 01b4 8B03     		movl	(%ebx), %eax
 141 01b6 8B5304   		movl	4(%ebx), %edx
 142 01b9 0306     		addl	(%esi), %eax
 143 01bb 035604   		addl	4(%esi), %edx
 144 01be F7E2     		mull	%edx
 145 01c0 01442440 		addl	%eax, 64(%esp)
 146 01c4 11542444 		adcl	%edx, 68(%esp)
 147 01c8 83C702   		addl	$2, %edi
 148 01cb 83C308   		addl	$8, %ebx
 149 01ce 83C608   		addl	$8, %esi
 150 01d1 397C2448 		cmpl	%edi, 72(%esp)
 151 01d5 7673     		jbe	L53
 152              	L56:
 153 01d7 897C244C 		movl	%edi, 76(%esp)
 154 01db 89F1     		movl	%esi, %ecx
 155 01dd 8B7C2444 		movl	68(%esp), %edi
 156 01e1 8B742440 		movl	64(%esp), %esi
 157              	L11:
 158 01e5 8B03     		movl	(%ebx), %eax
 159 01e7 8B5304   		movl	4(%ebx), %edx
 160 01ea 0301     		addl	(%ecx), %eax
 161 01ec 035104   		addl	4(%ecx), %edx
 162 01ef F7E2     		mull	%edx
 163 01f1 01C6     		addl	%eax, %esi
 164 01f3 8B4308   		movl	8(%ebx), %eax
 165 01f6 11D7     		adcl	%edx, %edi
 166 01f8 034108   		addl	8(%ecx), %eax
 167 01fb 8B530C   		movl	12(%ebx), %edx
 168 01fe 03510C   		addl	12(%ecx), %edx
 169 0201 F7E2     		mull	%edx
 170 0203 01C6     		addl	%eax, %esi
 171 0205 8B4310   		movl	16(%ebx), %eax
 172 0208 11D7     		adcl	%edx, %edi
 173 020a 034110   		addl	16(%ecx), %eax
 174 020d 8B5314   		movl	20(%ebx), %edx
 175 0210 035114   		addl	20(%ecx), %edx
 176 0213 F7E2     		mull	%edx
 177 0215 01C6     		addl	%eax, %esi
 178 0217 8B4318   		movl	24(%ebx), %eax
 179 021a 11D7     		adcl	%edx, %edi
 180 021c 034118   		addl	24(%ecx), %eax
 181 021f 8B531C   		movl	28(%ebx), %edx
 182 0222 03511C   		addl	28(%ecx), %edx
 183 0225 F7E2     		mull	%edx
 184 0227 01C6     		addl	%eax, %esi
 185 0229 11D7     		adcl	%edx, %edi
 186 022b 8344244C 		addl	$8, 76(%esp)
 186      08
 187 0230 83C320   		addl	$32, %ebx
 188 0233 8B44244C 		movl	76(%esp), %eax
 189 0237 83C120   		addl	$32, %ecx
 190 023a 39442448 		cmpl	%eax, 72(%esp)
 191 023e 77A5     		ja	L11
 192 0240 897C2444 		movl	%edi, 68(%esp)
 193 0244 89742440 		movl	%esi, 64(%esp)
 194 0248 89C7     		movl	%eax, %edi
 195              	L53:
 196 024a 8B742418 		movl	24(%esp), %esi
 197 024e 8B542440 		movl	64(%esp), %edx
 198 0252 8D0CBD00 		leal	0(,%edi,4), %ecx
 198      000000
 199 0259 8B5C2444 		movl	68(%esp), %ebx
 200 025d 8D7904   		leal	4(%ecx), %edi
 201 0260 85F6     		testl	%esi, %esi
 202 0262 89D0     		movl	%edx, %eax
 203 0264 89DA     		movl	%ebx, %edx
 204 0266 89F3     		movl	%esi, %ebx
 205 0268 0F84F701 		je	L64
 205      0000
 206              	L17:
 207 026e 8B4510   		movl	16(%ebp), %eax
 208 0271 8B13     		movl	(%ebx), %edx
 209 0273 031408   		addl	(%eax,%ecx), %edx
 210 0276 89D1     		movl	%edx, %ecx
 211 0278 8B5304   		movl	4(%ebx), %edx
 212 027b 031438   		addl	(%eax,%edi), %edx
 213 027e 8B5C2444 		movl	68(%esp), %ebx
 214 0282 89D0     		movl	%edx, %eax
 215 0284 F7E1     		mull	%ecx
 216 0286 8B4C2440 		movl	64(%esp), %ecx
 217 028a 01C1     		addl	%eax, %ecx
 218 028c 11D3     		adcl	%edx, %ebx
 219 028e 31FF     		xorl	%edi, %edi
 220 0290 8D140B   		leal	(%ebx,%ecx), %edx
 221 0293 89D6     		movl	%edx, %esi
 222              	L5:
 223 0295 8B5C243C 		movl	60(%esp), %ebx
 224 0299 8B4D10   		movl	16(%ebp), %ecx
 225 029c 8B442438 		movl	56(%esp), %eax
 226 02a0 014508   		addl	%eax, 8(%ebp)
 227 02a3 030499   		addl	(%ecx,%ebx,4), %eax
 228 02a6 89F9     		movl	%edi, %ecx
 229 02a8 0FAFC8   		imull	%eax, %ecx
 230 02ab F7E6     		mull	%esi
 231 02ad 01CA     		addl	%ecx, %edx
 232 02af 01442430 		addl	%eax, 48(%esp)
 233 02b3 11542434 		adcl	%edx, 52(%esp)
 234 02b7 83C301   		addl	$1, %ebx
 235 02ba 81FB0001 		cmpl	$256, %ebx
 235      0000
 236 02c0 895C243C 		movl	%ebx, 60(%esp)
 237 02c4 743C     		je	L65
 238              	L14:
 239 02c6 8B542428 		movl	40(%esp), %edx
 240 02ca 3B5508   		cmpl	8(%ebp), %edx
 241 02cd 0F87CDFD 		ja	L15
 241      FFFF
 242 02d3 8B7C2434 		movl	52(%esp), %edi
 243 02d7 8B742430 		movl	48(%esp), %esi
 244 02db 89F8     		movl	%edi, %eax
 245 02dd 01F0     		addl	%esi, %eax
 246 02df C5F877   		vzeroupper
 247              	L57:
 248 02e2 8D65F4   		leal	-12(%ebp), %esp
 249 02e5 5B       		popl	%ebx
 250 02e6 5E       		popl	%esi
 251 02e7 5F       		popl	%edi
 252 02e8 5D       		popl	%ebp
 253 02e9 C3       		ret
 254 02ea 8DB60000 		.p2align 4,,10
 254      0000
 255              	L62:
 256 02f0 8B5C2448 		movl	72(%esp), %ebx
 257 02f4 31F6     		xorl	%esi, %esi
 258 02f6 31FF     		xorl	%edi, %edi
 259 02f8 85DB     		testl	%ebx, %ebx
 260 02fa 0F8514FE 		jne	L16
 260      FFFF
 261 0300 EB93     		jmp	L5
 262              		.p2align 4,,10
 263              	L65:
 264 0302 8B7C2434 		movl	52(%esp), %edi
 265 0306 8B742430 		movl	48(%esp), %esi
 266 030a C744243C 		movl	$0, 60(%esp)
 266      00000000 
 267 0312 89F8     		movl	%edi, %eax
 268 0314 8B7C2414 		movl	20(%esp), %edi
 269 0318 01F0     		addl	%esi, %eax
 270 031a 8B7510   		movl	16(%ebp), %esi
 271 031d F724BE   		mull	(%esi,%edi,4)
 272 0320 01442430 		addl	%eax, 48(%esp)
 273 0324 B8000000 		movl	$0, %eax
 273      00
 274 0329 11542434 		adcl	%edx, 52(%esp)
 275 032d 83C701   		addl	$1, %edi
 276 0330 81FF0001 		cmpl	$256, %edi
 276      0000
 277 0336 0F45C7   		cmovne	%edi, %eax
 278 0339 89442414 		movl	%eax, 20(%esp)
 279 033d EB87     		jmp	L14
 280 033f 90       		.p2align 4,,10
 281              	L61:
 282 0340 C5C1EFFF 		vpxor	%xmm7, %xmm7, %xmm7
 283 0344 8B5D08   		movl	8(%ebp), %ebx
 284 0347 8B4D10   		movl	16(%ebp), %ecx
 285 034a 31FF     		xorl	%edi, %edi
 286              	L4:
 287 034c C5FE6F0C 		vmovdqu	(%ecx,%edi), %ymm1
 287      39
 288 0351 C5FE6F6C 		vmovdqu	32(%ebx,%edi), %ymm5
 288      3B20
 289 0357 C5F5FE1C 		vpaddd	(%ebx,%edi), %ymm1, %ymm3
 289      3B
 290 035c C5FD70D3 		vpshufd	$49, %ymm3, %ymm2
 290      31
 291 0361 C5D5FE74 		vpaddd	32(%ecx,%edi), %ymm5, %ymm6
 291      3920
 292 0367 C5E5F4E2 		vpmuludq	%ymm2, %ymm3, %ymm4
 293 036b C5C5D4C4 		vpaddq	%ymm4, %ymm7, %ymm0
 294 036f C5FD70FE 		vpshufd	$49, %ymm6, %ymm7
 294      31
 295 0374 C5FE6F54 		vmovdqu	64(%ebx,%edi), %ymm2
 295      3B40
 296 037a C5CDF4CF 		vpmuludq	%ymm7, %ymm6, %ymm1
 297 037e C5EDFE64 		vpaddd	64(%ecx,%edi), %ymm2, %ymm4
 297      3940
 298 0384 C5FDD4D9 		vpaddq	%ymm1, %ymm0, %ymm3
 299 0388 C5FD70C4 		vpshufd	$49, %ymm4, %ymm0
 299      31
 300 038d C5FE6F7C 		vmovdqu	96(%ebx,%edi), %ymm7
 300      3B60
 301 0393 C5C5FE4C 		vpaddd	96(%ecx,%edi), %ymm7, %ymm1
 301      3960
 302 0399 C5DDF4E8 		vpmuludq	%ymm0, %ymm4, %ymm5
 303 039d C5E5D4F5 		vpaddq	%ymm5, %ymm3, %ymm6
 304 03a1 C5FD70D9 		vpshufd	$49, %ymm1, %ymm3
 304      31
 305 03a6 C5FE6F84 		vmovdqu	128(%ebx,%edi), %ymm0
 305      3B800000 
 305      00
 306 03af C5F5F4D3 		vpmuludq	%ymm3, %ymm1, %ymm2
 307 03b3 C5FDFEAC 		vpaddd	128(%ecx,%edi), %ymm0, %ymm5
 307      39800000 
 307      00
 308 03bc C5CDD4E2 		vpaddq	%ymm2, %ymm6, %ymm4
 309 03c0 C5FD70F5 		vpshufd	$49, %ymm5, %ymm6
 309      31
 310 03c5 C5FE6F9C 		vmovdqu	160(%ebx,%edi), %ymm3
 310      3BA00000 
 310      00
 311 03ce C5D5F4FE 		vpmuludq	%ymm6, %ymm5, %ymm7
 312 03d2 C5DDD4CF 		vpaddq	%ymm7, %ymm4, %ymm1
 313 03d6 C5E5FEA4 		vpaddd	160(%ecx,%edi), %ymm3, %ymm4
 313      39A00000 
 313      00
 314 03df C5FD70D4 		vpshufd	$49, %ymm4, %ymm2
 314      31
 315 03e4 C5FE6FB4 		vmovdqu	192(%ebx,%edi), %ymm6
 315      3BC00000 
 315      00
 316 03ed C5CDFEBC 		vpaddd	192(%ecx,%edi), %ymm6, %ymm7
 316      39C00000 
 316      00
 317 03f6 C5DDF4C2 		vpmuludq	%ymm2, %ymm4, %ymm0
 318 03fa C5F5D4E8 		vpaddq	%ymm0, %ymm1, %ymm5
 319 03fe C5FD70CF 		vpshufd	$49, %ymm7, %ymm1
 319      31
 320 0403 C5FE6F94 		vmovdqu	224(%ebx,%edi), %ymm2
 320      3BE00000 
 320      00
 321 040c C5C5F4D9 		vpmuludq	%ymm1, %ymm7, %ymm3
 322 0410 C5EDFE84 		vpaddd	224(%ecx,%edi), %ymm2, %ymm0
 322      39E00000 
 322      00
 323 0419 C5D5D4E3 		vpaddq	%ymm3, %ymm5, %ymm4
 324 041d C5FD70E8 		vpshufd	$49, %ymm0, %ymm5
 324      31
 325 0422 81C70001 		addl	$256, %edi
 325      0000
 326 0428 81FF0004 		cmpl	$1024, %edi
 326      0000
 327 042e C5FDF4F5 		vpmuludq	%ymm5, %ymm0, %ymm6
 328 0432 C5DDD4FE 		vpaddq	%ymm6, %ymm4, %ymm7
 329 0436 0F8510FF 		jne	L4
 329      FFFF
 330 043c C5FD70CF 		vpshufd	$14, %ymm7, %ymm1
 330      0E
 331 0441 31FF     		xorl	%edi, %edi
 332 0443 C5C5D4D9 		vpaddq	%ymm1, %ymm7, %ymm3
 333 0447 C4E37D39 		vextracti128	$0x1, %ymm3, %xmm4
 333      DC01
 334 044d C5E1D4D4 		vpaddq	%xmm4, %xmm3, %xmm2
 335 0451 C5F970C2 		vpshufd	$1, %xmm2, %xmm0
 335      01
 336 0456 C5F9FEEA 		vpaddd	%xmm2, %xmm0, %xmm5
 337 045a C5F97EE8 		vmovd	%xmm5, %eax
 338 045e 89C6     		movl	%eax, %esi
 339 0460 E930FEFF 		jmp	L5
 339      FF
 340              		.p2align 4,,10
 341              	L64:
 342 0465 01D0     		addl	%edx, %eax
 343 0467 31FF     		xorl	%edi, %edi
 344 0469 89C6     		movl	%eax, %esi
 345 046b E925FEFF 		jmp	L5
 345      FF
 346              		.p2align 4,,10
 347              	L63:
 348 0470 BF040000 		movl	$4, %edi
 348      00
 349 0475 31C9     		xorl	%ecx, %ecx
 350 0477 C7442440 		movl	$0, 64(%esp)
 350      00000000 
 351 047f C7442444 		movl	$0, 68(%esp)
 351      00000000 
 352 0487 8D5C2458 		leal	88(%esp), %ebx
 353 048b E9DEFDFF 		jmp	L17
 353      FF
 354              	L18:
 355 0490 31C0     		xorl	%eax, %eax
 356 0492 E94BFEFF 		jmp	L57
 356      FF
 357 0497 89F68DBC 		.p2align 4,,15
 357      27000000 
 357      00
 358              		.globl	__Z13farsh_keyed_nPKvjS0_iPv
 360              	__Z13farsh_keyed_nPKvjS0_iPv:
 361 04a0 55       		pushl	%ebp
 362 04a1 57       		pushl	%edi
 363 04a2 56       		pushl	%esi
 364 04a3 53       		pushl	%ebx
 365 04a4 83EC2C   		subl	$44, %esp
 366 04a7 8B44244C 		movl	76(%esp), %eax
 367 04ab 8B7C2440 		movl	64(%esp), %edi
 368 04af 8B6C2444 		movl	68(%esp), %ebp
 369 04b3 85C0     		testl	%eax, %eax
 370 04b5 0F8E7902 		jle	L111
 370      0000
 371 04bb 8B54244C 		movl	76(%esp), %edx
 372 04bf 8B5C2448 		movl	72(%esp), %ebx
 373 04c3 896C2404 		movl	%ebp, 4(%esp)
 374 04c7 893C24   		movl	%edi, (%esp)
 375 04ca 8D4AFF   		leal	-1(%edx), %ecx
 376 04cd 895C2408 		movl	%ebx, 8(%esp)
 377 04d1 BB010000 		movl	$1, %ebx
 377      00
 378 04d6 83E107   		andl	$7, %ecx
 379 04d9 894C241C 		movl	%ecx, 28(%esp)
 380 04dd E81EFBFF 		call	__Z11farsh_keyedPKvjS0_
 380      FF
 381 04e2 8B742450 		movl	80(%esp), %esi
 382 04e6 3B5C244C 		cmpl	76(%esp), %ebx
 383 04ea 8B54241C 		movl	28(%esp), %edx
 384 04ee 8906     		movl	%eax, (%esi)
 385 04f0 8B442448 		movl	72(%esp), %eax
 386 04f4 8D7004   		leal	4(%eax), %esi
 387 04f7 0F843702 		je	L111
 387      0000
 388 04fd 85D2     		testl	%edx, %edx
 389 04ff 0F840501 		je	L70
 389      0000
 390 0505 83FA01   		cmpl	$1, %edx
 391 0508 0F84D500 		je	L96
 391      0000
 392 050e 83FA02   		cmpl	$2, %edx
 393 0511 0F84AF00 		je	L97
 393      0000
 394 0517 83FA03   		cmpl	$3, %edx
 395 051a 0F848900 		je	L98
 395      0000
 396 0520 83FA04   		cmpl	$4, %edx
 397 0523 7467     		je	L99
 398 0525 83FA05   		cmpl	$5, %edx
 399 0528 7445     		je	L100
 400 052a 83FA06   		cmpl	$6, %edx
 401 052d 7423     		je	L101
 402 052f 89742408 		movl	%esi, 8(%esp)
 403 0533 896C2404 		movl	%ebp, 4(%esp)
 404 0537 893C24   		movl	%edi, (%esp)
 405 053a E8C1FAFF 		call	__Z11farsh_keyedPKvjS0_
 405      FF
 406 053f 8B742448 		movl	72(%esp), %esi
 407 0543 8B4C2450 		movl	80(%esp), %ecx
 408 0547 8D7608   		leal	8(%esi), %esi
 409 054a 890499   		movl	%eax, (%ecx,%ebx,4)
 410 054d BB020000 		movl	$2, %ebx
 410      00
 411              	L101:
 412 0552 89742408 		movl	%esi, 8(%esp)
 413 0556 896C2404 		movl	%ebp, 4(%esp)
 414 055a 83C604   		addl	$4, %esi
 415 055d 893C24   		movl	%edi, (%esp)
 416 0560 E89BFAFF 		call	__Z11farsh_keyedPKvjS0_
 416      FF
 417 0565 8B542450 		movl	80(%esp), %edx
 418 0569 89049A   		movl	%eax, (%edx,%ebx,4)
 419 056c 83C301   		addl	$1, %ebx
 420              	L100:
 421 056f 89742408 		movl	%esi, 8(%esp)
 422 0573 896C2404 		movl	%ebp, 4(%esp)
 423 0577 83C604   		addl	$4, %esi
 424 057a 893C24   		movl	%edi, (%esp)
 425 057d E87EFAFF 		call	__Z11farsh_keyedPKvjS0_
 425      FF
 426 0582 8B4C2450 		movl	80(%esp), %ecx
 427 0586 890499   		movl	%eax, (%ecx,%ebx,4)
 428 0589 83C301   		addl	$1, %ebx
 429              	L99:
 430 058c 89742408 		movl	%esi, 8(%esp)
 431 0590 896C2404 		movl	%ebp, 4(%esp)
 432 0594 83C604   		addl	$4, %esi
 433 0597 893C24   		movl	%edi, (%esp)
 434 059a E861FAFF 		call	__Z11farsh_keyedPKvjS0_
 434      FF
 435 059f 8B542450 		movl	80(%esp), %edx
 436 05a3 89049A   		movl	%eax, (%edx,%ebx,4)
 437 05a6 83C301   		addl	$1, %ebx
 438              	L98:
 439 05a9 89742408 		movl	%esi, 8(%esp)
 440 05ad 896C2404 		movl	%ebp, 4(%esp)
 441 05b1 83C604   		addl	$4, %esi
 442 05b4 893C24   		movl	%edi, (%esp)
 443 05b7 E844FAFF 		call	__Z11farsh_keyedPKvjS0_
 443      FF
 444 05bc 8B4C2450 		movl	80(%esp), %ecx
 445 05c0 890499   		movl	%eax, (%ecx,%ebx,4)
 446 05c3 83C301   		addl	$1, %ebx
 447              	L97:
 448 05c6 89742408 		movl	%esi, 8(%esp)
 449 05ca 896C2404 		movl	%ebp, 4(%esp)
 450 05ce 83C604   		addl	$4, %esi
 451 05d1 893C24   		movl	%edi, (%esp)
 452 05d4 E827FAFF 		call	__Z11farsh_keyedPKvjS0_
 452      FF
 453 05d9 8B542450 		movl	80(%esp), %edx
 454 05dd 89049A   		movl	%eax, (%edx,%ebx,4)
 455 05e0 83C301   		addl	$1, %ebx
 456              	L96:
 457 05e3 89742408 		movl	%esi, 8(%esp)
 458 05e7 896C2404 		movl	%ebp, 4(%esp)
 459 05eb 83C604   		addl	$4, %esi
 460 05ee 893C24   		movl	%edi, (%esp)
 461 05f1 E80AFAFF 		call	__Z11farsh_keyedPKvjS0_
 461      FF
 462 05f6 8B4C2450 		movl	80(%esp), %ecx
 463 05fa 890499   		movl	%eax, (%ecx,%ebx,4)
 464 05fd 83C301   		addl	$1, %ebx
 465 0600 3B5C244C 		cmpl	76(%esp), %ebx
 466 0604 0F842A01 		je	L111
 466      0000
 467              	L70:
 468 060a 89742408 		movl	%esi, 8(%esp)
 469 060e 896C2404 		movl	%ebp, 4(%esp)
 470 0612 893C24   		movl	%edi, (%esp)
 471 0615 E8E6F9FF 		call	__Z11farsh_keyedPKvjS0_
 471      FF
 472 061a 8B542450 		movl	80(%esp), %edx
 473 061e 8D4E04   		leal	4(%esi), %ecx
 474 0621 89049A   		movl	%eax, (%edx,%ebx,4)
 475 0624 8D4301   		leal	1(%ebx), %eax
 476 0627 894C2408 		movl	%ecx, 8(%esp)
 477 062b 896C2404 		movl	%ebp, 4(%esp)
 478 062f 893C24   		movl	%edi, (%esp)
 479 0632 8944241C 		movl	%eax, 28(%esp)
 480 0636 E8C5F9FF 		call	__Z11farsh_keyedPKvjS0_
 480      FF
 481 063b 8B54241C 		movl	28(%esp), %edx
 482 063f 8B4C2450 		movl	80(%esp), %ecx
 483 0643 890491   		movl	%eax, (%ecx,%edx,4)
 484 0646 8D4E08   		leal	8(%esi), %ecx
 485 0649 8D4302   		leal	2(%ebx), %eax
 486 064c 896C2404 		movl	%ebp, 4(%esp)
 487 0650 893C24   		movl	%edi, (%esp)
 488 0653 894C2408 		movl	%ecx, 8(%esp)
 489 0657 8944241C 		movl	%eax, 28(%esp)
 490 065b E8A0F9FF 		call	__Z11farsh_keyedPKvjS0_
 490      FF
 491 0660 8B54241C 		movl	28(%esp), %edx
 492 0664 8B4C2450 		movl	80(%esp), %ecx
 493 0668 890491   		movl	%eax, (%ecx,%edx,4)
 494 066b 8D4E0C   		leal	12(%esi), %ecx
 495 066e 8D4303   		leal	3(%ebx), %eax
 496 0671 896C2404 		movl	%ebp, 4(%esp)
 497 0675 893C24   		movl	%edi, (%esp)
 498 0678 894C2408 		movl	%ecx, 8(%esp)
 499 067c 8944241C 		movl	%eax, 28(%esp)
 500 0680 E87BF9FF 		call	__Z11farsh_keyedPKvjS0_
 500      FF
 501 0685 8B54241C 		movl	28(%esp), %edx
 502 0689 8B4C2450 		movl	80(%esp), %ecx
 503 068d 890491   		movl	%eax, (%ecx,%edx,4)
 504 0690 8D4E10   		leal	16(%esi), %ecx
 505 0693 8D4304   		leal	4(%ebx), %eax
 506 0696 896C2404 		movl	%ebp, 4(%esp)
 507 069a 893C24   		movl	%edi, (%esp)
 508 069d 894C2408 		movl	%ecx, 8(%esp)
 509 06a1 8944241C 		movl	%eax, 28(%esp)
 510 06a5 E856F9FF 		call	__Z11farsh_keyedPKvjS0_
 510      FF
 511 06aa 8B54241C 		movl	28(%esp), %edx
 512 06ae 8B4C2450 		movl	80(%esp), %ecx
 513 06b2 890491   		movl	%eax, (%ecx,%edx,4)
 514 06b5 8D4E14   		leal	20(%esi), %ecx
 515 06b8 8D4305   		leal	5(%ebx), %eax
 516 06bb 896C2404 		movl	%ebp, 4(%esp)
 517 06bf 893C24   		movl	%edi, (%esp)
 518 06c2 894C2408 		movl	%ecx, 8(%esp)
 519 06c6 8944241C 		movl	%eax, 28(%esp)
 520 06ca E831F9FF 		call	__Z11farsh_keyedPKvjS0_
 520      FF
 521 06cf 8B54241C 		movl	28(%esp), %edx
 522 06d3 8B4C2450 		movl	80(%esp), %ecx
 523 06d7 890491   		movl	%eax, (%ecx,%edx,4)
 524 06da 8D4E18   		leal	24(%esi), %ecx
 525 06dd 8D4306   		leal	6(%ebx), %eax
 526 06e0 896C2404 		movl	%ebp, 4(%esp)
 527 06e4 893C24   		movl	%edi, (%esp)
 528 06e7 894C2408 		movl	%ecx, 8(%esp)
 529 06eb 8944241C 		movl	%eax, 28(%esp)
 530 06ef E80CF9FF 		call	__Z11farsh_keyedPKvjS0_
 530      FF
 531 06f4 8B54241C 		movl	28(%esp), %edx
 532 06f8 8B4C2450 		movl	80(%esp), %ecx
 533 06fc 890491   		movl	%eax, (%ecx,%edx,4)
 534 06ff 8D4E1C   		leal	28(%esi), %ecx
 535 0702 8D4307   		leal	7(%ebx), %eax
 536 0705 896C2404 		movl	%ebp, 4(%esp)
 537 0709 893C24   		movl	%edi, (%esp)
 538 070c 83C308   		addl	$8, %ebx
 539 070f 894C2408 		movl	%ecx, 8(%esp)
 540 0713 8944241C 		movl	%eax, 28(%esp)
 541 0717 83C620   		addl	$32, %esi
 542 071a E8E1F8FF 		call	__Z11farsh_keyedPKvjS0_
 542      FF
 543 071f 3B5C244C 		cmpl	76(%esp), %ebx
 544 0723 8B4C2450 		movl	80(%esp), %ecx
 545 0727 8B54241C 		movl	28(%esp), %edx
 546 072b 890491   		movl	%eax, (%ecx,%edx,4)
 547 072e 0F85D6FE 		jne	L70
 547      FFFF
 548              	L111:
 549 0734 83C42C   		addl	$44, %esp
 550 0737 5B       		popl	%ebx
 551 0738 5E       		popl	%esi
 552 0739 5F       		popl	%edi
 553 073a 5D       		popl	%ebp
 554 073b C3       		ret
 555 073c 8D742600 		.p2align 4,,15
 556              		.globl	__Z7farsh_nPKvjiiPv
 558              	__Z7farsh_nPKvjiiPv:
 559 0740 55       		pushl	%ebp
 560 0741 57       		pushl	%edi
 561 0742 56       		pushl	%esi
 562 0743 53       		pushl	%ebx
 563 0744 83EC2C   		subl	$44, %esp
 564 0747 8B442448 		movl	72(%esp), %eax
 565 074b 8B54244C 		movl	76(%esp), %edx
 566 074f 8B7C2440 		movl	64(%esp), %edi
 567 0753 8B6C2444 		movl	68(%esp), %ebp
 568 0757 8D1C8580 		leal	__ZL10FARSH_KEYS(,%eax,4), %ebx
 568      000000
 569 075e 85D2     		testl	%edx, %edx
 570 0760 89DE     		movl	%ebx, %esi
 571 0762 895C2418 		movl	%ebx, 24(%esp)
 572 0766 0F8E7102 		jle	L158
 572      0000
 573 076c 8B4C244C 		movl	76(%esp), %ecx
 574 0770 895C2408 		movl	%ebx, 8(%esp)
 575 0774 8D7604   		leal	4(%esi), %esi
 576 0777 896C2404 		movl	%ebp, 4(%esp)
 577 077b 893C24   		movl	%edi, (%esp)
 578 077e 8D41FF   		leal	-1(%ecx), %eax
 579 0781 83E007   		andl	$7, %eax
 580 0784 8944241C 		movl	%eax, 28(%esp)
 581 0788 E873F8FF 		call	__Z11farsh_keyedPKvjS0_
 581      FF
 582 078d 8B5C2450 		movl	80(%esp), %ebx
 583 0791 8B54241C 		movl	28(%esp), %edx
 584 0795 8903     		movl	%eax, (%ebx)
 585 0797 BB010000 		movl	$1, %ebx
 585      00
 586 079c 3B5C244C 		cmpl	76(%esp), %ebx
 587 07a0 0F843702 		je	L158
 587      0000
 588 07a6 85D2     		testl	%edx, %edx
 589 07a8 0F840501 		je	L117
 589      0000
 590 07ae 83FA01   		cmpl	$1, %edx
 591 07b1 0F84D500 		je	L143
 591      0000
 592 07b7 83FA02   		cmpl	$2, %edx
 593 07ba 0F84AF00 		je	L144
 593      0000
 594 07c0 83FA03   		cmpl	$3, %edx
 595 07c3 0F848900 		je	L145
 595      0000
 596 07c9 83FA04   		cmpl	$4, %edx
 597 07cc 7467     		je	L146
 598 07ce 83FA05   		cmpl	$5, %edx
 599 07d1 7445     		je	L147
 600 07d3 83FA06   		cmpl	$6, %edx
 601 07d6 7423     		je	L148
 602 07d8 89742408 		movl	%esi, 8(%esp)
 603 07dc 896C2404 		movl	%ebp, 4(%esp)
 604 07e0 893C24   		movl	%edi, (%esp)
 605 07e3 E818F8FF 		call	__Z11farsh_keyedPKvjS0_
 605      FF
 606 07e8 8B4C2450 		movl	80(%esp), %ecx
 607 07ec 8B742418 		movl	24(%esp), %esi
 608 07f0 890499   		movl	%eax, (%ecx,%ebx,4)
 609 07f3 83C608   		addl	$8, %esi
 610 07f6 BB020000 		movl	$2, %ebx
 610      00
 611              	L148:
 612 07fb 89742408 		movl	%esi, 8(%esp)
 613 07ff 896C2404 		movl	%ebp, 4(%esp)
 614 0803 83C604   		addl	$4, %esi
 615 0806 893C24   		movl	%edi, (%esp)
 616 0809 E8F2F7FF 		call	__Z11farsh_keyedPKvjS0_
 616      FF
 617 080e 8B542450 		movl	80(%esp), %edx
 618 0812 89049A   		movl	%eax, (%edx,%ebx,4)
 619 0815 83C301   		addl	$1, %ebx
 620              	L147:
 621 0818 89742408 		movl	%esi, 8(%esp)
 622 081c 896C2404 		movl	%ebp, 4(%esp)
 623 0820 83C604   		addl	$4, %esi
 624 0823 893C24   		movl	%edi, (%esp)
 625 0826 E8D5F7FF 		call	__Z11farsh_keyedPKvjS0_
 625      FF
 626 082b 8B4C2450 		movl	80(%esp), %ecx
 627 082f 890499   		movl	%eax, (%ecx,%ebx,4)
 628 0832 83C301   		addl	$1, %ebx
 629              	L146:
 630 0835 89742408 		movl	%esi, 8(%esp)
 631 0839 896C2404 		movl	%ebp, 4(%esp)
 632 083d 83C604   		addl	$4, %esi
 633 0840 893C24   		movl	%edi, (%esp)
 634 0843 E8B8F7FF 		call	__Z11farsh_keyedPKvjS0_
 634      FF
 635 0848 8B542450 		movl	80(%esp), %edx
 636 084c 89049A   		movl	%eax, (%edx,%ebx,4)
 637 084f 83C301   		addl	$1, %ebx
 638              	L145:
 639 0852 89742408 		movl	%esi, 8(%esp)
 640 0856 896C2404 		movl	%ebp, 4(%esp)
 641 085a 83C604   		addl	$4, %esi
 642 085d 893C24   		movl	%edi, (%esp)
 643 0860 E89BF7FF 		call	__Z11farsh_keyedPKvjS0_
 643      FF
 644 0865 8B4C2450 		movl	80(%esp), %ecx
 645 0869 890499   		movl	%eax, (%ecx,%ebx,4)
 646 086c 83C301   		addl	$1, %ebx
 647              	L144:
 648 086f 89742408 		movl	%esi, 8(%esp)
 649 0873 896C2404 		movl	%ebp, 4(%esp)
 650 0877 83C604   		addl	$4, %esi
 651 087a 893C24   		movl	%edi, (%esp)
 652 087d E87EF7FF 		call	__Z11farsh_keyedPKvjS0_
 652      FF
 653 0882 8B542450 		movl	80(%esp), %edx
 654 0886 89049A   		movl	%eax, (%edx,%ebx,4)
 655 0889 83C301   		addl	$1, %ebx
 656              	L143:
 657 088c 89742408 		movl	%esi, 8(%esp)
 658 0890 896C2404 		movl	%ebp, 4(%esp)
 659 0894 83C604   		addl	$4, %esi
 660 0897 893C24   		movl	%edi, (%esp)
 661 089a E861F7FF 		call	__Z11farsh_keyedPKvjS0_
 661      FF
 662 089f 8B4C2450 		movl	80(%esp), %ecx
 663 08a3 890499   		movl	%eax, (%ecx,%ebx,4)
 664 08a6 83C301   		addl	$1, %ebx
 665 08a9 3B5C244C 		cmpl	76(%esp), %ebx
 666 08ad 0F842A01 		je	L158
 666      0000
 667              	L117:
 668 08b3 89742408 		movl	%esi, 8(%esp)
 669 08b7 896C2404 		movl	%ebp, 4(%esp)
 670 08bb 893C24   		movl	%edi, (%esp)
 671 08be E83DF7FF 		call	__Z11farsh_keyedPKvjS0_
 671      FF
 672 08c3 8B542450 		movl	80(%esp), %edx
 673 08c7 8D4E04   		leal	4(%esi), %ecx
 674 08ca 89049A   		movl	%eax, (%edx,%ebx,4)
 675 08cd 8D4301   		leal	1(%ebx), %eax
 676 08d0 894C2408 		movl	%ecx, 8(%esp)
 677 08d4 896C2404 		movl	%ebp, 4(%esp)
 678 08d8 893C24   		movl	%edi, (%esp)
 679 08db 89442418 		movl	%eax, 24(%esp)
 680 08df E81CF7FF 		call	__Z11farsh_keyedPKvjS0_
 680      FF
 681 08e4 8B542418 		movl	24(%esp), %edx
 682 08e8 8B4C2450 		movl	80(%esp), %ecx
 683 08ec 890491   		movl	%eax, (%ecx,%edx,4)
 684 08ef 8D4E08   		leal	8(%esi), %ecx
 685 08f2 8D4302   		leal	2(%ebx), %eax
 686 08f5 896C2404 		movl	%ebp, 4(%esp)
 687 08f9 893C24   		movl	%edi, (%esp)
 688 08fc 894C2408 		movl	%ecx, 8(%esp)
 689 0900 89442418 		movl	%eax, 24(%esp)
 690 0904 E8F7F6FF 		call	__Z11farsh_keyedPKvjS0_
 690      FF
 691 0909 8B542418 		movl	24(%esp), %edx
 692 090d 8B4C2450 		movl	80(%esp), %ecx
 693 0911 890491   		movl	%eax, (%ecx,%edx,4)
 694 0914 8D4E0C   		leal	12(%esi), %ecx
 695 0917 8D4303   		leal	3(%ebx), %eax
 696 091a 896C2404 		movl	%ebp, 4(%esp)
 697 091e 893C24   		movl	%edi, (%esp)
 698 0921 894C2408 		movl	%ecx, 8(%esp)
 699 0925 89442418 		movl	%eax, 24(%esp)
 700 0929 E8D2F6FF 		call	__Z11farsh_keyedPKvjS0_
 700      FF
 701 092e 8B542418 		movl	24(%esp), %edx
 702 0932 8B4C2450 		movl	80(%esp), %ecx
 703 0936 890491   		movl	%eax, (%ecx,%edx,4)
 704 0939 8D4E10   		leal	16(%esi), %ecx
 705 093c 8D4304   		leal	4(%ebx), %eax
 706 093f 896C2404 		movl	%ebp, 4(%esp)
 707 0943 893C24   		movl	%edi, (%esp)
 708 0946 894C2408 		movl	%ecx, 8(%esp)
 709 094a 89442418 		movl	%eax, 24(%esp)
 710 094e E8ADF6FF 		call	__Z11farsh_keyedPKvjS0_
 710      FF
 711 0953 8B542418 		movl	24(%esp), %edx
 712 0957 8B4C2450 		movl	80(%esp), %ecx
 713 095b 890491   		movl	%eax, (%ecx,%edx,4)
 714 095e 8D4E14   		leal	20(%esi), %ecx
 715 0961 8D4305   		leal	5(%ebx), %eax
 716 0964 896C2404 		movl	%ebp, 4(%esp)
 717 0968 893C24   		movl	%edi, (%esp)
 718 096b 894C2408 		movl	%ecx, 8(%esp)
 719 096f 89442418 		movl	%eax, 24(%esp)
 720 0973 E888F6FF 		call	__Z11farsh_keyedPKvjS0_
 720      FF
 721 0978 8B542418 		movl	24(%esp), %edx
 722 097c 8B4C2450 		movl	80(%esp), %ecx
 723 0980 890491   		movl	%eax, (%ecx,%edx,4)
 724 0983 8D4E18   		leal	24(%esi), %ecx
 725 0986 8D4306   		leal	6(%ebx), %eax
 726 0989 896C2404 		movl	%ebp, 4(%esp)
 727 098d 893C24   		movl	%edi, (%esp)
 728 0990 894C2408 		movl	%ecx, 8(%esp)
 729 0994 89442418 		movl	%eax, 24(%esp)
 730 0998 E863F6FF 		call	__Z11farsh_keyedPKvjS0_
 730      FF
 731 099d 8B542418 		movl	24(%esp), %edx
 732 09a1 8B4C2450 		movl	80(%esp), %ecx
 733 09a5 890491   		movl	%eax, (%ecx,%edx,4)
 734 09a8 8D4E1C   		leal	28(%esi), %ecx
 735 09ab 8D4307   		leal	7(%ebx), %eax
 736 09ae 896C2404 		movl	%ebp, 4(%esp)
 737 09b2 893C24   		movl	%edi, (%esp)
 738 09b5 83C308   		addl	$8, %ebx
 739 09b8 894C2408 		movl	%ecx, 8(%esp)
 740 09bc 89442418 		movl	%eax, 24(%esp)
 741 09c0 83C620   		addl	$32, %esi
 742 09c3 E838F6FF 		call	__Z11farsh_keyedPKvjS0_
 742      FF
 743 09c8 3B5C244C 		cmpl	76(%esp), %ebx
 744 09cc 8B4C2450 		movl	80(%esp), %ecx
 745 09d0 8B542418 		movl	24(%esp), %edx
 746 09d4 890491   		movl	%eax, (%ecx,%edx,4)
 747 09d7 0F85D6FE 		jne	L117
 747      FFFF
 748              	L158:
 749 09dd 83C42C   		addl	$44, %esp
 750 09e0 5B       		popl	%ebx
 751 09e1 5E       		popl	%esi
 752 09e2 5F       		popl	%edi
 753 09e3 5D       		popl	%ebp
 754 09e4 C3       		ret
 755 09e5 8D742600 		.p2align 4,,15
 755      8DBC2700 
 755      000000
 756              		.globl	__Z5farshPKvj
 758              	__Z5farshPKvj:
 759 09f0 83EC1C   		subl	$28, %esp
 760 09f3 8B442424 		movl	36(%esp), %eax
 761 09f7 8B542420 		movl	32(%esp), %edx
 762 09fb C7442408 		movl	$__ZL10FARSH_KEYS, 8(%esp)
 762      80000000 
 763 0a03 89442404 		movl	%eax, 4(%esp)
 764 0a07 891424   		movl	%edx, (%esp)
 765 0a0a E8F1F5FF 		call	__Z11farsh_keyedPKvjS0_
 765      FF
 766 0a0f 83C41C   		addl	$28, %esp
 767 0a12 C3       		ret
 769 0a13 90909090 		.section .rdata,"dr"
 769      90909090 
 769      90909090 
 769      90
 770              	LC11:
 771 0000 20282578 		.ascii " (%x)\0"
 771      2900
 772 0006 0000     		.align 4
 773              	LC16:
 774 0008 3A20252E 		.ascii ": %.3lf milliseconds = %.3lf GB/s = %.3lf GiB/s\12\0"
 774      336C6620 
 774      6D696C6C 
 774      69736563 
 774      6F6E6473 
 775              	LC17:
 776 0039 48617368 		.ascii "Hashing %d GiB\0"
 776      696E6720 
 776      25642047 
 776      694200
 777              		.section	.text.startup,"x"
 778              		.p2align 4,,15
 779              		.globl	_main
 781              	_main:
 782 0000 8D4C2404 		leal	4(%esp), %ecx
 783 0004 83E4E0   		andl	$-32, %esp
 784 0007 FF71FC   		pushl	-4(%ecx)
 785 000a 55       		pushl	%ebp
 786 000b 89E5     		movl	%esp, %ebp
 787 000d 57       		pushl	%edi
 788 000e 56       		pushl	%esi
 789 000f 53       		pushl	%ebx
 790 0010 51       		pushl	%ecx
 791 0011 81EC8800 		subl	$136, %esp
 791      0000
 792 0017 E8000000 		call	___main
 792      00
 793 001c C5FD6F2D 		vmovdqa	LC0, %ymm5
 793      80080000 
 794 0024 B8000000 		movl	$__ZZ4mainE4data, %eax
 794      00
 795 0029 C5FD6F25 		vmovdqa	LC2, %ymm4
 795      C0080000 
 796 0031 C5FD6FC5 		vmovdqa	%ymm5, %ymm0
 797 0035 C5FD6F35 		vmovdqa	LC3, %ymm6
 797      E0080000 
 798              	L163:
 799 003d C5FDDBCE 		vpand	%ymm6, %ymm0, %ymm1
 800 0041 C4E25540 		vpmulld	%ymm4, %ymm5, %ymm2
 800      D4
 801 0046 C5D5FE3D 		vpaddd	LC4, %ymm5, %ymm7
 801      00090000 
 802 004e C4E24540 		vpmulld	%ymm4, %ymm7, %ymm7
 802      FC
 803 0053 C5D5FE1D 		vpaddd	LC1, %ymm5, %ymm3
 803      A0080000 
 804 005b C5FD7F5D 		vmovdqa	%ymm3, -120(%ebp)
 804      88
 805 0060 C5FDFE1D 		vpaddd	LC1, %ymm0, %ymm3
 805      A0080000 
 806 0068 83C040   		addl	$64, %eax
 807 006b C4E26D45 		vpsrlvd	%ymm1, %ymm2, %ymm1
 807      C9
 808 0070 C5FDFE15 		vpaddd	LC4, %ymm0, %ymm2
 808      00090000 
 809 0078 C5EDDBD6 		vpand	%ymm6, %ymm2, %ymm2
 810 007c C4E27500 		vpshufb	LC5, %ymm1, %ymm1
 810      0D200900 
 810      00
 811 0085 C4E24545 		vpsrlvd	%ymm2, %ymm7, %ymm7
 811      FA
 812 008a C4E24500 		vpshufb	LC6, %ymm7, %ymm2
 812      15400900 
 812      00
 813 0093 C5F5EBFA 		vpor	%ymm2, %ymm1, %ymm7
 814 0097 C5D5FE15 		vpaddd	LC7, %ymm5, %ymm2
 814      60090000 
 815 009f C5D5FE2D 		vpaddd	LC8, %ymm5, %ymm5
 815      80090000 
 816 00a7 C4E3FD00 		vpermq	$216, %ymm7, %ymm1
 816      CFD8
 817 00ad C4E26D40 		vpmulld	%ymm4, %ymm2, %ymm7
 817      FC
 818 00b2 C5FDFE15 		vpaddd	LC7, %ymm0, %ymm2
 818      60090000 
 819 00ba C5EDDBD6 		vpand	%ymm6, %ymm2, %ymm2
 820 00be C5FDFE05 		vpaddd	LC8, %ymm0, %ymm0
 820      80090000 
 821 00c6 C4E27500 		vpshufb	LC9, %ymm1, %ymm1
 821      0DA00900 
 821      00
 822 00cf C4E24545 		vpsrlvd	%ymm2, %ymm7, %ymm7
 822      FA
 823 00d4 C4E25540 		vpmulld	%ymm4, %ymm5, %ymm2
 823      D4
 824 00d9 C5FDDBEE 		vpand	%ymm6, %ymm0, %ymm5
 825 00dd C4E24500 		vpshufb	LC5, %ymm7, %ymm7
 825      3D200900 
 825      00
 826 00e6 C4E26D45 		vpsrlvd	%ymm5, %ymm2, %ymm2
 826      D5
 827 00eb C4E26D00 		vpshufb	LC6, %ymm2, %ymm0
 827      05400900 
 827      00
 828 00f4 C5C5EBE8 		vpor	%ymm0, %ymm7, %ymm5
 829 00f8 C4E3FD00 		vpermq	$216, %ymm5, %ymm2
 829      D5D8
 830 00fe C4E26D00 		vpshufb	LC10, %ymm2, %ymm7
 830      3DC00900 
 830      00
 831 0107 C5F5EBC7 		vpor	%ymm7, %ymm1, %ymm0
 832 010b C5FD6F7D 		vmovdqa	-120(%ebp), %ymm7
 832      88
 833 0110 C5E5DBCE 		vpand	%ymm6, %ymm3, %ymm1
 834 0114 C4E25D40 		vpmulld	%ymm7, %ymm4, %ymm2
 834      D7
 835 0119 C4E3FD00 		vpermq	$216, %ymm0, %ymm5
 835      E8D8
 836 011f C5C5FE05 		vpaddd	LC4, %ymm7, %ymm0
 836      00090000 
 837 0127 C5FD7F68 		vmovdqa	%ymm5, -64(%eax)
 837      C0
 838 012c C4E26D45 		vpsrlvd	%ymm1, %ymm2, %ymm5
 838      E9
 839 0131 C4E27D40 		vpmulld	%ymm4, %ymm0, %ymm1
 839      CC
 840 0136 C5E5FE15 		vpaddd	LC4, %ymm3, %ymm2
 840      00090000 
 841 013e C5EDDBC6 		vpand	%ymm6, %ymm2, %ymm0
 842 0142 C4E25500 		vpshufb	LC5, %ymm5, %ymm5
 842      2D200900 
 842      00
 843 014b C4E27545 		vpsrlvd	%ymm0, %ymm1, %ymm2
 843      D0
 844 0150 C4E26D00 		vpshufb	LC6, %ymm2, %ymm1
 844      0D400900 
 844      00
 845 0159 C5C5FE15 		vpaddd	LC7, %ymm7, %ymm2
 845      60090000 
 846 0161 C5D5EBC1 		vpor	%ymm1, %ymm5, %ymm0
 847 0165 C4E26D40 		vpmulld	%ymm4, %ymm2, %ymm5
 847      EC
 848 016a C5E5FE0D 		vpaddd	LC7, %ymm3, %ymm1
 848      60090000 
 849 0172 C5F5DBD6 		vpand	%ymm6, %ymm1, %ymm2
 850 0176 C4E3FD00 		vpermq	$216, %ymm0, %ymm0
 850      C0D8
 851 017c C4E25545 		vpsrlvd	%ymm2, %ymm5, %ymm1
 851      CA
 852 0181 C5C5FE2D 		vpaddd	LC8, %ymm7, %ymm5
 852      80090000 
 853 0189 C4E25540 		vpmulld	%ymm4, %ymm5, %ymm2
 853      D4
 854 018e C5E5FE2D 		vpaddd	LC8, %ymm3, %ymm5
 854      80090000 
 855 0196 C5D5DBEE 		vpand	%ymm6, %ymm5, %ymm5
 856 019a C4E27500 		vpshufb	LC5, %ymm1, %ymm1
 856      0D200900 
 856      00
 857 01a3 C4E27D00 		vpshufb	LC9, %ymm0, %ymm0
 857      05A00900 
 857      00
 858 01ac C4E26D45 		vpsrlvd	%ymm5, %ymm2, %ymm2
 858      D5
 859 01b1 C4E26D00 		vpshufb	LC6, %ymm2, %ymm5
 859      2D400900 
 859      00
 860 01ba C5F5EBD5 		vpor	%ymm5, %ymm1, %ymm2
 861 01be C4E3FD00 		vpermq	$216, %ymm2, %ymm1
 861      CAD8
 862 01c4 C4E27500 		vpshufb	LC10, %ymm1, %ymm5
 862      2DC00900 
 862      00
 863 01cd C5FDEBD5 		vpor	%ymm5, %ymm0, %ymm2
 864 01d1 C5E5FE05 		vpaddd	LC1, %ymm3, %ymm0
 864      A0080000 
 865 01d9 C5C5FE2D 		vpaddd	LC1, %ymm7, %ymm5
 865      A0080000 
 866 01e1 C4E3FD00 		vpermq	$216, %ymm2, %ymm1
 866      CAD8
 867 01e7 C5FD7F48 		vmovdqa	%ymm1, -32(%eax)
 867      E0
 868 01ec 3D007000 		cmpl	$__ZZ4mainE4data+28672, %eax
 868      00
 869 01f1 0F8546FE 		jne	L163
 869      FFFF
 870 01f7 BB017000 		movl	$28673, %ebx
 870      00
 871 01fc C6050070 		movb	$0, __ZZ4mainE4data+28672
 871      000000
 872 0203 C7442408 		movl	$__ZL10FARSH_KEYS, 8(%esp)
 872      80000000 
 873 020b C7442404 		movl	$28673, 4(%esp)
 873      01700000 
 874 0213 C7042400 		movl	$__ZZ4mainE4data, (%esp)
 874      000000
 875 021a C5F877   		vzeroupper
 876 021d E8000000 		call	__Z11farsh_keyedPKvjS0_
 876      00
 877 0222 83F82A   		cmpl	$42, %eax
 878 0225 BE007000 		movl	$28672, %esi
 878      00
 879 022a 0F845C01 		je	L164
 879      0000
 880              	L165:
 881 0230 89DA     		movl	%ebx, %edx
 882 0232 C7442408 		movl	$__ZL10FARSH_KEYS, 8(%esp)
 882      80000000 
 883 023a 89742404 		movl	%esi, 4(%esp)
 884 023e 29F2     		subl	%esi, %edx
 885 0240 81C20000 		addl	$__ZZ4mainE4data, %edx
 885      0000
 886 0246 891424   		movl	%edx, (%esp)
 887 0249 E8000000 		call	__Z11farsh_keyedPKvjS0_
 887      00
 888 024e 83F82A   		cmpl	$42, %eax
 889 0251 0F843501 		je	L164
 889      0000
 890 0257 8D4EFF   		leal	-1(%esi), %ecx
 891 025a 89DF     		movl	%ebx, %edi
 892 025c C7442408 		movl	$__ZL10FARSH_KEYS, 8(%esp)
 892      80000000 
 893 0264 29CF     		subl	%ecx, %edi
 894 0266 894C2404 		movl	%ecx, 4(%esp)
 895 026a 89F8     		movl	%edi, %eax
 896 026c 05000000 		addl	$__ZZ4mainE4data, %eax
 896      00
 897 0271 890424   		movl	%eax, (%esp)
 898 0274 E8000000 		call	__Z11farsh_keyedPKvjS0_
 898      00
 899 0279 83F82A   		cmpl	$42, %eax
 900 027c 0F840A01 		je	L164
 900      0000
 901 0282 8D56FE   		leal	-2(%esi), %edx
 902 0285 89D9     		movl	%ebx, %ecx
 903 0287 C7442408 		movl	$__ZL10FARSH_KEYS, 8(%esp)
 903      80000000 
 904 028f 29D1     		subl	%edx, %ecx
 905 0291 89542404 		movl	%edx, 4(%esp)
 906 0295 89CF     		movl	%ecx, %edi
 907 0297 81C70000 		addl	$__ZZ4mainE4data, %edi
 907      0000
 908 029d 893C24   		movl	%edi, (%esp)
 909 02a0 E8000000 		call	__Z11farsh_keyedPKvjS0_
 909      00
 910 02a5 83F82A   		cmpl	$42, %eax
 911 02a8 0F84DE00 		je	L164
 911      0000
 912 02ae 8D46FD   		leal	-3(%esi), %eax
 913 02b1 89DA     		movl	%ebx, %edx
 914 02b3 C7442408 		movl	$__ZL10FARSH_KEYS, 8(%esp)
 914      80000000 
 915 02bb 29C2     		subl	%eax, %edx
 916 02bd 89442404 		movl	%eax, 4(%esp)
 917 02c1 89D1     		movl	%edx, %ecx
 918 02c3 81C10000 		addl	$__ZZ4mainE4data, %ecx
 918      0000
 919 02c9 890C24   		movl	%ecx, (%esp)
 920 02cc E8000000 		call	__Z11farsh_keyedPKvjS0_
 920      00
 921 02d1 83F82A   		cmpl	$42, %eax
 922 02d4 0F84B200 		je	L164
 922      0000
 923 02da 8D46FC   		leal	-4(%esi), %eax
 924 02dd 89DF     		movl	%ebx, %edi
 925 02df C7442408 		movl	$__ZL10FARSH_KEYS, 8(%esp)
 925      80000000 
 926 02e7 29C7     		subl	%eax, %edi
 927 02e9 89442404 		movl	%eax, 4(%esp)
 928 02ed 89FA     		movl	%edi, %edx
 929 02ef 81C20000 		addl	$__ZZ4mainE4data, %edx
 929      0000
 930 02f5 891424   		movl	%edx, (%esp)
 931 02f8 E8000000 		call	__Z11farsh_keyedPKvjS0_
 931      00
 932 02fd 83F82A   		cmpl	$42, %eax
 933 0300 0F848600 		je	L164
 933      0000
 934 0306 8D4EFB   		leal	-5(%esi), %ecx
 935 0309 89D8     		movl	%ebx, %eax
 936 030b C7442408 		movl	$__ZL10FARSH_KEYS, 8(%esp)
 936      80000000 
 937 0313 29C8     		subl	%ecx, %eax
 938 0315 894C2404 		movl	%ecx, 4(%esp)
 939 0319 89C7     		movl	%eax, %edi
 940 031b 81C70000 		addl	$__ZZ4mainE4data, %edi
 940      0000
 941 0321 893C24   		movl	%edi, (%esp)
 942 0324 E8000000 		call	__Z11farsh_keyedPKvjS0_
 942      00
 943 0329 83F82A   		cmpl	$42, %eax
 944 032c 745E     		je	L164
 945 032e 8D56FA   		leal	-6(%esi), %edx
 946 0331 89D9     		movl	%ebx, %ecx
 947 0333 C7442408 		movl	$__ZL10FARSH_KEYS, 8(%esp)
 947      80000000 
 948 033b 29D1     		subl	%edx, %ecx
 949 033d 89542404 		movl	%edx, 4(%esp)
 950 0341 89C8     		movl	%ecx, %eax
 951 0343 05000000 		addl	$__ZZ4mainE4data, %eax
 951      00
 952 0348 890424   		movl	%eax, (%esp)
 953 034b E8000000 		call	__Z11farsh_keyedPKvjS0_
 953      00
 954 0350 83F82A   		cmpl	$42, %eax
 955 0353 7437     		je	L164
 956 0355 8D56F9   		leal	-7(%esi), %edx
 957 0358 89DF     		movl	%ebx, %edi
 958 035a C7442408 		movl	$__ZL10FARSH_KEYS, 8(%esp)
 958      80000000 
 959 0362 29D7     		subl	%edx, %edi
 960 0364 89542404 		movl	%edx, 4(%esp)
 961 0368 89F9     		movl	%edi, %ecx
 962 036a 81C10000 		addl	$__ZZ4mainE4data, %ecx
 962      0000
 963 0370 890C24   		movl	%ecx, (%esp)
 964 0373 E8000000 		call	__Z11farsh_keyedPKvjS0_
 964      00
 965 0378 83F82A   		cmpl	$42, %eax
 966 037b 740F     		je	L164
 967 037d 83EE08   		subl	$8, %esi
 968 0380 81FEF06F 		cmpl	$28656, %esi
 968      0000
 969 0386 0F85A4FE 		jne	L165
 969      FFFF
 970              	L164:
 971 038c 8D75D8   		leal	-40(%ebp), %esi
 972 038f C7442404 		movl	$100, 4(%esp)
 972      64000000 
 973 0397 C7042439 		movl	$LC17, (%esp)
 973      000000
 974 039e E8000000 		call	_printf
 974      00
 975 03a3 893424   		movl	%esi, (%esp)
 976 03a6 8D5DC8   		leal	-56(%ebp), %ebx
 977 03a9 FF150000 		call	*__imp__QueryPerformanceFrequency@4
 977      0000
 978 03af A1000000 		movl	__imp__QueryPerformanceCounter@4, %eax
 978      00
 979 03b4 83EC04   		subl	$4, %esp
 980 03b7 891C24   		movl	%ebx, (%esp)
 981 03ba 89C7     		movl	%eax, %edi
 982 03bc 8945B8   		movl	%eax, -72(%ebp)
 983 03bf FFD0     		call	*%eax
 984 03c1 8D55D0   		leal	-48(%ebp), %edx
 985 03c4 83EC04   		subl	$4, %esp
 986 03c7 891424   		movl	%edx, (%esp)
 987 03ca FFD7     		call	*%edi
 988 03cc 8B4DD0   		movl	-48(%ebp), %ecx
 989 03cf 83EC04   		subl	$4, %esp
 990 03d2 2B4DC8   		subl	-56(%ebp), %ecx
 991 03d5 8B45D4   		movl	-44(%ebp), %eax
 992 03d8 1B45CC   		sbbl	-52(%ebp), %eax
 993 03db 891C24   		movl	%ebx, (%esp)
 994 03de 894DE0   		movl	%ecx, -32(%ebp)
 995 03e1 8945E4   		movl	%eax, -28(%ebp)
 996 03e4 FFD7     		call	*%edi
 997 03e6 C745BC01 		movl	$1, -68(%ebp)
 997      000000
 998 03ed 83EC04   		subl	$4, %esp
 999              		.p2align 4,,10
 1000              	L173:
 1001 03f0 0FB655BC 		movzbl	-68(%ebp), %edx
 1002 03f4 C7458800 		movl	$0, -120(%ebp)
 1002      000000
 1003 03fb 31F6     		xorl	%esi, %esi
 1004 03fd 31FF     		xorl	%edi, %edi
 1005 03ff 31DB     		xorl	%ebx, %ebx
 1006 0401 B9000000 		movl	$__ZZ4mainE4data, %ecx
 1006      00
 1007 0406 83EA01   		subl	$1, %edx
 1008 0409 88150000 		movb	%dl, __ZZ4mainE4data
 1008      0000
 1009 040f 90       		.p2align 4,,10
 1010              	L166:
 1011 0410 C5D9EFE4 		vpxor	%xmm4, %xmm4, %xmm4
 1012 0414 31C0     		xorl	%eax, %eax
 1013              	L167:
 1014 0416 C5FE6FB0 		vmovdqu	__ZL10FARSH_KEYS(%eax), %ymm6
 1014      80000000 
 1015 041e C5FE6F4C 		vmovdqu	32(%ecx,%eax), %ymm1
 1015      0120
 1016 0424 C5CDFE1C 		vpaddd	(%ecx,%eax), %ymm6, %ymm3
 1016      01
 1017 0429 C5FD70FB 		vpshufd	$49, %ymm3, %ymm7
 1017      31
 1018 042e C5F5FEA8 		vpaddd	__ZL10FARSH_KEYS+32(%eax), %ymm1, %ymm5
 1018      A0000000 
 1019 0436 C5E5F4D7 		vpmuludq	%ymm7, %ymm3, %ymm2
 1020 043a C5DDD4C2 		vpaddq	%ymm2, %ymm4, %ymm0
 1021 043e C5FD70E5 		vpshufd	$49, %ymm5, %ymm4
 1021      31
 1022 0443 C5FE6F7C 		vmovdqu	64(%ecx,%eax), %ymm7
 1022      0140
 1023 0449 C5D5F4F4 		vpmuludq	%ymm4, %ymm5, %ymm6
 1024 044d C5C5FE90 		vpaddd	__ZL10FARSH_KEYS+64(%eax), %ymm7, %ymm2
 1024      C0000000 
 1025 0455 C5FDD4DE 		vpaddq	%ymm6, %ymm0, %ymm3
 1026 0459 C5FD70C2 		vpshufd	$49, %ymm2, %ymm0
 1026      31
 1027 045e C5FE6F64 		vmovdqu	96(%ecx,%eax), %ymm4
 1027      0160
 1028 0464 C5DDFEB0 		vpaddd	__ZL10FARSH_KEYS+96(%eax), %ymm4, %ymm6
 1028      E0000000 
 1029 046c C5EDF4C8 		vpmuludq	%ymm0, %ymm2, %ymm1
 1030 0470 C5E5D4E9 		vpaddq	%ymm1, %ymm3, %ymm5
 1031 0474 C5FD70DE 		vpshufd	$49, %ymm6, %ymm3
 1031      31
 1032 0479 C5FE6F84 		vmovdqu	128(%ecx,%eax), %ymm0
 1032      01800000 
 1032      00
 1033 0482 C5CDF4FB 		vpmuludq	%ymm3, %ymm6, %ymm7
 1034 0486 C5D5D4D7 		vpaddq	%ymm7, %ymm5, %ymm2
 1035 048a C5FDFEA8 		vpaddd	__ZL10FARSH_KEYS+128(%eax), %ymm0, %ymm5
 1035      00010000 
 1036 0492 C5FD70CD 		vpshufd	$49, %ymm5, %ymm1
 1036      31
 1037 0497 C5FE6F9C 		vmovdqu	160(%ecx,%eax), %ymm3
 1037      01A00000 
 1037      00
 1038 04a0 C5E5FEB8 		vpaddd	__ZL10FARSH_KEYS+160(%eax), %ymm3, %ymm7
 1038      20010000 
 1039 04a8 C5D5F4E1 		vpmuludq	%ymm1, %ymm5, %ymm4
 1040 04ac C5EDD4F4 		vpaddq	%ymm4, %ymm2, %ymm6
 1041 04b0 C5FD70D7 		vpshufd	$49, %ymm7, %ymm2
 1041      31
 1042 04b5 C5FE6F8C 		vmovdqu	192(%ecx,%eax), %ymm1
 1042      01C00000 
 1042      00
 1043 04be C5C5F4C2 		vpmuludq	%ymm2, %ymm7, %ymm0
 1044 04c2 C5F5FEA0 		vpaddd	__ZL10FARSH_KEYS+192(%eax), %ymm1, %ymm4
 1044      40010000 
 1045 04ca C5CDD4E8 		vpaddq	%ymm0, %ymm6, %ymm5
 1046 04ce C5FD70F4 		vpshufd	$49, %ymm4, %ymm6
 1046      31
 1047 04d3 C5FE6F94 		vmovdqu	224(%ecx,%eax), %ymm2
 1047      01E00000 
 1047      00
 1048 04dc 05000100 		addl	$256, %eax
 1048      00
 1049 04e1 C5EDFE80 		vpaddd	__ZL10FARSH_KEYS-32(%eax), %ymm2, %ymm0
 1049      60000000 
 1050 04e9 3D000400 		cmpl	$1024, %eax
 1050      00
 1051 04ee C5DDF4DE 		vpmuludq	%ymm6, %ymm4, %ymm3
 1052 04f2 C5D5D4FB 		vpaddq	%ymm3, %ymm5, %ymm7
 1053 04f6 C5FD70E8 		vpshufd	$49, %ymm0, %ymm5
 1053      31
 1054 04fb C5FDF4CD 		vpmuludq	%ymm5, %ymm0, %ymm1
 1055 04ff C5C5D4E1 		vpaddq	%ymm1, %ymm7, %ymm4
 1056 0503 0F850DFF 		jne	L167
 1056      FFFF
 1057 0509 C5FD70F4 		vpshufd	$14, %ymm4, %ymm6
 1057      0E
 1058 050e 8B049D80 		movl	__ZL10FARSH_KEYS(,%ebx,4), %eax
 1058      000000
 1059 0515 81C10004 		addl	$1024, %ecx
 1059      0000
 1060 051b C5DDD4E6 		vpaddq	%ymm6, %ymm4, %ymm4
 1061 051f C4E37D39 		vextracti128	$0x1, %ymm4, %xmm3
 1061      E301
 1062 0525 05000400 		addl	$1024, %eax
 1062      00
 1063 052a C5D9D4FB 		vpaddq	%xmm3, %xmm4, %xmm7
 1064 052e C5F970D7 		vpshufd	$1, %xmm7, %xmm2
 1064      01
 1065 0533 C5E9FEC7 		vpaddd	%xmm7, %xmm2, %xmm0
 1066 0537 C5F97EC2 		vmovd	%xmm0, %edx
 1067 053b F7E2     		mull	%edx
 1068 053d 01C6     		addl	%eax, %esi
 1069 053f 11D7     		adcl	%edx, %edi
 1070 0541 83C301   		addl	$1, %ebx
 1071 0544 81FB0001 		cmpl	$256, %ebx
 1071      0000
 1072 054a 7434     		je	L212
 1073              	L168:
 1074 054c 81F90070 		cmpl	$__ZZ4mainE4data+28672, %ecx
 1074      0000
 1075 0552 0F82B8FE 		jb	L166
 1075      FFFF
 1076 0558 01FE     		addl	%edi, %esi
 1077 055a 83FE2A   		cmpl	$42, %esi
 1078 055d 744D     		je	L170
 1079 055f 837DBC2B 		cmpl	$43, -68(%ebp)
 1080 0563 0F84B600 		je	L213
 1080      0000
 1081 0569 817DBC92 		cmpl	$3744914, -68(%ebp)
 1081      243900
 1082 0570 743A     		je	L170
 1083              	L172:
 1084 0572 8345BC01 		addl	$1, -68(%ebp)
 1085 0576 E975FEFF 		jmp	L173
 1085      FF
 1086 057b 908D7426 		.p2align 4,,10
 1086      00
 1087              	L212:
 1088 0580 8B5D88   		movl	-120(%ebp), %ebx
 1089 0583 89F8     		movl	%edi, %eax
 1090 0585 01F0     		addl	%esi, %eax
 1091 0587 F7249D80 		mull	__ZL10FARSH_KEYS(,%ebx,4)
 1091      000000
 1092 058e 01C6     		addl	%eax, %esi
 1093 0590 B8000000 		movl	$0, %eax
 1093      00
 1094 0595 11D7     		adcl	%edx, %edi
 1095 0597 89DA     		movl	%ebx, %edx
 1096 0599 31DB     		xorl	%ebx, %ebx
 1097 059b 83C201   		addl	$1, %edx
 1098 059e 81FA0001 		cmpl	$256, %edx
 1098      0000
 1099 05a4 0F45C2   		cmovne	%edx, %eax
 1100 05a7 894588   		movl	%eax, -120(%ebp)
 1101 05aa EBA0     		jmp	L168
 1102              	L170:
 1103 05ac 8D75D0   		leal	-48(%ebp), %esi
 1104 05af 893424   		movl	%esi, (%esp)
 1105 05b2 C5F877   		vzeroupper
 1106 05b5 FF55B8   		call	*-72(%ebp)
 1107 05b8 8B7DD0   		movl	-48(%ebp), %edi
 1108 05bb 83EC04   		subl	$4, %esp
 1109 05be 2B7DC8   		subl	-56(%ebp), %edi
 1110 05c1 8B55D4   		movl	-44(%ebp), %edx
 1111 05c4 1B55CC   		sbbl	-52(%ebp), %edx
 1112 05c7 2B7DE0   		subl	-32(%ebp), %edi
 1113 05ca C7042408 		movl	$LC16, (%esp)
 1113      000000
 1114 05d1 1B55E4   		sbbl	-28(%ebp), %edx
 1115 05d4 897D88   		movl	%edi, -120(%ebp)
 1116 05d7 89558C   		movl	%edx, -116(%ebp)
 1117 05da DF6D88   		fildq	-120(%ebp)
 1118 05dd D905E009 		flds	LC12
 1118      0000
 1119 05e3 DCC9     		fmul	%st, %st(1)
 1120 05e5 DF6DD8   		fildq	-40(%ebp)
 1121 05e8 DEFA     		fdivrp	%st, %st(2)
 1122 05ea D8F9     		fdivr	%st(1), %st
 1123 05ec D83DE409 		fdivrs	LC13
 1123      0000
 1124 05f2 D9C0     		fld	%st(0)
 1125 05f4 D80DE809 		fmuls	LC14
 1125      0000
 1126 05fa DD5C2414 		fstpl	20(%esp)
 1127 05fe D835EC09 		fdivs	LC15
 1127      0000
 1128 0604 DD5C240C 		fstpl	12(%esp)
 1129 0608 DD5C2404 		fstpl	4(%esp)
 1130 060c E8000000 		call	_printf
 1130      00
 1131 0611 8D65F0   		leal	-16(%ebp), %esp
 1132 0614 31C0     		xorl	%eax, %eax
 1133 0616 59       		popl	%ecx
 1134 0617 5B       		popl	%ebx
 1135 0618 5E       		popl	%esi
 1136 0619 5F       		popl	%edi
 1137 061a 5D       		popl	%ebp
 1138 061b 8D61FC   		leal	-4(%ecx), %esp
 1139 061e C3       		ret
 1140              	L213:
 1141 061f 89742404 		movl	%esi, 4(%esp)
 1142 0623 C7042400 		movl	$LC11, (%esp)
 1142      000000
 1143 062a C5F877   		vzeroupper
 1144 062d E8000000 		call	_printf
 1144      00
 1145 0632 E93BFFFF 		jmp	L172
 1145      FF
 1146              	.lcomm __ZZ4mainE4data,28673,64
 1147 0637 90909090 		.section .rdata,"dr"
 1147      90909090 
 1147      90
 1148 0048 00000000 		.align 64
 1148      00000000 
 1148      00000000 
 1148      00000000 
 1148      00000000 
 1149              	__ZL10FARSH_KEYS:
 1150 0080 396CFEB8 		.long	-1191285703
 1151 0084 BE4BA423 		.long	597969854
 1152 0088 2C81017C 		.long	2080473388
 1153 008c 1CAD21F7 		.long	-148787940
 1154 0090 E96DD4DE 		.long	-556503575
 1155 0094 DB979083 		.long	-2087675941
 1156 0098 A4A44072 		.long	1916839076
 1157 009c 1F67B3B7 		.long	-1212979425
 1158 00a0 4EE679CB 		.long	-881203634
 1159 00a4 78E5C0CC 		.long	-859773576
 1160 00a8 7DD05A82 		.long	-2107977603
 1161 00ac 2172FFCC 		.long	-855674335
 1162 00b0 744608B8 		.long	-1207417228
 1163 00b4 8E2443F7 		.long	-146594674
 1164 00b8 E69035E0 		.long	-533360410
 1165 00bc 4C263A81 		.long	-2126895540
 1166 00c0 BB52283C 		.long	1009275579
 1167 00c4 CB00C391 		.long	-1849491253
 1168 00c8 8B65D088 		.long	-1999608437
 1169 00cc A32E531B 		.long	458436259
 1170 00d0 97486471 		.long	1902397591
 1171 00d4 4EF90DA2 		.long	-1576142514
 1172 00d8 46EF1938 		.long	941223750
 1173 00dc D8ACDEA9 		.long	-1445024552
 1174 00e0 3F76FAA8 		.long	-1459980737
 1175 00e4 3F349CE3 		.long	-476302273
 1176 00e8 C7BBDCF9 		.long	-102974521
 1177 00ec 1D4F0BC7 		.long	-955560163
 1178 00f0 4BE0518A 		.long	-1974345653
 1179 00f4 3159B4CD 		.long	-843818703
 1180 00f8 C97E9FC8 		.long	-929071415
 1181 00fc 647378D9 		.long	-646417564
 1182 0100 52076A4F 		.long	1332348754
 1183 0104 9C079BA7 		.long	-1483012196
 1184 0108 9994C48F 		.long	-1882942311
 1185 010c A9B7C98E 		.long	-1899382871
 1186 0110 4922C933 		.long	868819529
 1187 0114 4F40B64E 		.long	1320566863
 1188 0118 4EFB2AFB 		.long	-81069234
 1189 011c 554281A4 		.long	-1535032747
 1190 0120 981B0E2F 		.long	789453720
 1191 0124 243BE9AC 		.long	-1394001116
 1192 0128 CD508818 		.long	411586765
 1193 012c A7745C6C 		.long	1817998503
 1194 0130 0444FA66 		.long	1727677444
 1195 0134 83ACC5EA 		.long	-356143997
 1196 0138 C3EBD334 		.long	886303683
 1197 013c FFA081C5 		.long	-981360385
 1198 0140 EB6313FA 		.long	-99392533
 1199 0144 51DD0D17 		.long	386784593
 1200 0148 49DAF0B7 		.long	-1208952247
 1201 014c 265516D3 		.long	-753511130
 1202 0150 9E68D429 		.long	701786270
 1203 0154 58BE162B 		.long	722910808
 1204 0158 FCA1477D 		.long	2101846524
 1205 015c D1B8F88F 		.long	-1879525167
 1206 0160 CE31D07A 		.long	2060464590
 1207 0164 8F3ACB45 		.long	1170946703
 1208 0168 28041695 		.long	-1793719256
 1209 016c CAFBD7AF 		.long	-1344799798
 1210 0170 7E404BBB 		.long	-1152696194
 1211 0174 A4745299 		.long	-1722649436
 1212 0178 932D9AEB 		.long	-342217325
 1213 017c 0889E73B 		.long	1005029640
 1214 0180 6C5F47ED 		.long	-314089620
 1215 0184 F2D89C91 		.long	-1851991822
 1216 0188 5A1E86D3 		.long	-746185126
 1217 018c 0C39316E 		.long	1848719628
 1218 0190 493A6AFE 		.long	-26592695
 1219 0194 1409ADDC 		.long	-592639724
 1220 0198 EB8B5006 		.long	105941995
 1221 019c F39983A8 		.long	-1467770381
 1222 01a0 2F1158B0 		.long	-1336405713
 1223 01a4 79FAB0E8 		.long	-391054727
 1224 01a8 06DAB429 		.long	699718150
 1225 01ac FB53C2ED 		.long	-306031621
 1226 01b0 AD6DE9C3 		.long	-1008112211
 1227 01b4 832B376E 		.long	1849109379
 1228 01b8 53B1784F 		.long	1333309779
 1229 01bc 866EFAFF 		.long	-364922
 1230 01c0 ECEEBE21 		.long	566161132
 1231 01c4 02EACA01 		.long	30075394
 1232 01c8 0DE56712 		.long	308798733
 1233 01cc 2F09E611 		.long	300288303
 1234 01d0 98D219E8 		.long	-400960872
 1235 01d4 DD802F83 		.long	-2094038819
 1236 01d8 77244E0C 		.long	206447735
 1237 01dc EB8678BC 		.long	-1132951829
 1238 01e0 37665001 		.long	22046263
 1239 01e4 6896A88B 		.long	-1951885720
 1240 01e8 A0E7116D 		.long	1829889952
 1241 01ec 15FD12FC 		.long	-65864427
 1242 01f0 194CA586 		.long	-2035987431
 1243 01f4 DDE33C59 		.long	1497162717
 1244 01f8 E53FB1D2 		.long	-760135707
 1245 01fc 532B778E 		.long	-1904792749
 1246 0200 CC604AAE 		.long	-1370857268
 1247 0204 1B3B7A64 		.long	1685732123
 1248 0208 E0867754 		.long	1417119456
 1249 020c 8E37C43E 		.long	1053046670
 1250 0210 89CF7A8D 		.long	-1921331319
 1251 0214 47F936CA 		.long	-902366905
 1252 0218 EFD5890E 		.long	243914223
 1253 021c 3C6ADAAA 		.long	-1428526532
 1254 0220 09A1A46D 		.long	1839505673
 1255 0224 1CE1C69A 		.long	-1698242276
 1256 0228 EF916668 		.long	1751552495
 1257 022c 2BBD57A3 		.long	-1554531029
 1258 0230 9A1B6FD1 		.long	-781247590
 1259 0234 0303C738 		.long	952566531
 1260 0238 B322467D 		.long	2101748403
 1261 023c 8FFA6829 		.long	694745743
 1262 0240 B9BCA58C 		.long	-1935295303
 1263 0244 0510D6FC 		.long	-53080059
 1264 0248 965E8B22 		.long	579559062
 1265 024c 19CC9D2C 		.long	748538905
 1266 0250 3C24CF57 		.long	1473193020
 1267 0254 C1F9533C 		.long	1012136385
 1268 0258 2C95C70C 		.long	214406444
 1269 025c F0E46D68 		.long	1752032496
 1270 0260 B547A793 		.long	-1817753675
 1271 0264 10A5874E 		.long	1317512464
 1272 0268 AE915E97 		.long	-1755410002
 1273 026c 8EB9104C 		.long	1276164494
 1274 0270 8C067F8A 		.long	-1971386740
 1275 0274 AB196B34 		.long	879434155
 1276 0278 25A63C35 		.long	893167141
 1277 027c E0500AF2 		.long	-234204960
 1278 0280 F62199CE 		.long	-828825098
 1279 0284 14E066DF 		.long	-546906092
 1280 0288 4BEF110A 		.long	168947531
 1281 028c DF4DC88B 		.long	-1949807137
 1282 0290 225DD284 		.long	-2066588382
 1283 0294 6D9323C8 		.long	-937192595
 1284 0298 C31E7494 		.long	-1804329277
 1285 029c 608A2788 		.long	-2010674592
 1286 02a0 319364B8 		.long	-1201368271
 1287 02a4 107A707A 		.long	2054191632
 1288 02a8 D6CA9272 		.long	1922222806
 1289 02ac C244C6A7 		.long	-1480178494
 1290 02b0 FA6B15BD 		.long	-1122669574
 1291 02b4 78956C64 		.long	1684837752
 1292 02b8 D5DFF4B7 		.long	-1208688683
 1293 02bc A777829F 		.long	-1618839641
 1294 02c0 4E921370 		.long	1880330830
 1295 02c4 C34C67AD 		.long	-1385739069
 1296 02c8 059DAE2C 		.long	749640965
 1297 02cc 229A2A91 		.long	-1859479006
 1298 02d0 FA537CF6 		.long	-159624198
 1299 02d4 A9227E8D 		.long	-1921113431
 1300 02d8 2B37AE59 		.long	1504589611
 1301 02dc F3990185 		.long	-2063492621
 1302 02e0 2C10A263 		.long	1671565356
 1303 02e4 6112FFD6 		.long	-687926687
 1304 02e8 E18E7356 		.long	1450413793
 1305 02ec 5B1495AA 		.long	-1433070501
 1306 02f0 3228D1FD 		.long	-36624334
 1307 02f4 EB4D685B 		.long	1533562347
 1308 02f8 94DE8407 		.long	126148244
 1309 02fc 0E3962AA 		.long	-1436403442
 1310 0300 19CF7CBB 		.long	-1149448423
 1311 0304 72D5EF0F 		.long	267375986
 1312 0308 CA415B56 		.long	1448821194
 1313 030c 02D20622 		.long	570872322
 1314 0310 7984602D 		.long	761300089
 1315 0314 3DCD0F4C 		.long	1276103997
 1316 0318 E33B6DD3 		.long	-747815965
 1317 031c 659A5A15 		.long	358259301
 1318 0320 32E7F910 		.long	284813106
 1319 0324 1E0F9BAC 		.long	-1399124194
 1320 0328 3BA0721F 		.long	527605819
 1321 032c AE4094EA 		.long	-359382866
 1322 0330 4F4B675B 		.long	1533496143
 1323 0334 D127A831 		.long	833103825
 1324 0338 4F95CAEC 		.long	-322267825
 1325 033c 1ED62C3D 		.long	1026348574
 1326 0340 A43D8D76 		.long	1988967844
 1327 0344 C15A7493 		.long	-1821091135
 1328 0348 CB585D1D 		.long	492656843
 1329 034c B6F3864B 		.long	1267135414
 1330 0350 3A92BA2A 		.long	716870202
 1331 0354 4C81650E 		.long	241533260
 1332 0358 D963E08A 		.long	-1965005863
 1333 035c B06969CD 		.long	-848729680
 1334 0360 85156436 		.long	912528773
 1335 0364 9DF52A74 		.long	1948972445
 1336 0368 16133A61 		.long	1631195926
 1337 036c 71A48E33 		.long	864986225
 1338 0370 F31A8647 		.long	1199971059
 1339 0374 C39D4730 		.long	809999811
 1340 0378 81A47012 		.long	309372033
 1341 037c 69107708 		.long	142020713
 1342 0380 D2F0C4E3 		.long	-473632558
 1343 0384 4C872902 		.long	36276044
 1344 0388 C13B8A5A 		.long	1519008705
 1345 038c 33970DE3 		.long	-485648589
 1346 0390 A2E55BD0 		.long	-799283806
 1347 0394 BA31AFE2 		.long	-491834950
 1348 0398 F9492022 		.long	572541433
 1349 039c 6A3B929F 		.long	-1617806486
 1350 03a0 EC643F03 		.long	54486252
 1351 03a4 2BB628E5 		.long	-450316757
 1352 03a8 BDEF0182 		.long	-2113802307
 1353 03ac 77D80721 		.long	554162295
 1354 03b0 F12E31D8 		.long	-667865359
 1355 03b4 999F67A5 		.long	-1519935591
 1356 03b8 1BB53017 		.long	389068059
 1357 03bc D2162675 		.long	1965430482
 1358 03c0 09593005 		.long	87054601
 1359 03c4 0B44CA0D 		.long	231359499
 1360 03c8 D9CD9320 		.long	546557401
 1361 03cc 50AB0964 		.long	1678355280
 1362 03d0 CC8E5CBA 		.long	-1168339252
 1363 03d4 EA08478D 		.long	-1924724502
 1364 03d8 17099F42 		.long	1117718807
 1365 03dc B0FA62B7 		.long	-1218250064
 1366 03e0 75EA6151 		.long	1365371509
 1367 03e4 EBA0EB45 		.long	1173070059
 1368 03e8 414BF3B6 		.long	-1225569471
 1369 03ec 23710452 		.long	1376022819
 1370 03f0 231518E4 		.long	-468183773
 1371 03f4 0AE9748D 		.long	-1921718006
 1372 03f8 1C40FA54 		.long	1425686556
 1373 03fc C70CDADD 		.long	-572912441
 1374 0400 2A18DF63 		.long	1675565098
 1375 0404 F63E40C6 		.long	-968868106
 1376 0408 E8C68E34 		.long	881772264
 1377 040c F557FFB9 		.long	-1174448139
 1378 0410 BDB852F6 		.long	-162350915
 1379 0414 F3B0860F 		.long	260485363
 1380 0418 8A083AFB 		.long	-80082806
 1381 041c 3315C74D 		.long	1304892723
 1382 0420 D217367B 		.long	2067142610
 1383 0424 EB874EA3 		.long	-1555134485
 1384 0428 DD9B2ABA 		.long	-1171612707
 1385 042c 061338E3 		.long	-482864378
 1386 0430 BBD6BA14 		.long	347788987
 1387 0434 C2C76DC9 		.long	-915552318
 1388 0438 B6543B33 		.long	859526326
 1389 043c FA7CE49B 		.long	-1679524614
 1390 0440 9992CF1D 		.long	500142745
 1391 0444 995FEAE7 		.long	-404070503
 1392 0448 CDEA8FB3 		.long	-1282413875
 1393 044c F7E2CFC3 		.long	-1009786121
 1394 0450 22E8875B 		.long	1535633442
 1395 0454 56ABC539 		.long	969255766
 1396 0458 8FA1F418 		.long	418685327
 1397 045c 9C4D482D 		.long	759713180
 1398 0460 19D56341 		.long	1097061657
 1399 0464 989E7679 		.long	2037816984
 1400 0468 F0678AF5 		.long	-175478800
 1401 046c 020C5940 		.long	1079577602
 1402 0470 C0719631 		.long	831943104
 1403 0474 3A136B26 		.long	644551482
 1404 0478 87B281AF 		.long	-1350454649
 1405 047c 37F7316A 		.long	1781659447
 1406 0480 9701BCE3 		.long	-474218089
 1407 0484 13990755 		.long	1426561299
 1408 0488 96C6729F 		.long	-1619868010
 1409 048c C8003E36 		.long	910033096
 1410 0490 47391553 		.long	1393899847
 1411 0494 7F12FDEB 		.long	-335736193
 1412 0498 1905F600 		.long	16123161
 1413 049c 2AB6A646 		.long	1185330730
 1414 04a0 8033B893 		.long	-1816644736
 1415 04a4 2493E23F 		.long	1071813412
 1416 04a8 9170C6DF 		.long	-540643183
 1417 04ac 6D38620F 		.long	258095213
 1418 04b0 795E37DC 		.long	-600351111
 1419 04b4 3E3FEA8F 		.long	-1880473794
 1420 04b8 D06384DF 		.long	-544971824
 1421 04bc 7BFA0237 		.long	922942075
 1422 04c0 5E435439 		.long	961823582
 1423 04c4 48A6CA87 		.long	-2016762296
 1424 04c8 EE8B15A9 		.long	-1458205714
 1425 04cc 250CF308 		.long	150146085
 1426 04d0 3629B866 		.long	1723345206
 1427 04d4 EB3FFCE7 		.long	-402898965
 1428 04d8 50543C18 		.long	406606928
 1429 04dc 4543EFD7 		.long	-672185531
 1430 04e0 63798C79 		.long	2039249251
 1431 04e4 57F52CC0 		.long	-1070795433
 1432 04e8 D1538509 		.long	159732689
 1433 04ec AA1243FA 		.long	-96267606
 1434 04f0 83F89EE2 		.long	-492898173
 1435 04f4 8D12AF7C 		.long	2091848333
 1436 04f8 7DA0B374 		.long	1957929085
 1437 04fc 00000000 		.space 896
 1437      00000000 
 1437      00000000 
 1437      00000000 
 1437      00000000 
 1438 087c 00000000 		.align 32
 1439              	LC0:
 1440 0880 00000000 		.long	0
 1441 0884 01000000 		.long	1
 1442 0888 02000000 		.long	2
 1443 088c 03000000 		.long	3
 1444 0890 04000000 		.long	4
 1445 0894 05000000 		.long	5
 1446 0898 06000000 		.long	6
 1447 089c 07000000 		.long	7
 1448              		.align 32
 1449              	LC1:
 1450 08a0 20000000 		.long	32
 1451 08a4 20000000 		.long	32
 1452 08a8 20000000 		.long	32
 1453 08ac 20000000 		.long	32
 1454 08b0 20000000 		.long	32
 1455 08b4 20000000 		.long	32
 1456 08b8 20000000 		.long	32
 1457 08bc 20000000 		.long	32
 1458              		.align 32
 1459              	LC2:
 1460 08c0 17CD5B07 		.long	123456791
 1461 08c4 17CD5B07 		.long	123456791
 1462 08c8 17CD5B07 		.long	123456791
 1463 08cc 17CD5B07 		.long	123456791
 1464 08d0 17CD5B07 		.long	123456791
 1465 08d4 17CD5B07 		.long	123456791
 1466 08d8 17CD5B07 		.long	123456791
 1467 08dc 17CD5B07 		.long	123456791
 1468              		.align 32
 1469              	LC3:
 1470 08e0 0F000000 		.long	15
 1471 08e4 0F000000 		.long	15
 1472 08e8 0F000000 		.long	15
 1473 08ec 0F000000 		.long	15
 1474 08f0 0F000000 		.long	15
 1475 08f4 0F000000 		.long	15
 1476 08f8 0F000000 		.long	15
 1477 08fc 0F000000 		.long	15
 1478              		.align 32
 1479              	LC4:
 1480 0900 08000000 		.long	8
 1481 0904 08000000 		.long	8
 1482 0908 08000000 		.long	8
 1483 090c 08000000 		.long	8
 1484 0910 08000000 		.long	8
 1485 0914 08000000 		.long	8
 1486 0918 08000000 		.long	8
 1487 091c 08000000 		.long	8
 1488              		.align 32
 1489              	LC5:
 1490 0920 00       		.byte	0
 1491 0921 01       		.byte	1
 1492 0922 04       		.byte	4
 1493 0923 05       		.byte	5
 1494 0924 08       		.byte	8
 1495 0925 09       		.byte	9
 1496 0926 0C       		.byte	12
 1497 0927 0D       		.byte	13
 1498 0928 80       		.byte	-128
 1499 0929 80       		.byte	-128
 1500 092a 80       		.byte	-128
 1501 092b 80       		.byte	-128
 1502 092c 80       		.byte	-128
 1503 092d 80       		.byte	-128
 1504 092e 80       		.byte	-128
 1505 092f 80       		.byte	-128
 1506 0930 00       		.byte	0
 1507 0931 01       		.byte	1
 1508 0932 04       		.byte	4
 1509 0933 05       		.byte	5
 1510 0934 08       		.byte	8
 1511 0935 09       		.byte	9
 1512 0936 0C       		.byte	12
 1513 0937 0D       		.byte	13
 1514 0938 80       		.byte	-128
 1515 0939 80       		.byte	-128
 1516 093a 80       		.byte	-128
 1517 093b 80       		.byte	-128
 1518 093c 80       		.byte	-128
 1519 093d 80       		.byte	-128
 1520 093e 80       		.byte	-128
 1521 093f 80       		.byte	-128
 1522              		.align 32
 1523              	LC6:
 1524 0940 80       		.byte	-128
 1525 0941 80       		.byte	-128
 1526 0942 80       		.byte	-128
 1527 0943 80       		.byte	-128
 1528 0944 80       		.byte	-128
 1529 0945 80       		.byte	-128
 1530 0946 80       		.byte	-128
 1531 0947 80       		.byte	-128
 1532 0948 00       		.byte	0
 1533 0949 01       		.byte	1
 1534 094a 04       		.byte	4
 1535 094b 05       		.byte	5
 1536 094c 08       		.byte	8
 1537 094d 09       		.byte	9
 1538 094e 0C       		.byte	12
 1539 094f 0D       		.byte	13
 1540 0950 80       		.byte	-128
 1541 0951 80       		.byte	-128
 1542 0952 80       		.byte	-128
 1543 0953 80       		.byte	-128
 1544 0954 80       		.byte	-128
 1545 0955 80       		.byte	-128
 1546 0956 80       		.byte	-128
 1547 0957 80       		.byte	-128
 1548 0958 00       		.byte	0
 1549 0959 01       		.byte	1
 1550 095a 04       		.byte	4
 1551 095b 05       		.byte	5
 1552 095c 08       		.byte	8
 1553 095d 09       		.byte	9
 1554 095e 0C       		.byte	12
 1555 095f 0D       		.byte	13
 1556              		.align 32
 1557              	LC7:
 1558 0960 10000000 		.long	16
 1559 0964 10000000 		.long	16
 1560 0968 10000000 		.long	16
 1561 096c 10000000 		.long	16
 1562 0970 10000000 		.long	16
 1563 0974 10000000 		.long	16
 1564 0978 10000000 		.long	16
 1565 097c 10000000 		.long	16
 1566              		.align 32
 1567              	LC8:
 1568 0980 18000000 		.long	24
 1569 0984 18000000 		.long	24
 1570 0988 18000000 		.long	24
 1571 098c 18000000 		.long	24
 1572 0990 18000000 		.long	24
 1573 0994 18000000 		.long	24
 1574 0998 18000000 		.long	24
 1575 099c 18000000 		.long	24
 1576              		.align 32
 1577              	LC9:
 1578 09a0 00       		.byte	0
 1579 09a1 02       		.byte	2
 1580 09a2 04       		.byte	4
 1581 09a3 06       		.byte	6
 1582 09a4 08       		.byte	8
 1583 09a5 0A       		.byte	10
 1584 09a6 0C       		.byte	12
 1585 09a7 0E       		.byte	14
 1586 09a8 80       		.byte	-128
 1587 09a9 80       		.byte	-128
 1588 09aa 80       		.byte	-128
 1589 09ab 80       		.byte	-128
 1590 09ac 80       		.byte	-128
 1591 09ad 80       		.byte	-128
 1592 09ae 80       		.byte	-128
 1593 09af 80       		.byte	-128
 1594 09b0 00       		.byte	0
 1595 09b1 02       		.byte	2
 1596 09b2 04       		.byte	4
 1597 09b3 06       		.byte	6
 1598 09b4 08       		.byte	8
 1599 09b5 0A       		.byte	10
 1600 09b6 0C       		.byte	12
 1601 09b7 0E       		.byte	14
 1602 09b8 80       		.byte	-128
 1603 09b9 80       		.byte	-128
 1604 09ba 80       		.byte	-128
 1605 09bb 80       		.byte	-128
 1606 09bc 80       		.byte	-128
 1607 09bd 80       		.byte	-128
 1608 09be 80       		.byte	-128
 1609 09bf 80       		.byte	-128
 1610              		.align 32
 1611              	LC10:
 1612 09c0 80       		.byte	-128
 1613 09c1 80       		.byte	-128
 1614 09c2 80       		.byte	-128
 1615 09c3 80       		.byte	-128
 1616 09c4 80       		.byte	-128
 1617 09c5 80       		.byte	-128
 1618 09c6 80       		.byte	-128
 1619 09c7 80       		.byte	-128
 1620 09c8 00       		.byte	0
 1621 09c9 02       		.byte	2
 1622 09ca 04       		.byte	4
 1623 09cb 06       		.byte	6
 1624 09cc 08       		.byte	8
 1625 09cd 0A       		.byte	10
 1626 09ce 0C       		.byte	12
 1627 09cf 0E       		.byte	14
 1628 09d0 80       		.byte	-128
 1629 09d1 80       		.byte	-128
 1630 09d2 80       		.byte	-128
 1631 09d3 80       		.byte	-128
 1632 09d4 80       		.byte	-128
 1633 09d5 80       		.byte	-128
 1634 09d6 80       		.byte	-128
 1635 09d7 80       		.byte	-128
 1636 09d8 00       		.byte	0
 1637 09d9 02       		.byte	2
 1638 09da 04       		.byte	4
 1639 09db 06       		.byte	6
 1640 09dc 08       		.byte	8
 1641 09dd 0A       		.byte	10
 1642 09de 0C       		.byte	12
 1643 09df 0E       		.byte	14
 1644              		.align 4
 1645              	LC12:
 1646 09e0 00007A44 		.long	1148846080
 1647              		.align 4
 1648              	LC13:
 1649 09e4 0000C851 		.long	1372061696
 1650              		.align 4
 1651              	LC14:
 1652 09e8 00008030 		.long	813694976
 1653              		.align 4
 1654              	LC15:
 1655 09ec 286B6E4E 		.long	1315859240
 1656              		.ident	"GCC: (i686-posix-sjlj-rev2, Built by MinGW-W64 project) 4.9.2"
DEFINED SYMBOLS
                            *ABS*:0000000000000000 main.cpp
  M:\Temp\ccX6dLxV.s:6      .text:0000000000000000 __Z11farsh_keyedPKvjS0_
  M:\Temp\ccX6dLxV.s:360    .text:00000000000004a0 __Z13farsh_keyed_nPKvjS0_iPv
  M:\Temp\ccX6dLxV.s:558    .text:0000000000000740 __Z7farsh_nPKvjiiPv
  M:\Temp\ccX6dLxV.s:1149   .rdata:0000000000000080 __ZL10FARSH_KEYS
  M:\Temp\ccX6dLxV.s:758    .text:00000000000009f0 __Z5farshPKvj
  M:\Temp\ccX6dLxV.s:781    .text.startup:0000000000000000 _main
  M:\Temp\ccX6dLxV.s:1146   .bss:0000000000000000 __ZZ4mainE4data

UNDEFINED SYMBOLS
___main
__imp__QueryPerformanceFrequency@4
__imp__QueryPerformanceCounter@4
_printf
